
stream_mpi.x:     file format elf64-littleaarch64


Disassembly of section .init:

0000000000408970 <_init>:
  408970:	a9bf7bfd 	stp	x29, x30, [sp,#-16]!
  408974:	910003fd 	mov	x29, sp
  408978:	94000314 	bl	4095c8 <call_weak_fn>
  40897c:	a8c17bfd 	ldp	x29, x30, [sp],#16
  408980:	d65f03c0 	ret

Disassembly of section .plt:

0000000000408990 <.plt>:
  408990:	a9bf7bf0 	stp	x16, x30, [sp,#-16]!
  408994:	b0000130 	adrp	x16, 42d000 <__FRAME_END__+0xf804>
  408998:	f947fe11 	ldr	x17, [x16,#4088]
  40899c:	913fe210 	add	x16, x16, #0xff8
  4089a0:	d61f0220 	br	x17
  4089a4:	d503201f 	nop
  4089a8:	d503201f 	nop
  4089ac:	d503201f 	nop

00000000004089b0 <_Znam@plt>:
  4089b0:	d0000130 	adrp	x16, 42e000 <_Znam@GLIBCXX_3.4>
  4089b4:	f9400211 	ldr	x17, [x16]
  4089b8:	91000210 	add	x16, x16, #0x0
  4089bc:	d61f0220 	br	x17

00000000004089c0 <ompi_mpi_cxx_op_intercept@plt>:
  4089c0:	d0000130 	adrp	x16, 42e000 <_Znam@GLIBCXX_3.4>
  4089c4:	f9400611 	ldr	x17, [x16,#8]
  4089c8:	91002210 	add	x16, x16, #0x8
  4089cc:	d61f0220 	br	x17

00000000004089d0 <MPI_Win_unlock@plt>:
  4089d0:	d0000130 	adrp	x16, 42e000 <_Znam@GLIBCXX_3.4>
  4089d4:	f9400a11 	ldr	x17, [x16,#16]
  4089d8:	91004210 	add	x16, x16, #0x10
  4089dc:	d61f0220 	br	x17

00000000004089e0 <MPI_Group_excl@plt>:
  4089e0:	d0000130 	adrp	x16, 42e000 <_Znam@GLIBCXX_3.4>
  4089e4:	f9400e11 	ldr	x17, [x16,#24]
  4089e8:	91006210 	add	x16, x16, #0x18
  4089ec:	d61f0220 	br	x17

00000000004089f0 <MPI_Allgather@plt>:
  4089f0:	d0000130 	adrp	x16, 42e000 <_Znam@GLIBCXX_3.4>
  4089f4:	f9401211 	ldr	x17, [x16,#32]
  4089f8:	91008210 	add	x16, x16, #0x20
  4089fc:	d61f0220 	br	x17

0000000000408a00 <MPI_Recv_init@plt>:
  408a00:	d0000130 	adrp	x16, 42e000 <_Znam@GLIBCXX_3.4>
  408a04:	f9401611 	ldr	x17, [x16,#40]
  408a08:	9100a210 	add	x16, x16, #0x28
  408a0c:	d61f0220 	br	x17

0000000000408a10 <MPI_Cart_create@plt>:
  408a10:	d0000130 	adrp	x16, 42e000 <_Znam@GLIBCXX_3.4>
  408a14:	f9401a11 	ldr	x17, [x16,#48]
  408a18:	9100c210 	add	x16, x16, #0x30
  408a1c:	d61f0220 	br	x17

0000000000408a20 <MPI_Comm_get_name@plt>:
  408a20:	d0000130 	adrp	x16, 42e000 <_Znam@GLIBCXX_3.4>
  408a24:	f9401e11 	ldr	x17, [x16,#56]
  408a28:	9100e210 	add	x16, x16, #0x38
  408a2c:	d61f0220 	br	x17

0000000000408a30 <MPI_Info_dup@plt>:
  408a30:	d0000130 	adrp	x16, 42e000 <_Znam@GLIBCXX_3.4>
  408a34:	f9402211 	ldr	x17, [x16,#64]
  408a38:	91010210 	add	x16, x16, #0x40
  408a3c:	d61f0220 	br	x17

0000000000408a40 <MPI_Irsend@plt>:
  408a40:	d0000130 	adrp	x16, 42e000 <_Znam@GLIBCXX_3.4>
  408a44:	f9402611 	ldr	x17, [x16,#72]
  408a48:	91012210 	add	x16, x16, #0x48
  408a4c:	d61f0220 	br	x17

0000000000408a50 <MPI_Bcast@plt>:
  408a50:	d0000130 	adrp	x16, 42e000 <_Znam@GLIBCXX_3.4>
  408a54:	f9402a11 	ldr	x17, [x16,#80]
  408a58:	91014210 	add	x16, x16, #0x50
  408a5c:	d61f0220 	br	x17

0000000000408a60 <MPI_Ssend@plt>:
  408a60:	d0000130 	adrp	x16, 42e000 <_Znam@GLIBCXX_3.4>
  408a64:	f9402e11 	ldr	x17, [x16,#88]
  408a68:	91016210 	add	x16, x16, #0x58
  408a6c:	d61f0220 	br	x17

0000000000408a70 <MPI_Group_range_incl@plt>:
  408a70:	d0000130 	adrp	x16, 42e000 <_Znam@GLIBCXX_3.4>
  408a74:	f9403211 	ldr	x17, [x16,#96]
  408a78:	91018210 	add	x16, x16, #0x60
  408a7c:	d61f0220 	br	x17

0000000000408a80 <puts@plt>:
  408a80:	d0000130 	adrp	x16, 42e000 <_Znam@GLIBCXX_3.4>
  408a84:	f9403611 	ldr	x17, [x16,#104]
  408a88:	9101a210 	add	x16, x16, #0x68
  408a8c:	d61f0220 	br	x17

0000000000408a90 <MPI_Op_create@plt>:
  408a90:	d0000130 	adrp	x16, 42e000 <_Znam@GLIBCXX_3.4>
  408a94:	f9403a11 	ldr	x17, [x16,#112]
  408a98:	9101c210 	add	x16, x16, #0x70
  408a9c:	d61f0220 	br	x17

0000000000408aa0 <MPI_Group_size@plt>:
  408aa0:	d0000130 	adrp	x16, 42e000 <_Znam@GLIBCXX_3.4>
  408aa4:	f9403e11 	ldr	x17, [x16,#120]
  408aa8:	9101e210 	add	x16, x16, #0x78
  408aac:	d61f0220 	br	x17

0000000000408ab0 <MPI_Comm_disconnect@plt>:
  408ab0:	d0000130 	adrp	x16, 42e000 <_Znam@GLIBCXX_3.4>
  408ab4:	f9404211 	ldr	x17, [x16,#128]
  408ab8:	91020210 	add	x16, x16, #0x80
  408abc:	d61f0220 	br	x17

0000000000408ac0 <MPI_Win_get_name@plt>:
  408ac0:	d0000130 	adrp	x16, 42e000 <_Znam@GLIBCXX_3.4>
  408ac4:	f9404611 	ldr	x17, [x16,#136]
  408ac8:	91022210 	add	x16, x16, #0x88
  408acc:	d61f0220 	br	x17

0000000000408ad0 <MPI_Pack_size@plt>:
  408ad0:	d0000130 	adrp	x16, 42e000 <_Znam@GLIBCXX_3.4>
  408ad4:	f9404a11 	ldr	x17, [x16,#144]
  408ad8:	91024210 	add	x16, x16, #0x90
  408adc:	d61f0220 	br	x17

0000000000408ae0 <MPI_Request_get_status@plt>:
  408ae0:	d0000130 	adrp	x16, 42e000 <_Znam@GLIBCXX_3.4>
  408ae4:	f9404e11 	ldr	x17, [x16,#152]
  408ae8:	91026210 	add	x16, x16, #0x98
  408aec:	d61f0220 	br	x17

0000000000408af0 <MPI_Graph_neighbors@plt>:
  408af0:	d0000130 	adrp	x16, 42e000 <_Znam@GLIBCXX_3.4>
  408af4:	f9405211 	ldr	x17, [x16,#160]
  408af8:	91028210 	add	x16, x16, #0xa0
  408afc:	d61f0220 	br	x17

0000000000408b00 <fprintf@plt>:
  408b00:	d0000130 	adrp	x16, 42e000 <_Znam@GLIBCXX_3.4>
  408b04:	f9405611 	ldr	x17, [x16,#168]
  408b08:	9102a210 	add	x16, x16, #0xa8
  408b0c:	d61f0220 	br	x17

0000000000408b10 <MPI_Type_create_hvector@plt>:
  408b10:	d0000130 	adrp	x16, 42e000 <_Znam@GLIBCXX_3.4>
  408b14:	f9405a11 	ldr	x17, [x16,#176]
  408b18:	9102c210 	add	x16, x16, #0xb0
  408b1c:	d61f0220 	br	x17

0000000000408b20 <MPI_Unpack_external@plt>:
  408b20:	d0000130 	adrp	x16, 42e000 <_Znam@GLIBCXX_3.4>
  408b24:	f9405e11 	ldr	x17, [x16,#184]
  408b28:	9102e210 	add	x16, x16, #0xb8
  408b2c:	d61f0220 	br	x17

0000000000408b30 <MPI_Probe@plt>:
  408b30:	d0000130 	adrp	x16, 42e000 <_Znam@GLIBCXX_3.4>
  408b34:	f9406211 	ldr	x17, [x16,#192]
  408b38:	91030210 	add	x16, x16, #0xc0
  408b3c:	d61f0220 	br	x17

0000000000408b40 <MPI_Send@plt>:
  408b40:	d0000130 	adrp	x16, 42e000 <_Znam@GLIBCXX_3.4>
  408b44:	f9406611 	ldr	x17, [x16,#200]
  408b48:	91032210 	add	x16, x16, #0xc8
  408b4c:	d61f0220 	br	x17

0000000000408b50 <MPI_Info_set@plt>:
  408b50:	d0000130 	adrp	x16, 42e000 <_Znam@GLIBCXX_3.4>
  408b54:	f9406a11 	ldr	x17, [x16,#208]
  408b58:	91034210 	add	x16, x16, #0xd0
  408b5c:	d61f0220 	br	x17

0000000000408b60 <MPI_Type_get_extent@plt>:
  408b60:	d0000130 	adrp	x16, 42e000 <_Znam@GLIBCXX_3.4>
  408b64:	f9406e11 	ldr	x17, [x16,#216]
  408b68:	91036210 	add	x16, x16, #0xd8
  408b6c:	d61f0220 	br	x17

0000000000408b70 <MPI_Win_post@plt>:
  408b70:	d0000130 	adrp	x16, 42e000 <_Znam@GLIBCXX_3.4>
  408b74:	f9407211 	ldr	x17, [x16,#224]
  408b78:	91038210 	add	x16, x16, #0xe0
  408b7c:	d61f0220 	br	x17

0000000000408b80 <MPI_Isend@plt>:
  408b80:	d0000130 	adrp	x16, 42e000 <_Znam@GLIBCXX_3.4>
  408b84:	f9407611 	ldr	x17, [x16,#232]
  408b88:	9103a210 	add	x16, x16, #0xe8
  408b8c:	d61f0220 	br	x17

0000000000408b90 <MPI_Unpack@plt>:
  408b90:	d0000130 	adrp	x16, 42e000 <_Znam@GLIBCXX_3.4>
  408b94:	f9407a11 	ldr	x17, [x16,#240]
  408b98:	9103c210 	add	x16, x16, #0xf0
  408b9c:	d61f0220 	br	x17

0000000000408ba0 <_ZN3MPI8Datatype4FreeEv@plt>:
  408ba0:	d0000130 	adrp	x16, 42e000 <_Znam@GLIBCXX_3.4>
  408ba4:	f9407e11 	ldr	x17, [x16,#248]
  408ba8:	9103e210 	add	x16, x16, #0xf8
  408bac:	d61f0220 	br	x17

0000000000408bb0 <_ZSt4endlIcSt11char_traitsIcEERSt13basic_ostreamIT_T0_ES6_@plt>:
  408bb0:	d0000130 	adrp	x16, 42e000 <_Znam@GLIBCXX_3.4>
  408bb4:	f9408211 	ldr	x17, [x16,#256]
  408bb8:	91040210 	add	x16, x16, #0x100
  408bbc:	d61f0220 	br	x17

0000000000408bc0 <MPI_Iprobe@plt>:
  408bc0:	d0000130 	adrp	x16, 42e000 <_Znam@GLIBCXX_3.4>
  408bc4:	f9408611 	ldr	x17, [x16,#264]
  408bc8:	91042210 	add	x16, x16, #0x108
  408bcc:	d61f0220 	br	x17

0000000000408bd0 <MPI_Comm_set_attr@plt>:
  408bd0:	d0000130 	adrp	x16, 42e000 <_Znam@GLIBCXX_3.4>
  408bd4:	f9408a11 	ldr	x17, [x16,#272]
  408bd8:	91044210 	add	x16, x16, #0x110
  408bdc:	d61f0220 	br	x17

0000000000408be0 <MPI_Type_get_envelope@plt>:
  408be0:	d0000130 	adrp	x16, 42e000 <_Znam@GLIBCXX_3.4>
  408be4:	f9408e11 	ldr	x17, [x16,#280]
  408be8:	91046210 	add	x16, x16, #0x118
  408bec:	d61f0220 	br	x17

0000000000408bf0 <MPI_Alltoall@plt>:
  408bf0:	d0000130 	adrp	x16, 42e000 <_Znam@GLIBCXX_3.4>
  408bf4:	f9409211 	ldr	x17, [x16,#288]
  408bf8:	91048210 	add	x16, x16, #0x120
  408bfc:	d61f0220 	br	x17

0000000000408c00 <MPI_Cancel@plt>:
  408c00:	d0000130 	adrp	x16, 42e000 <_Znam@GLIBCXX_3.4>
  408c04:	f9409611 	ldr	x17, [x16,#296]
  408c08:	9104a210 	add	x16, x16, #0x128
  408c0c:	d61f0220 	br	x17

0000000000408c10 <MPI_Initialized@plt>:
  408c10:	d0000130 	adrp	x16, 42e000 <_Znam@GLIBCXX_3.4>
  408c14:	f9409a11 	ldr	x17, [x16,#304]
  408c18:	9104c210 	add	x16, x16, #0x130
  408c1c:	d61f0220 	br	x17

0000000000408c20 <MPI_Scatterv@plt>:
  408c20:	d0000130 	adrp	x16, 42e000 <_Znam@GLIBCXX_3.4>
  408c24:	f9409e11 	ldr	x17, [x16,#312]
  408c28:	9104e210 	add	x16, x16, #0x138
  408c2c:	d61f0220 	br	x17

0000000000408c30 <MPI_Issend@plt>:
  408c30:	d0000130 	adrp	x16, 42e000 <_Znam@GLIBCXX_3.4>
  408c34:	f940a211 	ldr	x17, [x16,#320]
  408c38:	91050210 	add	x16, x16, #0x140
  408c3c:	d61f0220 	br	x17

0000000000408c40 <_ZN3MPI4CommC2Ev@plt>:
  408c40:	d0000130 	adrp	x16, 42e000 <_Znam@GLIBCXX_3.4>
  408c44:	f940a611 	ldr	x17, [x16,#328]
  408c48:	91052210 	add	x16, x16, #0x148
  408c4c:	d61f0220 	br	x17

0000000000408c50 <MPI_Graphdims_get@plt>:
  408c50:	d0000130 	adrp	x16, 42e000 <_Znam@GLIBCXX_3.4>
  408c54:	f940aa11 	ldr	x17, [x16,#336]
  408c58:	91054210 	add	x16, x16, #0x150
  408c5c:	d61f0220 	br	x17

0000000000408c60 <MPI_Info_get@plt>:
  408c60:	d0000130 	adrp	x16, 42e000 <_Znam@GLIBCXX_3.4>
  408c64:	f940ae11 	ldr	x17, [x16,#344]
  408c68:	91056210 	add	x16, x16, #0x158
  408c6c:	d61f0220 	br	x17

0000000000408c70 <MPI_Cart_shift@plt>:
  408c70:	d0000130 	adrp	x16, 42e000 <_Znam@GLIBCXX_3.4>
  408c74:	f940b211 	ldr	x17, [x16,#352]
  408c78:	91058210 	add	x16, x16, #0x160
  408c7c:	d61f0220 	br	x17

0000000000408c80 <MPI_Type_get_true_extent@plt>:
  408c80:	d0000130 	adrp	x16, 42e000 <_Znam@GLIBCXX_3.4>
  408c84:	f940b611 	ldr	x17, [x16,#360]
  408c88:	9105a210 	add	x16, x16, #0x168
  408c8c:	d61f0220 	br	x17

0000000000408c90 <MPI_Get@plt>:
  408c90:	d0000130 	adrp	x16, 42e000 <_Znam@GLIBCXX_3.4>
  408c94:	f940ba11 	ldr	x17, [x16,#368]
  408c98:	9105c210 	add	x16, x16, #0x170
  408c9c:	d61f0220 	br	x17

0000000000408ca0 <MPI_Type_contiguous@plt>:
  408ca0:	d0000130 	adrp	x16, 42e000 <_Znam@GLIBCXX_3.4>
  408ca4:	f940be11 	ldr	x17, [x16,#376]
  408ca8:	9105e210 	add	x16, x16, #0x178
  408cac:	d61f0220 	br	x17

0000000000408cb0 <MPI_Cart_sub@plt>:
  408cb0:	d0000130 	adrp	x16, 42e000 <_Znam@GLIBCXX_3.4>
  408cb4:	f940c211 	ldr	x17, [x16,#384]
  408cb8:	91060210 	add	x16, x16, #0x180
  408cbc:	d61f0220 	br	x17

0000000000408cc0 <MPI_Scatter@plt>:
  408cc0:	d0000130 	adrp	x16, 42e000 <_Znam@GLIBCXX_3.4>
  408cc4:	f940c611 	ldr	x17, [x16,#392]
  408cc8:	91062210 	add	x16, x16, #0x188
  408ccc:	d61f0220 	br	x17

0000000000408cd0 <MPI_Win_get_group@plt>:
  408cd0:	d0000130 	adrp	x16, 42e000 <_Znam@GLIBCXX_3.4>
  408cd4:	f940ca11 	ldr	x17, [x16,#400]
  408cd8:	91064210 	add	x16, x16, #0x190
  408cdc:	d61f0220 	br	x17

0000000000408ce0 <MPI_Ssend_init@plt>:
  408ce0:	d0000130 	adrp	x16, 42e000 <_Znam@GLIBCXX_3.4>
  408ce4:	f940ce11 	ldr	x17, [x16,#408]
  408ce8:	91066210 	add	x16, x16, #0x198
  408cec:	d61f0220 	br	x17

0000000000408cf0 <MPI_Comm_spawn@plt>:
  408cf0:	d0000130 	adrp	x16, 42e000 <_Znam@GLIBCXX_3.4>
  408cf4:	f940d211 	ldr	x17, [x16,#416]
  408cf8:	91068210 	add	x16, x16, #0x1a0
  408cfc:	d61f0220 	br	x17

0000000000408d00 <MPI_Barrier@plt>:
  408d00:	d0000130 	adrp	x16, 42e000 <_Znam@GLIBCXX_3.4>
  408d04:	f940d611 	ldr	x17, [x16,#424]
  408d08:	9106a210 	add	x16, x16, #0x1a8
  408d0c:	d61f0220 	br	x17

0000000000408d10 <MPI_Win_start@plt>:
  408d10:	d0000130 	adrp	x16, 42e000 <_Znam@GLIBCXX_3.4>
  408d14:	f940da11 	ldr	x17, [x16,#432]
  408d18:	9106c210 	add	x16, x16, #0x1b0
  408d1c:	d61f0220 	br	x17

0000000000408d20 <MPI_Pack_external@plt>:
  408d20:	d0000130 	adrp	x16, 42e000 <_Znam@GLIBCXX_3.4>
  408d24:	f940de11 	ldr	x17, [x16,#440]
  408d28:	9106e210 	add	x16, x16, #0x1b8
  408d2c:	d61f0220 	br	x17

0000000000408d30 <MPI_Rsend_init@plt>:
  408d30:	d0000130 	adrp	x16, 42e000 <_Znam@GLIBCXX_3.4>
  408d34:	f940e211 	ldr	x17, [x16,#448]
  408d38:	91070210 	add	x16, x16, #0x1c0
  408d3c:	d61f0220 	br	x17

0000000000408d40 <MPI_Group_incl@plt>:
  408d40:	d0000130 	adrp	x16, 42e000 <_Znam@GLIBCXX_3.4>
  408d44:	f940e611 	ldr	x17, [x16,#456]
  408d48:	91072210 	add	x16, x16, #0x1c8
  408d4c:	d61f0220 	br	x17

0000000000408d50 <MPI_Bsend_init@plt>:
  408d50:	d0000130 	adrp	x16, 42e000 <_Znam@GLIBCXX_3.4>
  408d54:	f940ea11 	ldr	x17, [x16,#464]
  408d58:	91074210 	add	x16, x16, #0x1d0
  408d5c:	d61f0220 	br	x17

0000000000408d60 <MPI_Sendrecv@plt>:
  408d60:	d0000130 	adrp	x16, 42e000 <_Znam@GLIBCXX_3.4>
  408d64:	f940ee11 	ldr	x17, [x16,#472]
  408d68:	91076210 	add	x16, x16, #0x1d8
  408d6c:	d61f0220 	br	x17

0000000000408d70 <MPI_Finalize@plt>:
  408d70:	d0000130 	adrp	x16, 42e000 <_Znam@GLIBCXX_3.4>
  408d74:	f940f211 	ldr	x17, [x16,#480]
  408d78:	91078210 	add	x16, x16, #0x1e0
  408d7c:	d61f0220 	br	x17

0000000000408d80 <_ZNSolsEPKv@plt>:
  408d80:	d0000130 	adrp	x16, 42e000 <_Znam@GLIBCXX_3.4>
  408d84:	f940f611 	ldr	x17, [x16,#488]
  408d88:	9107a210 	add	x16, x16, #0x1e8
  408d8c:	d61f0220 	br	x17

0000000000408d90 <MPI_Request_free@plt>:
  408d90:	d0000130 	adrp	x16, 42e000 <_Znam@GLIBCXX_3.4>
  408d94:	f940fa11 	ldr	x17, [x16,#496]
  408d98:	9107c210 	add	x16, x16, #0x1f0
  408d9c:	d61f0220 	br	x17

0000000000408da0 <MPI_Gather@plt>:
  408da0:	d0000130 	adrp	x16, 42e000 <_Znam@GLIBCXX_3.4>
  408da4:	f940fe11 	ldr	x17, [x16,#504]
  408da8:	9107e210 	add	x16, x16, #0x1f8
  408dac:	d61f0220 	br	x17

0000000000408db0 <MPI_Grequest_complete@plt>:
  408db0:	d0000130 	adrp	x16, 42e000 <_Znam@GLIBCXX_3.4>
  408db4:	f9410211 	ldr	x17, [x16,#512]
  408db8:	91080210 	add	x16, x16, #0x200
  408dbc:	d61f0220 	br	x17

0000000000408dc0 <MPI_Type_create_darray@plt>:
  408dc0:	d0000130 	adrp	x16, 42e000 <_Znam@GLIBCXX_3.4>
  408dc4:	f9410611 	ldr	x17, [x16,#520]
  408dc8:	91082210 	add	x16, x16, #0x208
  408dcc:	d61f0220 	br	x17

0000000000408dd0 <MPI_Win_wait@plt>:
  408dd0:	d0000130 	adrp	x16, 42e000 <_Znam@GLIBCXX_3.4>
  408dd4:	f9410a11 	ldr	x17, [x16,#528]
  408dd8:	91084210 	add	x16, x16, #0x210
  408ddc:	d61f0220 	br	x17

0000000000408de0 <MPI_Rsend@plt>:
  408de0:	d0000130 	adrp	x16, 42e000 <_Znam@GLIBCXX_3.4>
  408de4:	f9410e11 	ldr	x17, [x16,#536]
  408de8:	91086210 	add	x16, x16, #0x218
  408dec:	d61f0220 	br	x17

0000000000408df0 <MPI_Recv@plt>:
  408df0:	d0000130 	adrp	x16, 42e000 <_Znam@GLIBCXX_3.4>
  408df4:	f9411211 	ldr	x17, [x16,#544]
  408df8:	91088210 	add	x16, x16, #0x220
  408dfc:	d61f0220 	br	x17

0000000000408e00 <atoi@plt>:
  408e00:	d0000130 	adrp	x16, 42e000 <_Znam@GLIBCXX_3.4>
  408e04:	f9411611 	ldr	x17, [x16,#552]
  408e08:	9108a210 	add	x16, x16, #0x228
  408e0c:	d61f0220 	br	x17

0000000000408e10 <MPI_Graph_get@plt>:
  408e10:	d0000130 	adrp	x16, 42e000 <_Znam@GLIBCXX_3.4>
  408e14:	f9411a11 	ldr	x17, [x16,#560]
  408e18:	9108c210 	add	x16, x16, #0x230
  408e1c:	d61f0220 	br	x17

0000000000408e20 <MPI_Comm_group@plt>:
  408e20:	d0000130 	adrp	x16, 42e000 <_Znam@GLIBCXX_3.4>
  408e24:	f9411e11 	ldr	x17, [x16,#568]
  408e28:	9108e210 	add	x16, x16, #0x238
  408e2c:	d61f0220 	br	x17

0000000000408e30 <MPI_Comm_create@plt>:
  408e30:	d0000130 	adrp	x16, 42e000 <_Znam@GLIBCXX_3.4>
  408e34:	f9412211 	ldr	x17, [x16,#576]
  408e38:	91090210 	add	x16, x16, #0x240
  408e3c:	d61f0220 	br	x17

0000000000408e40 <__libc_start_main@plt>:
  408e40:	d0000130 	adrp	x16, 42e000 <_Znam@GLIBCXX_3.4>
  408e44:	f9412611 	ldr	x17, [x16,#584]
  408e48:	91092210 	add	x16, x16, #0x248
  408e4c:	d61f0220 	br	x17

0000000000408e50 <MPI_Cart_get@plt>:
  408e50:	d0000130 	adrp	x16, 42e000 <_Znam@GLIBCXX_3.4>
  408e54:	f9412a11 	ldr	x17, [x16,#592]
  408e58:	91094210 	add	x16, x16, #0x250
  408e5c:	d61f0220 	br	x17

0000000000408e60 <MPI_Type_get_attr@plt>:
  408e60:	d0000130 	adrp	x16, 42e000 <_Znam@GLIBCXX_3.4>
  408e64:	f9412e11 	ldr	x17, [x16,#600]
  408e68:	91096210 	add	x16, x16, #0x258
  408e6c:	d61f0220 	br	x17

0000000000408e70 <MPI_Op_commutative@plt>:
  408e70:	d0000130 	adrp	x16, 42e000 <_Znam@GLIBCXX_3.4>
  408e74:	f9413211 	ldr	x17, [x16,#608]
  408e78:	91098210 	add	x16, x16, #0x260
  408e7c:	d61f0220 	br	x17

0000000000408e80 <MPI_Graph_map@plt>:
  408e80:	d0000130 	adrp	x16, 42e000 <_Znam@GLIBCXX_3.4>
  408e84:	f9413611 	ldr	x17, [x16,#616]
  408e88:	9109a210 	add	x16, x16, #0x268
  408e8c:	d61f0220 	br	x17

0000000000408e90 <MPI_Win_set_name@plt>:
  408e90:	d0000130 	adrp	x16, 42e000 <_Znam@GLIBCXX_3.4>
  408e94:	f9413a11 	ldr	x17, [x16,#624]
  408e98:	9109c210 	add	x16, x16, #0x270
  408e9c:	d61f0220 	br	x17

0000000000408ea0 <MPI_Test_cancelled@plt>:
  408ea0:	d0000130 	adrp	x16, 42e000 <_Znam@GLIBCXX_3.4>
  408ea4:	f9413e11 	ldr	x17, [x16,#632]
  408ea8:	9109e210 	add	x16, x16, #0x278
  408eac:	d61f0220 	br	x17

0000000000408eb0 <MPI_Cart_map@plt>:
  408eb0:	d0000130 	adrp	x16, 42e000 <_Znam@GLIBCXX_3.4>
  408eb4:	f9414211 	ldr	x17, [x16,#640]
  408eb8:	910a0210 	add	x16, x16, #0x280
  408ebc:	d61f0220 	br	x17

0000000000408ec0 <MPI_Exscan@plt>:
  408ec0:	d0000130 	adrp	x16, 42e000 <_Znam@GLIBCXX_3.4>
  408ec4:	f9414611 	ldr	x17, [x16,#648]
  408ec8:	910a2210 	add	x16, x16, #0x288
  408ecc:	d61f0220 	br	x17

0000000000408ed0 <MPI_Pack@plt>:
  408ed0:	d0000130 	adrp	x16, 42e000 <_Znam@GLIBCXX_3.4>
  408ed4:	f9414a11 	ldr	x17, [x16,#656]
  408ed8:	910a4210 	add	x16, x16, #0x290
  408edc:	d61f0220 	br	x17

0000000000408ee0 <getopt@plt>:
  408ee0:	d0000130 	adrp	x16, 42e000 <_Znam@GLIBCXX_3.4>
  408ee4:	f9414e11 	ldr	x17, [x16,#664]
  408ee8:	910a6210 	add	x16, x16, #0x298
  408eec:	d61f0220 	br	x17

0000000000408ef0 <_ZStlsISt11char_traitsIcEERSt13basic_ostreamIcT_ES5_PKc@plt>:
  408ef0:	d0000130 	adrp	x16, 42e000 <_Znam@GLIBCXX_3.4>
  408ef4:	f9415211 	ldr	x17, [x16,#672]
  408ef8:	910a8210 	add	x16, x16, #0x2a0
  408efc:	d61f0220 	br	x17

0000000000408f00 <_Znwm@plt>:
  408f00:	d0000130 	adrp	x16, 42e000 <_Znam@GLIBCXX_3.4>
  408f04:	f9415611 	ldr	x17, [x16,#680]
  408f08:	910aa210 	add	x16, x16, #0x2a8
  408f0c:	d61f0220 	br	x17

0000000000408f10 <MPI_Errhandler_free@plt>:
  408f10:	d0000130 	adrp	x16, 42e000 <_Znam@GLIBCXX_3.4>
  408f14:	f9415a11 	ldr	x17, [x16,#688]
  408f18:	910ac210 	add	x16, x16, #0x2b0
  408f1c:	d61f0220 	br	x17

0000000000408f20 <_ZdlPvm@plt>:
  408f20:	d0000130 	adrp	x16, 42e000 <_Znam@GLIBCXX_3.4>
  408f24:	f9415e11 	ldr	x17, [x16,#696]
  408f28:	910ae210 	add	x16, x16, #0x2b8
  408f2c:	d61f0220 	br	x17

0000000000408f30 <posix_memalign@plt>:
  408f30:	d0000130 	adrp	x16, 42e000 <_Znam@GLIBCXX_3.4>
  408f34:	f9416211 	ldr	x17, [x16,#704]
  408f38:	910b0210 	add	x16, x16, #0x2c0
  408f3c:	d61f0220 	br	x17

0000000000408f40 <_ZNSolsEPFRSoS_E@plt>:
  408f40:	d0000130 	adrp	x16, 42e000 <_Znam@GLIBCXX_3.4>
  408f44:	f9416611 	ldr	x17, [x16,#712]
  408f48:	910b2210 	add	x16, x16, #0x2c8
  408f4c:	d61f0220 	br	x17

0000000000408f50 <MPI_Abort@plt>:
  408f50:	d0000130 	adrp	x16, 42e000 <_Znam@GLIBCXX_3.4>
  408f54:	f9416a11 	ldr	x17, [x16,#720]
  408f58:	910b4210 	add	x16, x16, #0x2d0
  408f5c:	d61f0220 	br	x17

0000000000408f60 <MPI_Intercomm_create@plt>:
  408f60:	d0000130 	adrp	x16, 42e000 <_Znam@GLIBCXX_3.4>
  408f64:	f9416e11 	ldr	x17, [x16,#728]
  408f68:	910b6210 	add	x16, x16, #0x2d8
  408f6c:	d61f0220 	br	x17

0000000000408f70 <MPI_Cartdim_get@plt>:
  408f70:	d0000130 	adrp	x16, 42e000 <_Znam@GLIBCXX_3.4>
  408f74:	f9417211 	ldr	x17, [x16,#736]
  408f78:	910b8210 	add	x16, x16, #0x2e0
  408f7c:	d61f0220 	br	x17

0000000000408f80 <MPI_Cart_coords@plt>:
  408f80:	d0000130 	adrp	x16, 42e000 <_Znam@GLIBCXX_3.4>
  408f84:	f9417611 	ldr	x17, [x16,#744]
  408f88:	910ba210 	add	x16, x16, #0x2e8
  408f8c:	d61f0220 	br	x17

0000000000408f90 <ompi_op_set_cxx_callback@plt>:
  408f90:	d0000130 	adrp	x16, 42e000 <_Znam@GLIBCXX_3.4>
  408f94:	f9417a11 	ldr	x17, [x16,#752]
  408f98:	910bc210 	add	x16, x16, #0x2f0
  408f9c:	d61f0220 	br	x17

0000000000408fa0 <MPI_Get_elements@plt>:
  408fa0:	d0000130 	adrp	x16, 42e000 <_Znam@GLIBCXX_3.4>
  408fa4:	f9417e11 	ldr	x17, [x16,#760]
  408fa8:	910be210 	add	x16, x16, #0x2f8
  408fac:	d61f0220 	br	x17

0000000000408fb0 <MPI_Comm_delete_attr@plt>:
  408fb0:	d0000130 	adrp	x16, 42e000 <_Znam@GLIBCXX_3.4>
  408fb4:	f9418211 	ldr	x17, [x16,#768]
  408fb8:	910c0210 	add	x16, x16, #0x300
  408fbc:	d61f0220 	br	x17

0000000000408fc0 <MPI_Send_init@plt>:
  408fc0:	d0000130 	adrp	x16, 42e000 <_Znam@GLIBCXX_3.4>
  408fc4:	f9418611 	ldr	x17, [x16,#776]
  408fc8:	910c2210 	add	x16, x16, #0x308
  408fcc:	d61f0220 	br	x17

0000000000408fd0 <MPI_Info_get_nkeys@plt>:
  408fd0:	d0000130 	adrp	x16, 42e000 <_Znam@GLIBCXX_3.4>
  408fd4:	f9418a11 	ldr	x17, [x16,#784]
  408fd8:	910c4210 	add	x16, x16, #0x310
  408fdc:	d61f0220 	br	x17

0000000000408fe0 <MPI_Bsend@plt>:
  408fe0:	d0000130 	adrp	x16, 42e000 <_Znam@GLIBCXX_3.4>
  408fe4:	f9418e11 	ldr	x17, [x16,#792]
  408fe8:	910c6210 	add	x16, x16, #0x318
  408fec:	d61f0220 	br	x17

0000000000408ff0 <MPI_Scan@plt>:
  408ff0:	d0000130 	adrp	x16, 42e000 <_Znam@GLIBCXX_3.4>
  408ff4:	f9419211 	ldr	x17, [x16,#800]
  408ff8:	910c8210 	add	x16, x16, #0x320
  408ffc:	d61f0220 	br	x17

0000000000409000 <_ZN3MPI3Win4FreeEv@plt>:
  409000:	b0000130 	adrp	x16, 42e000 <_Znam@GLIBCXX_3.4>
  409004:	f9419611 	ldr	x17, [x16,#808]
  409008:	910ca210 	add	x16, x16, #0x328
  40900c:	d61f0220 	br	x17

0000000000409010 <__cxa_atexit@plt>:
  409010:	b0000130 	adrp	x16, 42e000 <_Znam@GLIBCXX_3.4>
  409014:	f9419a11 	ldr	x17, [x16,#816]
  409018:	910cc210 	add	x16, x16, #0x330
  40901c:	d61f0220 	br	x17

0000000000409020 <MPI_Comm_size@plt>:
  409020:	b0000130 	adrp	x16, 42e000 <_Znam@GLIBCXX_3.4>
  409024:	f9419e11 	ldr	x17, [x16,#824]
  409028:	910ce210 	add	x16, x16, #0x338
  40902c:	d61f0220 	br	x17

0000000000409030 <MPI_Type_create_hindexed@plt>:
  409030:	b0000130 	adrp	x16, 42e000 <_Znam@GLIBCXX_3.4>
  409034:	f941a211 	ldr	x17, [x16,#832]
  409038:	910d0210 	add	x16, x16, #0x340
  40903c:	d61f0220 	br	x17

0000000000409040 <MPI_Reduce_local@plt>:
  409040:	b0000130 	adrp	x16, 42e000 <_Znam@GLIBCXX_3.4>
  409044:	f941a611 	ldr	x17, [x16,#840]
  409048:	910d2210 	add	x16, x16, #0x348
  40904c:	d61f0220 	br	x17

0000000000409050 <MPI_Reduce_scatter@plt>:
  409050:	b0000130 	adrp	x16, 42e000 <_Znam@GLIBCXX_3.4>
  409054:	f941aa11 	ldr	x17, [x16,#848]
  409058:	910d4210 	add	x16, x16, #0x350
  40905c:	d61f0220 	br	x17

0000000000409060 <MPI_Win_lock@plt>:
  409060:	b0000130 	adrp	x16, 42e000 <_Znam@GLIBCXX_3.4>
  409064:	f941ae11 	ldr	x17, [x16,#856]
  409068:	910d6210 	add	x16, x16, #0x358
  40906c:	d61f0220 	br	x17

0000000000409070 <MPI_Allreduce@plt>:
  409070:	b0000130 	adrp	x16, 42e000 <_Znam@GLIBCXX_3.4>
  409074:	f941b211 	ldr	x17, [x16,#864]
  409078:	910d8210 	add	x16, x16, #0x360
  40907c:	d61f0220 	br	x17

0000000000409080 <MPI_Allgatherv@plt>:
  409080:	b0000130 	adrp	x16, 42e000 <_Znam@GLIBCXX_3.4>
  409084:	f941b611 	ldr	x17, [x16,#872]
  409088:	910da210 	add	x16, x16, #0x368
  40908c:	d61f0220 	br	x17

0000000000409090 <MPI_Group_range_excl@plt>:
  409090:	b0000130 	adrp	x16, 42e000 <_Znam@GLIBCXX_3.4>
  409094:	f941ba11 	ldr	x17, [x16,#880]
  409098:	910dc210 	add	x16, x16, #0x370
  40909c:	d61f0220 	br	x17

00000000004090a0 <MPI_Type_commit@plt>:
  4090a0:	b0000130 	adrp	x16, 42e000 <_Znam@GLIBCXX_3.4>
  4090a4:	f941be11 	ldr	x17, [x16,#888]
  4090a8:	910de210 	add	x16, x16, #0x378
  4090ac:	d61f0220 	br	x17

00000000004090b0 <MPI_Put@plt>:
  4090b0:	b0000130 	adrp	x16, 42e000 <_Znam@GLIBCXX_3.4>
  4090b4:	f941c211 	ldr	x17, [x16,#896]
  4090b8:	910e0210 	add	x16, x16, #0x380
  4090bc:	d61f0220 	br	x17

00000000004090c0 <_ZdaPv@plt>:
  4090c0:	b0000130 	adrp	x16, 42e000 <_Znam@GLIBCXX_3.4>
  4090c4:	f941c611 	ldr	x17, [x16,#904]
  4090c8:	910e2210 	add	x16, x16, #0x388
  4090cc:	d61f0220 	br	x17

00000000004090d0 <MPI_Type_size@plt>:
  4090d0:	b0000130 	adrp	x16, 42e000 <_Znam@GLIBCXX_3.4>
  4090d4:	f941ca11 	ldr	x17, [x16,#912]
  4090d8:	910e4210 	add	x16, x16, #0x390
  4090dc:	d61f0220 	br	x17

00000000004090e0 <MPI_Status_set_elements@plt>:
  4090e0:	b0000130 	adrp	x16, 42e000 <_Znam@GLIBCXX_3.4>
  4090e4:	f941ce11 	ldr	x17, [x16,#920]
  4090e8:	910e6210 	add	x16, x16, #0x398
  4090ec:	d61f0220 	br	x17

00000000004090f0 <MPI_Comm_get_errhandler@plt>:
  4090f0:	b0000130 	adrp	x16, 42e000 <_Znam@GLIBCXX_3.4>
  4090f4:	f941d211 	ldr	x17, [x16,#928]
  4090f8:	910e8210 	add	x16, x16, #0x3a0
  4090fc:	d61f0220 	br	x17

0000000000409100 <MPI_Reduce@plt>:
  409100:	b0000130 	adrp	x16, 42e000 <_Znam@GLIBCXX_3.4>
  409104:	f941d611 	ldr	x17, [x16,#936]
  409108:	910ea210 	add	x16, x16, #0x3a8
  40910c:	d61f0220 	br	x17

0000000000409110 <MPI_Comm_remote_group@plt>:
  409110:	b0000130 	adrp	x16, 42e000 <_Znam@GLIBCXX_3.4>
  409114:	f941da11 	ldr	x17, [x16,#944]
  409118:	910ec210 	add	x16, x16, #0x3b0
  40911c:	d61f0220 	br	x17

0000000000409120 <MPI_Wait@plt>:
  409120:	b0000130 	adrp	x16, 42e000 <_Znam@GLIBCXX_3.4>
  409124:	f941de11 	ldr	x17, [x16,#952]
  409128:	910ee210 	add	x16, x16, #0x3b8
  40912c:	d61f0220 	br	x17

0000000000409130 <MPI_Comm_dup@plt>:
  409130:	b0000130 	adrp	x16, 42e000 <_Znam@GLIBCXX_3.4>
  409134:	f941e211 	ldr	x17, [x16,#960]
  409138:	910f0210 	add	x16, x16, #0x3c0
  40913c:	d61f0220 	br	x17

0000000000409140 <MPI_Sendrecv_replace@plt>:
  409140:	b0000130 	adrp	x16, 42e000 <_Znam@GLIBCXX_3.4>
  409144:	f941e611 	ldr	x17, [x16,#968]
  409148:	910f2210 	add	x16, x16, #0x3c8
  40914c:	d61f0220 	br	x17

0000000000409150 <MPI_Irecv@plt>:
  409150:	b0000130 	adrp	x16, 42e000 <_Znam@GLIBCXX_3.4>
  409154:	f941ea11 	ldr	x17, [x16,#976]
  409158:	910f4210 	add	x16, x16, #0x3d0
  40915c:	d61f0220 	br	x17

0000000000409160 <MPI_Alltoallw@plt>:
  409160:	b0000130 	adrp	x16, 42e000 <_Znam@GLIBCXX_3.4>
  409164:	f941ee11 	ldr	x17, [x16,#984]
  409168:	910f6210 	add	x16, x16, #0x3d8
  40916c:	d61f0220 	br	x17

0000000000409170 <MPI_Type_get_name@plt>:
  409170:	b0000130 	adrp	x16, 42e000 <_Znam@GLIBCXX_3.4>
  409174:	f941f211 	ldr	x17, [x16,#992]
  409178:	910f8210 	add	x16, x16, #0x3e0
  40917c:	d61f0220 	br	x17

0000000000409180 <MPI_Type_create_indexed_block@plt>:
  409180:	b0000130 	adrp	x16, 42e000 <_Znam@GLIBCXX_3.4>
  409184:	f941f611 	ldr	x17, [x16,#1000]
  409188:	910fa210 	add	x16, x16, #0x3e8
  40918c:	d61f0220 	br	x17

0000000000409190 <MPI_Type_get_contents@plt>:
  409190:	b0000130 	adrp	x16, 42e000 <_Znam@GLIBCXX_3.4>
  409194:	f941fa11 	ldr	x17, [x16,#1008]
  409198:	910fc210 	add	x16, x16, #0x3f0
  40919c:	d61f0220 	br	x17

00000000004091a0 <MPI_Comm_get_attr@plt>:
  4091a0:	b0000130 	adrp	x16, 42e000 <_Znam@GLIBCXX_3.4>
  4091a4:	f941fe11 	ldr	x17, [x16,#1016]
  4091a8:	910fe210 	add	x16, x16, #0x3f8
  4091ac:	d61f0220 	br	x17

00000000004091b0 <__cxa_throw_bad_array_new_length@plt>:
  4091b0:	b0000130 	adrp	x16, 42e000 <_Znam@GLIBCXX_3.4>
  4091b4:	f9420211 	ldr	x17, [x16,#1024]
  4091b8:	91100210 	add	x16, x16, #0x400
  4091bc:	d61f0220 	br	x17

00000000004091c0 <MPI_Comm_rank@plt>:
  4091c0:	b0000130 	adrp	x16, 42e000 <_Znam@GLIBCXX_3.4>
  4091c4:	f9420611 	ldr	x17, [x16,#1032]
  4091c8:	91102210 	add	x16, x16, #0x408
  4091cc:	d61f0220 	br	x17

00000000004091d0 <MPI_Init@plt>:
  4091d0:	b0000130 	adrp	x16, 42e000 <_Znam@GLIBCXX_3.4>
  4091d4:	f9420a11 	ldr	x17, [x16,#1040]
  4091d8:	91104210 	add	x16, x16, #0x410
  4091dc:	d61f0220 	br	x17

00000000004091e0 <MPI_Info_delete@plt>:
  4091e0:	b0000130 	adrp	x16, 42e000 <_Znam@GLIBCXX_3.4>
  4091e4:	f9420e11 	ldr	x17, [x16,#1048]
  4091e8:	91106210 	add	x16, x16, #0x418
  4091ec:	d61f0220 	br	x17

00000000004091f0 <MPI_Topo_test@plt>:
  4091f0:	b0000130 	adrp	x16, 42e000 <_Znam@GLIBCXX_3.4>
  4091f4:	f9421211 	ldr	x17, [x16,#1056]
  4091f8:	91108210 	add	x16, x16, #0x420
  4091fc:	d61f0220 	br	x17

0000000000409200 <MPI_Get_count@plt>:
  409200:	b0000130 	adrp	x16, 42e000 <_Znam@GLIBCXX_3.4>
  409204:	f9421611 	ldr	x17, [x16,#1064]
  409208:	9110a210 	add	x16, x16, #0x428
  40920c:	d61f0220 	br	x17

0000000000409210 <MPI_Info_get_nthkey@plt>:
  409210:	b0000130 	adrp	x16, 42e000 <_Znam@GLIBCXX_3.4>
  409214:	f9421a11 	ldr	x17, [x16,#1072]
  409218:	9110c210 	add	x16, x16, #0x430
  40921c:	d61f0220 	br	x17

0000000000409220 <MPI_Win_set_errhandler@plt>:
  409220:	b0000130 	adrp	x16, 42e000 <_Znam@GLIBCXX_3.4>
  409224:	f9421e11 	ldr	x17, [x16,#1080]
  409228:	9110e210 	add	x16, x16, #0x438
  40922c:	d61f0220 	br	x17

0000000000409230 <MPI_Comm_remote_size@plt>:
  409230:	b0000130 	adrp	x16, 42e000 <_Znam@GLIBCXX_3.4>
  409234:	f9422211 	ldr	x17, [x16,#1088]
  409238:	91110210 	add	x16, x16, #0x440
  40923c:	d61f0220 	br	x17

0000000000409240 <MPI_Type_dup@plt>:
  409240:	b0000130 	adrp	x16, 42e000 <_Znam@GLIBCXX_3.4>
  409244:	f9422611 	ldr	x17, [x16,#1096]
  409248:	91112210 	add	x16, x16, #0x448
  40924c:	d61f0220 	br	x17

0000000000409250 <_ZNSt8ios_base4InitC1Ev@plt>:
  409250:	b0000130 	adrp	x16, 42e000 <_Znam@GLIBCXX_3.4>
  409254:	f9422a11 	ldr	x17, [x16,#1104]
  409258:	91114210 	add	x16, x16, #0x450
  40925c:	d61f0220 	br	x17

0000000000409260 <MPI_Comm_set_errhandler@plt>:
  409260:	b0000130 	adrp	x16, 42e000 <_Znam@GLIBCXX_3.4>
  409264:	f9422e11 	ldr	x17, [x16,#1112]
  409268:	91116210 	add	x16, x16, #0x458
  40926c:	d61f0220 	br	x17

0000000000409270 <MPI_Ibsend@plt>:
  409270:	b0000130 	adrp	x16, 42e000 <_Znam@GLIBCXX_3.4>
  409274:	f9423211 	ldr	x17, [x16,#1120]
  409278:	91118210 	add	x16, x16, #0x460
  40927c:	d61f0220 	br	x17

0000000000409280 <MPI_Alltoallv@plt>:
  409280:	b0000130 	adrp	x16, 42e000 <_Znam@GLIBCXX_3.4>
  409284:	f9423611 	ldr	x17, [x16,#1128]
  409288:	9111a210 	add	x16, x16, #0x468
  40928c:	d61f0220 	br	x17

0000000000409290 <MPI_Op_free@plt>:
  409290:	b0000130 	adrp	x16, 42e000 <_Znam@GLIBCXX_3.4>
  409294:	f9423a11 	ldr	x17, [x16,#1136]
  409298:	9111c210 	add	x16, x16, #0x470
  40929c:	d61f0220 	br	x17

00000000004092a0 <MPI_Comm_connect@plt>:
  4092a0:	b0000130 	adrp	x16, 42e000 <_Znam@GLIBCXX_3.4>
  4092a4:	f9423e11 	ldr	x17, [x16,#1144]
  4092a8:	9111e210 	add	x16, x16, #0x478
  4092ac:	d61f0220 	br	x17

00000000004092b0 <MPI_Comm_free@plt>:
  4092b0:	b0000130 	adrp	x16, 42e000 <_Znam@GLIBCXX_3.4>
  4092b4:	f9424211 	ldr	x17, [x16,#1152]
  4092b8:	91120210 	add	x16, x16, #0x480
  4092bc:	d61f0220 	br	x17

00000000004092c0 <MPI_Comm_split@plt>:
  4092c0:	b0000130 	adrp	x16, 42e000 <_Znam@GLIBCXX_3.4>
  4092c4:	f9424611 	ldr	x17, [x16,#1160]
  4092c8:	91122210 	add	x16, x16, #0x488
  4092cc:	d61f0220 	br	x17

00000000004092d0 <abort@plt>:
  4092d0:	b0000130 	adrp	x16, 42e000 <_Znam@GLIBCXX_3.4>
  4092d4:	f9424a11 	ldr	x17, [x16,#1168]
  4092d8:	91124210 	add	x16, x16, #0x490
  4092dc:	d61f0220 	br	x17

00000000004092e0 <MPI_Type_create_subarray@plt>:
  4092e0:	b0000130 	adrp	x16, 42e000 <_Znam@GLIBCXX_3.4>
  4092e4:	f9424e11 	ldr	x17, [x16,#1176]
  4092e8:	91126210 	add	x16, x16, #0x498
  4092ec:	d61f0220 	br	x17

00000000004092f0 <MPI_Comm_spawn_multiple@plt>:
  4092f0:	b0000130 	adrp	x16, 42e000 <_Znam@GLIBCXX_3.4>
  4092f4:	f9425211 	ldr	x17, [x16,#1184]
  4092f8:	91128210 	add	x16, x16, #0x4a0
  4092fc:	d61f0220 	br	x17

0000000000409300 <MPI_Test@plt>:
  409300:	b0000130 	adrp	x16, 42e000 <_Znam@GLIBCXX_3.4>
  409304:	f9425611 	ldr	x17, [x16,#1192]
  409308:	9112a210 	add	x16, x16, #0x4a8
  40930c:	d61f0220 	br	x17

0000000000409310 <__gxx_personality_v0@plt>:
  409310:	b0000130 	adrp	x16, 42e000 <_Znam@GLIBCXX_3.4>
  409314:	f9425a11 	ldr	x17, [x16,#1200]
  409318:	9112c210 	add	x16, x16, #0x4b0
  40931c:	d61f0220 	br	x17

0000000000409320 <MPI_Info_get_valuelen@plt>:
  409320:	b0000130 	adrp	x16, 42e000 <_Znam@GLIBCXX_3.4>
  409324:	f9425e11 	ldr	x17, [x16,#1208]
  409328:	9112e210 	add	x16, x16, #0x4b8
  40932c:	d61f0220 	br	x17

0000000000409330 <MPI_Win_test@plt>:
  409330:	b0000130 	adrp	x16, 42e000 <_Znam@GLIBCXX_3.4>
  409334:	f9426211 	ldr	x17, [x16,#1216]
  409338:	91130210 	add	x16, x16, #0x4c0
  40933c:	d61f0220 	br	x17

0000000000409340 <MPI_Type_vector@plt>:
  409340:	b0000130 	adrp	x16, 42e000 <_Znam@GLIBCXX_3.4>
  409344:	f9426611 	ldr	x17, [x16,#1224]
  409348:	91132210 	add	x16, x16, #0x4c8
  40934c:	d61f0220 	br	x17

0000000000409350 <MPI_Start@plt>:
  409350:	b0000130 	adrp	x16, 42e000 <_Znam@GLIBCXX_3.4>
  409354:	f9426a11 	ldr	x17, [x16,#1232]
  409358:	91134210 	add	x16, x16, #0x4d0
  40935c:	d61f0220 	br	x17

0000000000409360 <MPI_Win_call_errhandler@plt>:
  409360:	b0000130 	adrp	x16, 42e000 <_Znam@GLIBCXX_3.4>
  409364:	f9426e11 	ldr	x17, [x16,#1240]
  409368:	91136210 	add	x16, x16, #0x4d8
  40936c:	d61f0220 	br	x17

0000000000409370 <MPI_Type_indexed@plt>:
  409370:	b0000130 	adrp	x16, 42e000 <_Znam@GLIBCXX_3.4>
  409374:	f9427211 	ldr	x17, [x16,#1248]
  409378:	91138210 	add	x16, x16, #0x4e0
  40937c:	d61f0220 	br	x17

0000000000409380 <MPI_Comm_set_name@plt>:
  409380:	b0000130 	adrp	x16, 42e000 <_Znam@GLIBCXX_3.4>
  409384:	f9427611 	ldr	x17, [x16,#1256]
  409388:	9113a210 	add	x16, x16, #0x4e8
  40938c:	d61f0220 	br	x17

0000000000409390 <MPI_Win_fence@plt>:
  409390:	b0000130 	adrp	x16, 42e000 <_Znam@GLIBCXX_3.4>
  409394:	f9427a11 	ldr	x17, [x16,#1264]
  409398:	9113c210 	add	x16, x16, #0x4f0
  40939c:	d61f0220 	br	x17

00000000004093a0 <MPI_Win_complete@plt>:
  4093a0:	b0000130 	adrp	x16, 42e000 <_Znam@GLIBCXX_3.4>
  4093a4:	f9427e11 	ldr	x17, [x16,#1272]
  4093a8:	9113e210 	add	x16, x16, #0x4f8
  4093ac:	d61f0220 	br	x17

00000000004093b0 <exit@plt>:
  4093b0:	b0000130 	adrp	x16, 42e000 <_Znam@GLIBCXX_3.4>
  4093b4:	f9428211 	ldr	x17, [x16,#1280]
  4093b8:	91140210 	add	x16, x16, #0x500
  4093bc:	d61f0220 	br	x17

00000000004093c0 <_ZNSolsEi@plt>:
  4093c0:	b0000130 	adrp	x16, 42e000 <_Znam@GLIBCXX_3.4>
  4093c4:	f9428611 	ldr	x17, [x16,#1288]
  4093c8:	91142210 	add	x16, x16, #0x508
  4093cc:	d61f0220 	br	x17

00000000004093d0 <MPI_Group_free@plt>:
  4093d0:	b0000130 	adrp	x16, 42e000 <_Znam@GLIBCXX_3.4>
  4093d4:	f9428a11 	ldr	x17, [x16,#1296]
  4093d8:	91144210 	add	x16, x16, #0x510
  4093dc:	d61f0220 	br	x17

00000000004093e0 <MPI_Type_create_resized@plt>:
  4093e0:	b0000130 	adrp	x16, 42e000 <_Znam@GLIBCXX_3.4>
  4093e4:	f9428e11 	ldr	x17, [x16,#1304]
  4093e8:	91146210 	add	x16, x16, #0x518
  4093ec:	d61f0220 	br	x17

00000000004093f0 <_Unwind_Resume@plt>:
  4093f0:	b0000130 	adrp	x16, 42e000 <_Znam@GLIBCXX_3.4>
  4093f4:	f9429211 	ldr	x17, [x16,#1312]
  4093f8:	91148210 	add	x16, x16, #0x520
  4093fc:	d61f0220 	br	x17

0000000000409400 <MPI_Cart_rank@plt>:
  409400:	b0000130 	adrp	x16, 42e000 <_Znam@GLIBCXX_3.4>
  409404:	f9429611 	ldr	x17, [x16,#1320]
  409408:	9114a210 	add	x16, x16, #0x528
  40940c:	d61f0220 	br	x17

0000000000409410 <MPI_Comm_accept@plt>:
  409410:	b0000130 	adrp	x16, 42e000 <_Znam@GLIBCXX_3.4>
  409414:	f9429a11 	ldr	x17, [x16,#1328]
  409418:	9114c210 	add	x16, x16, #0x530
  40941c:	d61f0220 	br	x17

0000000000409420 <MPI_Win_set_attr@plt>:
  409420:	b0000130 	adrp	x16, 42e000 <_Znam@GLIBCXX_3.4>
  409424:	f9429e11 	ldr	x17, [x16,#1336]
  409428:	9114e210 	add	x16, x16, #0x538
  40942c:	d61f0220 	br	x17

0000000000409430 <MPI_Win_delete_attr@plt>:
  409430:	b0000130 	adrp	x16, 42e000 <_Znam@GLIBCXX_3.4>
  409434:	f942a211 	ldr	x17, [x16,#1344]
  409438:	91150210 	add	x16, x16, #0x540
  40943c:	d61f0220 	br	x17

0000000000409440 <_ZNSolsEl@plt>:
  409440:	b0000130 	adrp	x16, 42e000 <_Znam@GLIBCXX_3.4>
  409444:	f942a611 	ldr	x17, [x16,#1352]
  409448:	91152210 	add	x16, x16, #0x548
  40944c:	d61f0220 	br	x17

0000000000409450 <MPI_Type_delete_attr@plt>:
  409450:	b0000130 	adrp	x16, 42e000 <_Znam@GLIBCXX_3.4>
  409454:	f942aa11 	ldr	x17, [x16,#1360]
  409458:	91154210 	add	x16, x16, #0x550
  40945c:	d61f0220 	br	x17

0000000000409460 <MPI_Gatherv@plt>:
  409460:	b0000130 	adrp	x16, 42e000 <_Znam@GLIBCXX_3.4>
  409464:	f942ae11 	ldr	x17, [x16,#1368]
  409468:	91156210 	add	x16, x16, #0x558
  40946c:	d61f0220 	br	x17

0000000000409470 <MPI_Group_rank@plt>:
  409470:	b0000130 	adrp	x16, 42e000 <_Znam@GLIBCXX_3.4>
  409474:	f942b211 	ldr	x17, [x16,#1376]
  409478:	91158210 	add	x16, x16, #0x560
  40947c:	d61f0220 	br	x17

0000000000409480 <MPI_Intercomm_merge@plt>:
  409480:	b0000130 	adrp	x16, 42e000 <_Znam@GLIBCXX_3.4>
  409484:	f942b611 	ldr	x17, [x16,#1384]
  409488:	9115a210 	add	x16, x16, #0x568
  40948c:	d61f0220 	br	x17

0000000000409490 <MPI_Win_get_errhandler@plt>:
  409490:	b0000130 	adrp	x16, 42e000 <_Znam@GLIBCXX_3.4>
  409494:	f942ba11 	ldr	x17, [x16,#1392]
  409498:	9115c210 	add	x16, x16, #0x570
  40949c:	d61f0220 	br	x17

00000000004094a0 <__gmon_start__@plt>:
  4094a0:	b0000130 	adrp	x16, 42e000 <_Znam@GLIBCXX_3.4>
  4094a4:	f942be11 	ldr	x17, [x16,#1400]
  4094a8:	9115e210 	add	x16, x16, #0x578
  4094ac:	d61f0220 	br	x17

00000000004094b0 <MPI_Accumulate@plt>:
  4094b0:	b0000130 	adrp	x16, 42e000 <_Znam@GLIBCXX_3.4>
  4094b4:	f942c211 	ldr	x17, [x16,#1408]
  4094b8:	91160210 	add	x16, x16, #0x580
  4094bc:	d61f0220 	br	x17

00000000004094c0 <_ZNSolsEd@plt>:
  4094c0:	b0000130 	adrp	x16, 42e000 <_Znam@GLIBCXX_3.4>
  4094c4:	f942c611 	ldr	x17, [x16,#1416]
  4094c8:	91162210 	add	x16, x16, #0x588
  4094cc:	d61f0220 	br	x17

00000000004094d0 <__cxa_pure_virtual@plt>:
  4094d0:	b0000130 	adrp	x16, 42e000 <_Znam@GLIBCXX_3.4>
  4094d4:	f942ca11 	ldr	x17, [x16,#1424]
  4094d8:	91164210 	add	x16, x16, #0x590
  4094dc:	d61f0220 	br	x17

00000000004094e0 <MPI_Type_set_attr@plt>:
  4094e0:	b0000130 	adrp	x16, 42e000 <_Znam@GLIBCXX_3.4>
  4094e4:	f942ce11 	ldr	x17, [x16,#1432]
  4094e8:	91166210 	add	x16, x16, #0x598
  4094ec:	d61f0220 	br	x17

00000000004094f0 <MPI_Status_set_cancelled@plt>:
  4094f0:	b0000130 	adrp	x16, 42e000 <_Znam@GLIBCXX_3.4>
  4094f4:	f942d211 	ldr	x17, [x16,#1440]
  4094f8:	91168210 	add	x16, x16, #0x5a0
  4094fc:	d61f0220 	br	x17

0000000000409500 <MPI_Graph_neighbors_count@plt>:
  409500:	b0000130 	adrp	x16, 42e000 <_Znam@GLIBCXX_3.4>
  409504:	f942d611 	ldr	x17, [x16,#1448]
  409508:	9116a210 	add	x16, x16, #0x5a8
  40950c:	d61f0220 	br	x17

0000000000409510 <MPI_Info_free@plt>:
  409510:	b0000130 	adrp	x16, 42e000 <_Znam@GLIBCXX_3.4>
  409514:	f942da11 	ldr	x17, [x16,#1456]
  409518:	9116c210 	add	x16, x16, #0x5b0
  40951c:	d61f0220 	br	x17

0000000000409520 <MPI_Pack_external_size@plt>:
  409520:	b0000130 	adrp	x16, 42e000 <_Znam@GLIBCXX_3.4>
  409524:	f942de11 	ldr	x17, [x16,#1464]
  409528:	9116e210 	add	x16, x16, #0x5b8
  40952c:	d61f0220 	br	x17

0000000000409530 <MPI_Type_set_name@plt>:
  409530:	b0000130 	adrp	x16, 42e000 <_Znam@GLIBCXX_3.4>
  409534:	f942e211 	ldr	x17, [x16,#1472]
  409538:	91170210 	add	x16, x16, #0x5c0
  40953c:	d61f0220 	br	x17

0000000000409540 <MPI_Graph_create@plt>:
  409540:	b0000130 	adrp	x16, 42e000 <_Znam@GLIBCXX_3.4>
  409544:	f942e611 	ldr	x17, [x16,#1480]
  409548:	91172210 	add	x16, x16, #0x5c8
  40954c:	d61f0220 	br	x17

0000000000409550 <printf@plt>:
  409550:	b0000130 	adrp	x16, 42e000 <_Znam@GLIBCXX_3.4>
  409554:	f942ea11 	ldr	x17, [x16,#1488]
  409558:	91174210 	add	x16, x16, #0x5d0
  40955c:	d61f0220 	br	x17

0000000000409560 <MPI_Comm_test_inter@plt>:
  409560:	b0000130 	adrp	x16, 42e000 <_Znam@GLIBCXX_3.4>
  409564:	f942ee11 	ldr	x17, [x16,#1496]
  409568:	91176210 	add	x16, x16, #0x5d8
  40956c:	d61f0220 	br	x17

0000000000409570 <_ZNSt8ios_base4InitD1Ev@plt>:
  409570:	b0000130 	adrp	x16, 42e000 <_Znam@GLIBCXX_3.4>
  409574:	f942f211 	ldr	x17, [x16,#1504]
  409578:	91178210 	add	x16, x16, #0x5e0
  40957c:	d61f0220 	br	x17

Disassembly of section .text:

0000000000409580 <_start>:
  409580:	d280001d 	mov	x29, #0x0                   	// #0
  409584:	d280001e 	mov	x30, #0x0                   	// #0
  409588:	910003fd 	mov	x29, sp
  40958c:	aa0003e5 	mov	x5, x0
  409590:	f94003e1 	ldr	x1, [sp]
  409594:	910023e2 	add	x2, sp, #0x8
  409598:	910003e6 	mov	x6, sp
  40959c:	580000a0 	ldr	x0, 4095b0 <_start+0x30>
  4095a0:	580000c3 	ldr	x3, 4095b8 <_start+0x38>
  4095a4:	580000e4 	ldr	x4, 4095c0 <_start+0x40>
  4095a8:	97fffe26 	bl	408e40 <__libc_start_main@plt>
  4095ac:	97ffff49 	bl	4092d0 <abort@plt>
  4095b0:	00413e98 	.word	0x00413e98
  4095b4:	00000000 	.word	0x00000000
  4095b8:	00418f68 	.word	0x00418f68
  4095bc:	00000000 	.word	0x00000000
  4095c0:	00418fe0 	.word	0x00418fe0
  4095c4:	00000000 	.word	0x00000000

00000000004095c8 <call_weak_fn>:
  4095c8:	90000120 	adrp	x0, 42d000 <__FRAME_END__+0xf804>
  4095cc:	f947f000 	ldr	x0, [x0,#4064]
  4095d0:	b4000040 	cbz	x0, 4095d8 <call_weak_fn+0x10>
  4095d4:	17ffffb3 	b	4094a0 <__gmon_start__@plt>
  4095d8:	d65f03c0 	ret
  4095dc:	d503201f 	nop

00000000004095e0 <deregister_tm_clones>:
  4095e0:	b0000120 	adrp	x0, 42e000 <_Znam@GLIBCXX_3.4>
  4095e4:	91182000 	add	x0, x0, #0x608
  4095e8:	b0000121 	adrp	x1, 42e000 <_Znam@GLIBCXX_3.4>
  4095ec:	91182021 	add	x1, x1, #0x608
  4095f0:	eb00003f 	cmp	x1, x0
  4095f4:	540000c0 	b.eq	40960c <deregister_tm_clones+0x2c>
  4095f8:	90000081 	adrp	x1, 419000 <_IO_stdin_used+0x8>
  4095fc:	f9400021 	ldr	x1, [x1]
  409600:	b4000061 	cbz	x1, 40960c <deregister_tm_clones+0x2c>
  409604:	aa0103f0 	mov	x16, x1
  409608:	d61f0200 	br	x16
  40960c:	d65f03c0 	ret

0000000000409610 <register_tm_clones>:
  409610:	b0000120 	adrp	x0, 42e000 <_Znam@GLIBCXX_3.4>
  409614:	91182000 	add	x0, x0, #0x608
  409618:	b0000121 	adrp	x1, 42e000 <_Znam@GLIBCXX_3.4>
  40961c:	91182021 	add	x1, x1, #0x608
  409620:	cb000021 	sub	x1, x1, x0
  409624:	d37ffc22 	lsr	x2, x1, #63
  409628:	8b810c41 	add	x1, x2, x1, asr #3
  40962c:	9341fc21 	asr	x1, x1, #1
  409630:	b40000c1 	cbz	x1, 409648 <register_tm_clones+0x38>
  409634:	90000082 	adrp	x2, 419000 <_IO_stdin_used+0x8>
  409638:	f9400442 	ldr	x2, [x2,#8]
  40963c:	b4000062 	cbz	x2, 409648 <register_tm_clones+0x38>
  409640:	aa0203f0 	mov	x16, x2
  409644:	d61f0200 	br	x16
  409648:	d65f03c0 	ret
  40964c:	d503201f 	nop

0000000000409650 <__do_global_dtors_aux>:
  409650:	a9be7bfd 	stp	x29, x30, [sp,#-32]!
  409654:	910003fd 	mov	x29, sp
  409658:	f9000bf3 	str	x19, [sp,#16]
  40965c:	b0000133 	adrp	x19, 42e000 <_Znam@GLIBCXX_3.4>
  409660:	396cc260 	ldrb	w0, [x19,#2864]
  409664:	35000080 	cbnz	w0, 409674 <__do_global_dtors_aux+0x24>
  409668:	97ffffde 	bl	4095e0 <deregister_tm_clones>
  40966c:	52800020 	mov	w0, #0x1                   	// #1
  409670:	392cc260 	strb	w0, [x19,#2864]
  409674:	f9400bf3 	ldr	x19, [sp,#16]
  409678:	a8c27bfd 	ldp	x29, x30, [sp],#32
  40967c:	d65f03c0 	ret

0000000000409680 <frame_dummy>:
  409680:	17ffffe4 	b	409610 <register_tm_clones>

0000000000409684 <nop_>:
  409684:	a9bf7bfd 	stp	x29, x30, [sp,#-16]!
  409688:	910003fd 	mov	x29, sp
  40968c:	f100009f 	cmp	x4, #0x0
  409690:	54000041 	b.ne	409698 <start_pause>
  409694:	14000006 	b	4096ac <end>

0000000000409698 <start_pause>:
  409698:	aa0403ea 	mov	x10, x4

000000000040969c <start_loop>:
  40969c:	d503201f 	nop
  4096a0:	f100054a 	subs	x10, x10, #0x1
  4096a4:	f100015f 	cmp	x10, #0x0
  4096a8:	54ffffa1 	b.ne	40969c <start_loop>

00000000004096ac <end>:
  4096ac:	d503201f 	nop
  4096b0:	a8c17bfd 	ldp	x29, x30, [sp],#16
  4096b4:	d65f03c0 	ret

00000000004096b8 <_Z11print_usagePPcS_>:
  4096b8:	a9be7bfd 	stp	x29, x30, [sp,#-32]!
  4096bc:	910003fd 	mov	x29, sp
  4096c0:	f9000fe0 	str	x0, [sp,#24]
  4096c4:	f9000be1 	str	x1, [sp,#16]
  4096c8:	b0000120 	adrp	x0, 42e000 <_Znam@GLIBCXX_3.4>
  4096cc:	912ca000 	add	x0, x0, #0xb28
  4096d0:	f9400004 	ldr	x4, [x0]
  4096d4:	f9400fe0 	ldr	x0, [sp,#24]
  4096d8:	f9400000 	ldr	x0, [x0]
  4096dc:	f9400be3 	ldr	x3, [sp,#16]
  4096e0:	aa0003e2 	mov	x2, x0
  4096e4:	90000080 	adrp	x0, 419000 <_IO_stdin_used+0x8>
  4096e8:	91004001 	add	x1, x0, #0x10
  4096ec:	aa0403e0 	mov	x0, x4
  4096f0:	97fffd04 	bl	408b00 <fprintf@plt>
  4096f4:	d503201f 	nop
  4096f8:	a8c27bfd 	ldp	x29, x30, [sp],#32
  4096fc:	d65f03c0 	ret

0000000000409700 <_Z13STREAM_copy_0PdS_PlPKi>:
  409700:	d100c3ff 	sub	sp, sp, #0x30
  409704:	f9000fe0 	str	x0, [sp,#24]
  409708:	f9000be1 	str	x1, [sp,#16]
  40970c:	f90007e2 	str	x2, [sp,#8]
  409710:	f90003e3 	str	x3, [sp]
  409714:	d2800000 	mov	x0, #0x0                   	// #0
  409718:	b9002fff 	str	wzr, [sp,#44]
  40971c:	14000012 	b	409764 <_Z13STREAM_copy_0PdS_PlPKi+0x64>
  409720:	b9802fe0 	ldrsw	x0, [sp,#44]
  409724:	d37df000 	lsl	x0, x0, #3
  409728:	f9400fe1 	ldr	x1, [sp,#24]
  40972c:	8b000020 	add	x0, x1, x0
  409730:	b9402fe1 	ldr	w1, [sp,#44]
  409734:	1e620020 	scvtf	d0, w1
  409738:	fd000000 	str	d0, [x0]
  40973c:	b9802fe0 	ldrsw	x0, [sp,#44]
  409740:	d37df000 	lsl	x0, x0, #3
  409744:	f9400be1 	ldr	x1, [sp,#16]
  409748:	8b000020 	add	x0, x1, x0
  40974c:	b9402fe1 	ldr	w1, [sp,#44]
  409750:	1e620020 	scvtf	d0, w1
  409754:	fd000000 	str	d0, [x0]
  409758:	b9402fe0 	ldr	w0, [sp,#44]
  40975c:	11000400 	add	w0, w0, #0x1
  409760:	b9002fe0 	str	w0, [sp,#44]
  409764:	b9802fe1 	ldrsw	x1, [sp,#44]
  409768:	f94007e0 	ldr	x0, [sp,#8]
  40976c:	f9400000 	ldr	x0, [x0]
  409770:	eb00003f 	cmp	x1, x0
  409774:	54fffd6b 	b.lt	409720 <_Z13STREAM_copy_0PdS_PlPKi+0x20>
  409778:	d503201f 	nop
  40977c:	d503201f 	nop
  409780:	9100c3ff 	add	sp, sp, #0x30
  409784:	d65f03c0 	ret

0000000000409788 <_Z13STREAM_copy_2PdS_PlPKi>:
  409788:	a9bd7bfd 	stp	x29, x30, [sp,#-48]!
  40978c:	910003fd 	mov	x29, sp
  409790:	f90017e0 	str	x0, [sp,#40]
  409794:	f90013e1 	str	x1, [sp,#32]
  409798:	f9000fe2 	str	x2, [sp,#24]
  40979c:	f9000be3 	str	x3, [sp,#16]
  4097a0:	d2800000 	mov	x0, #0x0                   	// #0
  4097a4:	90000080 	adrp	x0, 419000 <_IO_stdin_used+0x8>
  4097a8:	91008001 	add	x1, x0, #0x20
  4097ac:	b0000120 	adrp	x0, 42e000 <_Znam@GLIBCXX_3.4>
  4097b0:	91286000 	add	x0, x0, #0xa18
  4097b4:	97fffdcf 	bl	408ef0 <_ZStlsISt11char_traitsIcEERSt13basic_ostreamIcT_ES5_PKc@plt>
  4097b8:	aa0003e2 	mov	x2, x0
  4097bc:	f9400be0 	ldr	x0, [sp,#16]
  4097c0:	b9400000 	ldr	w0, [x0]
  4097c4:	2a0003e1 	mov	w1, w0
  4097c8:	aa0203e0 	mov	x0, x2
  4097cc:	97fffefd 	bl	4093c0 <_ZNSolsEi@plt>
  4097d0:	aa0003e2 	mov	x2, x0
  4097d4:	90000080 	adrp	x0, 419000 <_IO_stdin_used+0x8>
  4097d8:	9100c001 	add	x1, x0, #0x30
  4097dc:	aa0203e0 	mov	x0, x2
  4097e0:	97fffdc4 	bl	408ef0 <_ZStlsISt11char_traitsIcEERSt13basic_ostreamIcT_ES5_PKc@plt>
  4097e4:	f94017e1 	ldr	x1, [sp,#40]
  4097e8:	97fffd66 	bl	408d80 <_ZNSolsEPKv@plt>
  4097ec:	aa0003e2 	mov	x2, x0
  4097f0:	90000080 	adrp	x0, 419000 <_IO_stdin_used+0x8>
  4097f4:	91010001 	add	x1, x0, #0x40
  4097f8:	aa0203e0 	mov	x0, x2
  4097fc:	97fffdbd 	bl	408ef0 <_ZStlsISt11char_traitsIcEERSt13basic_ostreamIcT_ES5_PKc@plt>
  409800:	f94013e1 	ldr	x1, [sp,#32]
  409804:	97fffd5f 	bl	408d80 <_ZNSolsEPKv@plt>
  409808:	aa0003e2 	mov	x2, x0
  40980c:	90000080 	adrp	x0, 419000 <_IO_stdin_used+0x8>
  409810:	91014001 	add	x1, x0, #0x50
  409814:	aa0203e0 	mov	x0, x2
  409818:	97fffdb6 	bl	408ef0 <_ZStlsISt11char_traitsIcEERSt13basic_ostreamIcT_ES5_PKc@plt>
  40981c:	aa0003e2 	mov	x2, x0
  409820:	f9400fe0 	ldr	x0, [sp,#24]
  409824:	f9400000 	ldr	x0, [x0]
  409828:	aa0003e1 	mov	x1, x0
  40982c:	aa0203e0 	mov	x0, x2
  409830:	97ffff04 	bl	409440 <_ZNSolsEl@plt>
  409834:	aa0003e2 	mov	x2, x0
  409838:	f0ffffe0 	adrp	x0, 408000 <_init-0x970>
  40983c:	912ec001 	add	x1, x0, #0xbb0
  409840:	aa0203e0 	mov	x0, x2
  409844:	97fffdbf 	bl	408f40 <_ZNSolsEPFRSoS_E@plt>
  409848:	f9400fe1 	ldr	x1, [sp,#24]
  40984c:	f9400023 	ldr	x3, [x1]
  409850:	f9400be1 	ldr	x1, [sp,#16]
  409854:	b9400025 	ldr	w5, [x1]
  409858:	f94017e2 	ldr	x2, [sp,#40]
  40985c:	f94013e6 	ldr	x6, [sp,#32]
  409860:	d2800001 	mov	x1, #0x0                   	// #0
  409864:	aa0503e4 	mov	x4, x5
  409868:	ad8804c0 	stp	q0, q1, [x6,#256]!
  40986c:	ad8804c0 	stp	q0, q1, [x6,#256]!
  409870:	ad8804c0 	stp	q0, q1, [x6,#256]!
  409874:	ad8804c0 	stp	q0, q1, [x6,#256]!
  409878:	ad8804c0 	stp	q0, q1, [x6,#256]!
  40987c:	ad8804c0 	stp	q0, q1, [x6,#256]!
  409880:	aa1e03eb 	mov	x11, x30
  409884:	97ffff80 	bl	409684 <nop_>
  409888:	aa0b03fe 	mov	x30, x11
  40988c:	ad8804c0 	stp	q0, q1, [x6,#256]!
  409890:	ad8804c0 	stp	q0, q1, [x6,#256]!
  409894:	ad8804c0 	stp	q0, q1, [x6,#256]!
  409898:	ad8804c0 	stp	q0, q1, [x6,#256]!
  40989c:	ad8804c0 	stp	q0, q1, [x6,#256]!
  4098a0:	ad8804c0 	stp	q0, q1, [x6,#256]!
  4098a4:	aa1e03eb 	mov	x11, x30
  4098a8:	97ffff77 	bl	409684 <nop_>
  4098ac:	aa0b03fe 	mov	x30, x11
  4098b0:	ad8804c0 	stp	q0, q1, [x6,#256]!
  4098b4:	ad8804c0 	stp	q0, q1, [x6,#256]!
  4098b8:	ad8804c0 	stp	q0, q1, [x6,#256]!
  4098bc:	ad8804c0 	stp	q0, q1, [x6,#256]!
  4098c0:	ad8804c0 	stp	q0, q1, [x6,#256]!
  4098c4:	ad8804c0 	stp	q0, q1, [x6,#256]!
  4098c8:	aa1e03eb 	mov	x11, x30
  4098cc:	97ffff6e 	bl	409684 <nop_>
  4098d0:	aa0b03fe 	mov	x30, x11
  4098d4:	ad8804c0 	stp	q0, q1, [x6,#256]!
  4098d8:	ad8804c0 	stp	q0, q1, [x6,#256]!
  4098dc:	ad8804c0 	stp	q0, q1, [x6,#256]!
  4098e0:	ad8804c0 	stp	q0, q1, [x6,#256]!
  4098e4:	ad8804c0 	stp	q0, q1, [x6,#256]!
  4098e8:	ad8804c0 	stp	q0, q1, [x6,#256]!
  4098ec:	aa1e03eb 	mov	x11, x30
  4098f0:	97ffff65 	bl	409684 <nop_>
  4098f4:	aa0b03fe 	mov	x30, x11
  4098f8:	ad8804c0 	stp	q0, q1, [x6,#256]!
  4098fc:	ad8804c0 	stp	q0, q1, [x6,#256]!
  409900:	ad8804c0 	stp	q0, q1, [x6,#256]!
  409904:	ad8804c0 	stp	q0, q1, [x6,#256]!
  409908:	ad8804c0 	stp	q0, q1, [x6,#256]!
  40990c:	ad8804c0 	stp	q0, q1, [x6,#256]!
  409910:	aa1e03eb 	mov	x11, x30
  409914:	97ffff5c 	bl	409684 <nop_>
  409918:	aa0b03fe 	mov	x30, x11
  40991c:	ad8804c0 	stp	q0, q1, [x6,#256]!
  409920:	ad8804c0 	stp	q0, q1, [x6,#256]!
  409924:	ad8804c0 	stp	q0, q1, [x6,#256]!
  409928:	ad8804c0 	stp	q0, q1, [x6,#256]!
  40992c:	ad8804c0 	stp	q0, q1, [x6,#256]!
  409930:	ad8804c0 	stp	q0, q1, [x6,#256]!
  409934:	aa1e03eb 	mov	x11, x30
  409938:	97ffff53 	bl	409684 <nop_>
  40993c:	aa0b03fe 	mov	x30, x11
  409940:	ad8804c0 	stp	q0, q1, [x6,#256]!
  409944:	ad8804c0 	stp	q0, q1, [x6,#256]!
  409948:	ad8804c0 	stp	q0, q1, [x6,#256]!
  40994c:	adc80440 	ldp	q0, q1, [x2,#256]!
  409950:	ad8804c0 	stp	q0, q1, [x6,#256]!
  409954:	ad8804c0 	stp	q0, q1, [x6,#256]!
  409958:	aa1e03eb 	mov	x11, x30
  40995c:	97ffff4a 	bl	409684 <nop_>
  409960:	aa0b03fe 	mov	x30, x11
  409964:	ad8804c0 	stp	q0, q1, [x6,#256]!
  409968:	ad8804c0 	stp	q0, q1, [x6,#256]!
  40996c:	adc80440 	ldp	q0, q1, [x2,#256]!
  409970:	ad8804c0 	stp	q0, q1, [x6,#256]!
  409974:	ad8804c0 	stp	q0, q1, [x6,#256]!
  409978:	ad8804c0 	stp	q0, q1, [x6,#256]!
  40997c:	aa1e03eb 	mov	x11, x30
  409980:	97ffff41 	bl	409684 <nop_>
  409984:	aa0b03fe 	mov	x30, x11
  409988:	ad8804c0 	stp	q0, q1, [x6,#256]!
  40998c:	ad8804c0 	stp	q0, q1, [x6,#256]!
  409990:	ad8804c0 	stp	q0, q1, [x6,#256]!
  409994:	ad8804c0 	stp	q0, q1, [x6,#256]!
  409998:	ad8804c0 	stp	q0, q1, [x6,#256]!
  40999c:	ad8804c0 	stp	q0, q1, [x6,#256]!
  4099a0:	aa1e03eb 	mov	x11, x30
  4099a4:	97ffff38 	bl	409684 <nop_>
  4099a8:	aa0b03fe 	mov	x30, x11
  4099ac:	ad8804c0 	stp	q0, q1, [x6,#256]!
  4099b0:	ad8804c0 	stp	q0, q1, [x6,#256]!
  4099b4:	ad8804c0 	stp	q0, q1, [x6,#256]!
  4099b8:	ad8804c0 	stp	q0, q1, [x6,#256]!
  4099bc:	ad8804c0 	stp	q0, q1, [x6,#256]!
  4099c0:	ad8804c0 	stp	q0, q1, [x6,#256]!
  4099c4:	aa1e03eb 	mov	x11, x30
  4099c8:	97ffff2f 	bl	409684 <nop_>
  4099cc:	aa0b03fe 	mov	x30, x11
  4099d0:	ad8804c0 	stp	q0, q1, [x6,#256]!
  4099d4:	ad8804c0 	stp	q0, q1, [x6,#256]!
  4099d8:	ad8804c0 	stp	q0, q1, [x6,#256]!
  4099dc:	ad8804c0 	stp	q0, q1, [x6,#256]!
  4099e0:	ad8804c0 	stp	q0, q1, [x6,#256]!
  4099e4:	ad8804c0 	stp	q0, q1, [x6,#256]!
  4099e8:	aa1e03eb 	mov	x11, x30
  4099ec:	97ffff26 	bl	409684 <nop_>
  4099f0:	aa0b03fe 	mov	x30, x11
  4099f4:	ad8804c0 	stp	q0, q1, [x6,#256]!
  4099f8:	ad8804c0 	stp	q0, q1, [x6,#256]!
  4099fc:	ad8804c0 	stp	q0, q1, [x6,#256]!
  409a00:	ad8804c0 	stp	q0, q1, [x6,#256]!
  409a04:	ad8804c0 	stp	q0, q1, [x6,#256]!
  409a08:	ad8804c0 	stp	q0, q1, [x6,#256]!
  409a0c:	aa1e03eb 	mov	x11, x30
  409a10:	97ffff1d 	bl	409684 <nop_>
  409a14:	aa0b03fe 	mov	x30, x11
  409a18:	ad8804c0 	stp	q0, q1, [x6,#256]!
  409a1c:	ad8804c0 	stp	q0, q1, [x6,#256]!
  409a20:	ad8804c0 	stp	q0, q1, [x6,#256]!
  409a24:	ad8804c0 	stp	q0, q1, [x6,#256]!
  409a28:	ad8804c0 	stp	q0, q1, [x6,#256]!
  409a2c:	ad8804c0 	stp	q0, q1, [x6,#256]!
  409a30:	aa1e03eb 	mov	x11, x30
  409a34:	97ffff14 	bl	409684 <nop_>
  409a38:	aa0b03fe 	mov	x30, x11
  409a3c:	ad8804c0 	stp	q0, q1, [x6,#256]!
  409a40:	ad8804c0 	stp	q0, q1, [x6,#256]!
  409a44:	ad8804c0 	stp	q0, q1, [x6,#256]!
  409a48:	ad8804c0 	stp	q0, q1, [x6,#256]!
  409a4c:	ad8804c0 	stp	q0, q1, [x6,#256]!
  409a50:	ad8804c0 	stp	q0, q1, [x6,#256]!
  409a54:	aa1e03eb 	mov	x11, x30
  409a58:	97ffff0b 	bl	409684 <nop_>
  409a5c:	aa0b03fe 	mov	x30, x11
  409a60:	ad8804c0 	stp	q0, q1, [x6,#256]!
  409a64:	ad8804c0 	stp	q0, q1, [x6,#256]!
  409a68:	ad8804c0 	stp	q0, q1, [x6,#256]!
  409a6c:	ad8804c0 	stp	q0, q1, [x6,#256]!
  409a70:	ad8804c0 	stp	q0, q1, [x6,#256]!
  409a74:	ad8804c0 	stp	q0, q1, [x6,#256]!
  409a78:	aa1e03eb 	mov	x11, x30
  409a7c:	97ffff02 	bl	409684 <nop_>
  409a80:	aa0b03fe 	mov	x30, x11
  409a84:	ad8804c0 	stp	q0, q1, [x6,#256]!
  409a88:	ad8804c0 	stp	q0, q1, [x6,#256]!
  409a8c:	ad8804c0 	stp	q0, q1, [x6,#256]!
  409a90:	ad8804c0 	stp	q0, q1, [x6,#256]!
  409a94:	ad8804c0 	stp	q0, q1, [x6,#256]!
  409a98:	ad8804c0 	stp	q0, q1, [x6,#256]!
  409a9c:	aa1e03eb 	mov	x11, x30
  409aa0:	97fffef9 	bl	409684 <nop_>
  409aa4:	aa0b03fe 	mov	x30, x11
  409aa8:	ad8804c0 	stp	q0, q1, [x6,#256]!
  409aac:	ad8804c0 	stp	q0, q1, [x6,#256]!
  409ab0:	ad8804c0 	stp	q0, q1, [x6,#256]!
  409ab4:	ad8804c0 	stp	q0, q1, [x6,#256]!
  409ab8:	aa1e03eb 	mov	x11, x30
  409abc:	97fffef2 	bl	409684 <nop_>
  409ac0:	aa0b03fe 	mov	x30, x11
  409ac4:	91320021 	add	x1, x1, #0xc80
  409ac8:	eb03003f 	cmp	x1, x3
  409acc:	540506ed 	b.le	413ba8 <_Z15STREAM_copy_100PdS_PlPKi+0xe0>
  409ad0:	d503201f 	nop
  409ad4:	a8c37bfd 	ldp	x29, x30, [sp],#48
  409ad8:	d65f03c0 	ret

0000000000409adc <_Z13STREAM_copy_4PdS_PlPKi>:
  409adc:	a9bd7bfd 	stp	x29, x30, [sp,#-48]!
  409ae0:	910003fd 	mov	x29, sp
  409ae4:	f90017e0 	str	x0, [sp,#40]
  409ae8:	f90013e1 	str	x1, [sp,#32]
  409aec:	f9000fe2 	str	x2, [sp,#24]
  409af0:	f9000be3 	str	x3, [sp,#16]
  409af4:	d2800000 	mov	x0, #0x0                   	// #0
  409af8:	90000080 	adrp	x0, 419000 <_IO_stdin_used+0x8>
  409afc:	91008001 	add	x1, x0, #0x20
  409b00:	b0000120 	adrp	x0, 42e000 <_Znam@GLIBCXX_3.4>
  409b04:	91286000 	add	x0, x0, #0xa18
  409b08:	97fffcfa 	bl	408ef0 <_ZStlsISt11char_traitsIcEERSt13basic_ostreamIcT_ES5_PKc@plt>
  409b0c:	aa0003e2 	mov	x2, x0
  409b10:	f9400be0 	ldr	x0, [sp,#16]
  409b14:	b9400000 	ldr	w0, [x0]
  409b18:	2a0003e1 	mov	w1, w0
  409b1c:	aa0203e0 	mov	x0, x2
  409b20:	97fffe28 	bl	4093c0 <_ZNSolsEi@plt>
  409b24:	aa0003e2 	mov	x2, x0
  409b28:	90000080 	adrp	x0, 419000 <_IO_stdin_used+0x8>
  409b2c:	9100c001 	add	x1, x0, #0x30
  409b30:	aa0203e0 	mov	x0, x2
  409b34:	97fffcef 	bl	408ef0 <_ZStlsISt11char_traitsIcEERSt13basic_ostreamIcT_ES5_PKc@plt>
  409b38:	f94017e1 	ldr	x1, [sp,#40]
  409b3c:	97fffc91 	bl	408d80 <_ZNSolsEPKv@plt>
  409b40:	aa0003e2 	mov	x2, x0
  409b44:	90000080 	adrp	x0, 419000 <_IO_stdin_used+0x8>
  409b48:	91010001 	add	x1, x0, #0x40
  409b4c:	aa0203e0 	mov	x0, x2
  409b50:	97fffce8 	bl	408ef0 <_ZStlsISt11char_traitsIcEERSt13basic_ostreamIcT_ES5_PKc@plt>
  409b54:	f94013e1 	ldr	x1, [sp,#32]
  409b58:	97fffc8a 	bl	408d80 <_ZNSolsEPKv@plt>
  409b5c:	aa0003e2 	mov	x2, x0
  409b60:	90000080 	adrp	x0, 419000 <_IO_stdin_used+0x8>
  409b64:	91014001 	add	x1, x0, #0x50
  409b68:	aa0203e0 	mov	x0, x2
  409b6c:	97fffce1 	bl	408ef0 <_ZStlsISt11char_traitsIcEERSt13basic_ostreamIcT_ES5_PKc@plt>
  409b70:	aa0003e2 	mov	x2, x0
  409b74:	f9400fe0 	ldr	x0, [sp,#24]
  409b78:	f9400000 	ldr	x0, [x0]
  409b7c:	aa0003e1 	mov	x1, x0
  409b80:	aa0203e0 	mov	x0, x2
  409b84:	97fffe2f 	bl	409440 <_ZNSolsEl@plt>
  409b88:	aa0003e2 	mov	x2, x0
  409b8c:	f0ffffe0 	adrp	x0, 408000 <_init-0x970>
  409b90:	912ec001 	add	x1, x0, #0xbb0
  409b94:	aa0203e0 	mov	x0, x2
  409b98:	97fffcea 	bl	408f40 <_ZNSolsEPFRSoS_E@plt>
  409b9c:	f9400fe1 	ldr	x1, [sp,#24]
  409ba0:	f9400023 	ldr	x3, [x1]
  409ba4:	f9400be1 	ldr	x1, [sp,#16]
  409ba8:	b9400025 	ldr	w5, [x1]
  409bac:	f94017e2 	ldr	x2, [sp,#40]
  409bb0:	f94013e6 	ldr	x6, [sp,#32]
  409bb4:	d2800001 	mov	x1, #0x0                   	// #0
  409bb8:	aa0503e4 	mov	x4, x5
  409bbc:	ad8804c0 	stp	q0, q1, [x6,#256]!
  409bc0:	ad8804c0 	stp	q0, q1, [x6,#256]!
  409bc4:	ad8804c0 	stp	q0, q1, [x6,#256]!
  409bc8:	ad8804c0 	stp	q0, q1, [x6,#256]!
  409bcc:	ad8804c0 	stp	q0, q1, [x6,#256]!
  409bd0:	ad8804c0 	stp	q0, q1, [x6,#256]!
  409bd4:	aa1e03eb 	mov	x11, x30
  409bd8:	97fffeab 	bl	409684 <nop_>
  409bdc:	aa0b03fe 	mov	x30, x11
  409be0:	ad8804c0 	stp	q0, q1, [x6,#256]!
  409be4:	adc80440 	ldp	q0, q1, [x2,#256]!
  409be8:	ad8804c0 	stp	q0, q1, [x6,#256]!
  409bec:	ad8804c0 	stp	q0, q1, [x6,#256]!
  409bf0:	ad8804c0 	stp	q0, q1, [x6,#256]!
  409bf4:	ad8804c0 	stp	q0, q1, [x6,#256]!
  409bf8:	aa1e03eb 	mov	x11, x30
  409bfc:	97fffea2 	bl	409684 <nop_>
  409c00:	aa0b03fe 	mov	x30, x11
  409c04:	ad8804c0 	stp	q0, q1, [x6,#256]!
  409c08:	ad8804c0 	stp	q0, q1, [x6,#256]!
  409c0c:	ad8804c0 	stp	q0, q1, [x6,#256]!
  409c10:	ad8804c0 	stp	q0, q1, [x6,#256]!
  409c14:	ad8804c0 	stp	q0, q1, [x6,#256]!
  409c18:	ad8804c0 	stp	q0, q1, [x6,#256]!
  409c1c:	aa1e03eb 	mov	x11, x30
  409c20:	97fffe99 	bl	409684 <nop_>
  409c24:	aa0b03fe 	mov	x30, x11
  409c28:	ad8804c0 	stp	q0, q1, [x6,#256]!
  409c2c:	ad8804c0 	stp	q0, q1, [x6,#256]!
  409c30:	ad8804c0 	stp	q0, q1, [x6,#256]!
  409c34:	ad8804c0 	stp	q0, q1, [x6,#256]!
  409c38:	ad8804c0 	stp	q0, q1, [x6,#256]!
  409c3c:	ad8804c0 	stp	q0, q1, [x6,#256]!
  409c40:	aa1e03eb 	mov	x11, x30
  409c44:	97fffe90 	bl	409684 <nop_>
  409c48:	aa0b03fe 	mov	x30, x11
  409c4c:	ad8804c0 	stp	q0, q1, [x6,#256]!
  409c50:	ad8804c0 	stp	q0, q1, [x6,#256]!
  409c54:	ad8804c0 	stp	q0, q1, [x6,#256]!
  409c58:	ad8804c0 	stp	q0, q1, [x6,#256]!
  409c5c:	ad8804c0 	stp	q0, q1, [x6,#256]!
  409c60:	ad8804c0 	stp	q0, q1, [x6,#256]!
  409c64:	aa1e03eb 	mov	x11, x30
  409c68:	97fffe87 	bl	409684 <nop_>
  409c6c:	aa0b03fe 	mov	x30, x11
  409c70:	ad8804c0 	stp	q0, q1, [x6,#256]!
  409c74:	ad8804c0 	stp	q0, q1, [x6,#256]!
  409c78:	ad8804c0 	stp	q0, q1, [x6,#256]!
  409c7c:	ad8804c0 	stp	q0, q1, [x6,#256]!
  409c80:	ad8804c0 	stp	q0, q1, [x6,#256]!
  409c84:	ad8804c0 	stp	q0, q1, [x6,#256]!
  409c88:	aa1e03eb 	mov	x11, x30
  409c8c:	97fffe7e 	bl	409684 <nop_>
  409c90:	aa0b03fe 	mov	x30, x11
  409c94:	ad8804c0 	stp	q0, q1, [x6,#256]!
  409c98:	ad8804c0 	stp	q0, q1, [x6,#256]!
  409c9c:	ad8804c0 	stp	q0, q1, [x6,#256]!
  409ca0:	adc80440 	ldp	q0, q1, [x2,#256]!
  409ca4:	ad8804c0 	stp	q0, q1, [x6,#256]!
  409ca8:	ad8804c0 	stp	q0, q1, [x6,#256]!
  409cac:	aa1e03eb 	mov	x11, x30
  409cb0:	97fffe75 	bl	409684 <nop_>
  409cb4:	aa0b03fe 	mov	x30, x11
  409cb8:	ad8804c0 	stp	q0, q1, [x6,#256]!
  409cbc:	ad8804c0 	stp	q0, q1, [x6,#256]!
  409cc0:	adc80440 	ldp	q0, q1, [x2,#256]!
  409cc4:	ad8804c0 	stp	q0, q1, [x6,#256]!
  409cc8:	ad8804c0 	stp	q0, q1, [x6,#256]!
  409ccc:	ad8804c0 	stp	q0, q1, [x6,#256]!
  409cd0:	aa1e03eb 	mov	x11, x30
  409cd4:	97fffe6c 	bl	409684 <nop_>
  409cd8:	aa0b03fe 	mov	x30, x11
  409cdc:	ad8804c0 	stp	q0, q1, [x6,#256]!
  409ce0:	ad8804c0 	stp	q0, q1, [x6,#256]!
  409ce4:	ad8804c0 	stp	q0, q1, [x6,#256]!
  409ce8:	ad8804c0 	stp	q0, q1, [x6,#256]!
  409cec:	ad8804c0 	stp	q0, q1, [x6,#256]!
  409cf0:	ad8804c0 	stp	q0, q1, [x6,#256]!
  409cf4:	aa1e03eb 	mov	x11, x30
  409cf8:	97fffe63 	bl	409684 <nop_>
  409cfc:	aa0b03fe 	mov	x30, x11
  409d00:	ad8804c0 	stp	q0, q1, [x6,#256]!
  409d04:	ad8804c0 	stp	q0, q1, [x6,#256]!
  409d08:	ad8804c0 	stp	q0, q1, [x6,#256]!
  409d0c:	ad8804c0 	stp	q0, q1, [x6,#256]!
  409d10:	ad8804c0 	stp	q0, q1, [x6,#256]!
  409d14:	ad8804c0 	stp	q0, q1, [x6,#256]!
  409d18:	aa1e03eb 	mov	x11, x30
  409d1c:	97fffe5a 	bl	409684 <nop_>
  409d20:	aa0b03fe 	mov	x30, x11
  409d24:	ad8804c0 	stp	q0, q1, [x6,#256]!
  409d28:	ad8804c0 	stp	q0, q1, [x6,#256]!
  409d2c:	ad8804c0 	stp	q0, q1, [x6,#256]!
  409d30:	ad8804c0 	stp	q0, q1, [x6,#256]!
  409d34:	ad8804c0 	stp	q0, q1, [x6,#256]!
  409d38:	ad8804c0 	stp	q0, q1, [x6,#256]!
  409d3c:	aa1e03eb 	mov	x11, x30
  409d40:	97fffe51 	bl	409684 <nop_>
  409d44:	aa0b03fe 	mov	x30, x11
  409d48:	ad8804c0 	stp	q0, q1, [x6,#256]!
  409d4c:	ad8804c0 	stp	q0, q1, [x6,#256]!
  409d50:	ad8804c0 	stp	q0, q1, [x6,#256]!
  409d54:	ad8804c0 	stp	q0, q1, [x6,#256]!
  409d58:	ad8804c0 	stp	q0, q1, [x6,#256]!
  409d5c:	ad8804c0 	stp	q0, q1, [x6,#256]!
  409d60:	aa1e03eb 	mov	x11, x30
  409d64:	97fffe48 	bl	409684 <nop_>
  409d68:	aa0b03fe 	mov	x30, x11
  409d6c:	ad8804c0 	stp	q0, q1, [x6,#256]!
  409d70:	ad8804c0 	stp	q0, q1, [x6,#256]!
  409d74:	ad8804c0 	stp	q0, q1, [x6,#256]!
  409d78:	ad8804c0 	stp	q0, q1, [x6,#256]!
  409d7c:	ad8804c0 	stp	q0, q1, [x6,#256]!
  409d80:	ad8804c0 	stp	q0, q1, [x6,#256]!
  409d84:	aa1e03eb 	mov	x11, x30
  409d88:	97fffe3f 	bl	409684 <nop_>
  409d8c:	aa0b03fe 	mov	x30, x11
  409d90:	ad8804c0 	stp	q0, q1, [x6,#256]!
  409d94:	adc80440 	ldp	q0, q1, [x2,#256]!
  409d98:	ad8804c0 	stp	q0, q1, [x6,#256]!
  409d9c:	ad8804c0 	stp	q0, q1, [x6,#256]!
  409da0:	ad8804c0 	stp	q0, q1, [x6,#256]!
  409da4:	ad8804c0 	stp	q0, q1, [x6,#256]!
  409da8:	aa1e03eb 	mov	x11, x30
  409dac:	97fffe36 	bl	409684 <nop_>
  409db0:	aa0b03fe 	mov	x30, x11
  409db4:	ad8804c0 	stp	q0, q1, [x6,#256]!
  409db8:	ad8804c0 	stp	q0, q1, [x6,#256]!
  409dbc:	ad8804c0 	stp	q0, q1, [x6,#256]!
  409dc0:	ad8804c0 	stp	q0, q1, [x6,#256]!
  409dc4:	ad8804c0 	stp	q0, q1, [x6,#256]!
  409dc8:	ad8804c0 	stp	q0, q1, [x6,#256]!
  409dcc:	aa1e03eb 	mov	x11, x30
  409dd0:	97fffe2d 	bl	409684 <nop_>
  409dd4:	aa0b03fe 	mov	x30, x11
  409dd8:	ad8804c0 	stp	q0, q1, [x6,#256]!
  409ddc:	ad8804c0 	stp	q0, q1, [x6,#256]!
  409de0:	ad8804c0 	stp	q0, q1, [x6,#256]!
  409de4:	ad8804c0 	stp	q0, q1, [x6,#256]!
  409de8:	ad8804c0 	stp	q0, q1, [x6,#256]!
  409dec:	ad8804c0 	stp	q0, q1, [x6,#256]!
  409df0:	aa1e03eb 	mov	x11, x30
  409df4:	97fffe24 	bl	409684 <nop_>
  409df8:	aa0b03fe 	mov	x30, x11
  409dfc:	ad8804c0 	stp	q0, q1, [x6,#256]!
  409e00:	ad8804c0 	stp	q0, q1, [x6,#256]!
  409e04:	ad8804c0 	stp	q0, q1, [x6,#256]!
  409e08:	ad8804c0 	stp	q0, q1, [x6,#256]!
  409e0c:	aa1e03eb 	mov	x11, x30
  409e10:	97fffe1d 	bl	409684 <nop_>
  409e14:	aa0b03fe 	mov	x30, x11
  409e18:	91320021 	add	x1, x1, #0xc80
  409e1c:	eb03003f 	cmp	x1, x3
  409e20:	5404ec4d 	b.le	413ba8 <_Z15STREAM_copy_100PdS_PlPKi+0xe0>
  409e24:	d503201f 	nop
  409e28:	a8c37bfd 	ldp	x29, x30, [sp],#48
  409e2c:	d65f03c0 	ret

0000000000409e30 <_Z13STREAM_copy_6PdS_PlPKi>:
  409e30:	a9bd7bfd 	stp	x29, x30, [sp,#-48]!
  409e34:	910003fd 	mov	x29, sp
  409e38:	f90017e0 	str	x0, [sp,#40]
  409e3c:	f90013e1 	str	x1, [sp,#32]
  409e40:	f9000fe2 	str	x2, [sp,#24]
  409e44:	f9000be3 	str	x3, [sp,#16]
  409e48:	d2800000 	mov	x0, #0x0                   	// #0
  409e4c:	90000080 	adrp	x0, 419000 <_IO_stdin_used+0x8>
  409e50:	91008001 	add	x1, x0, #0x20
  409e54:	b0000120 	adrp	x0, 42e000 <_Znam@GLIBCXX_3.4>
  409e58:	91286000 	add	x0, x0, #0xa18
  409e5c:	97fffc25 	bl	408ef0 <_ZStlsISt11char_traitsIcEERSt13basic_ostreamIcT_ES5_PKc@plt>
  409e60:	aa0003e2 	mov	x2, x0
  409e64:	f9400be0 	ldr	x0, [sp,#16]
  409e68:	b9400000 	ldr	w0, [x0]
  409e6c:	2a0003e1 	mov	w1, w0
  409e70:	aa0203e0 	mov	x0, x2
  409e74:	97fffd53 	bl	4093c0 <_ZNSolsEi@plt>
  409e78:	aa0003e2 	mov	x2, x0
  409e7c:	90000080 	adrp	x0, 419000 <_IO_stdin_used+0x8>
  409e80:	9100c001 	add	x1, x0, #0x30
  409e84:	aa0203e0 	mov	x0, x2
  409e88:	97fffc1a 	bl	408ef0 <_ZStlsISt11char_traitsIcEERSt13basic_ostreamIcT_ES5_PKc@plt>
  409e8c:	f94017e1 	ldr	x1, [sp,#40]
  409e90:	97fffbbc 	bl	408d80 <_ZNSolsEPKv@plt>
  409e94:	aa0003e2 	mov	x2, x0
  409e98:	90000080 	adrp	x0, 419000 <_IO_stdin_used+0x8>
  409e9c:	91010001 	add	x1, x0, #0x40
  409ea0:	aa0203e0 	mov	x0, x2
  409ea4:	97fffc13 	bl	408ef0 <_ZStlsISt11char_traitsIcEERSt13basic_ostreamIcT_ES5_PKc@plt>
  409ea8:	f94013e1 	ldr	x1, [sp,#32]
  409eac:	97fffbb5 	bl	408d80 <_ZNSolsEPKv@plt>
  409eb0:	aa0003e2 	mov	x2, x0
  409eb4:	90000080 	adrp	x0, 419000 <_IO_stdin_used+0x8>
  409eb8:	91014001 	add	x1, x0, #0x50
  409ebc:	aa0203e0 	mov	x0, x2
  409ec0:	97fffc0c 	bl	408ef0 <_ZStlsISt11char_traitsIcEERSt13basic_ostreamIcT_ES5_PKc@plt>
  409ec4:	aa0003e2 	mov	x2, x0
  409ec8:	f9400fe0 	ldr	x0, [sp,#24]
  409ecc:	f9400000 	ldr	x0, [x0]
  409ed0:	aa0003e1 	mov	x1, x0
  409ed4:	aa0203e0 	mov	x0, x2
  409ed8:	97fffd5a 	bl	409440 <_ZNSolsEl@plt>
  409edc:	aa0003e2 	mov	x2, x0
  409ee0:	f0ffffe0 	adrp	x0, 408000 <_init-0x970>
  409ee4:	912ec001 	add	x1, x0, #0xbb0
  409ee8:	aa0203e0 	mov	x0, x2
  409eec:	97fffc15 	bl	408f40 <_ZNSolsEPFRSoS_E@plt>
  409ef0:	f9400fe1 	ldr	x1, [sp,#24]
  409ef4:	f9400023 	ldr	x3, [x1]
  409ef8:	f9400be1 	ldr	x1, [sp,#16]
  409efc:	b9400025 	ldr	w5, [x1]
  409f00:	f94017e2 	ldr	x2, [sp,#40]
  409f04:	f94013e6 	ldr	x6, [sp,#32]
  409f08:	d2800001 	mov	x1, #0x0                   	// #0
  409f0c:	aa0503e4 	mov	x4, x5
  409f10:	ad8804c0 	stp	q0, q1, [x6,#256]!
  409f14:	ad8804c0 	stp	q0, q1, [x6,#256]!
  409f18:	ad8804c0 	stp	q0, q1, [x6,#256]!
  409f1c:	ad8804c0 	stp	q0, q1, [x6,#256]!
  409f20:	ad8804c0 	stp	q0, q1, [x6,#256]!
  409f24:	ad8804c0 	stp	q0, q1, [x6,#256]!
  409f28:	aa1e03eb 	mov	x11, x30
  409f2c:	97fffdd6 	bl	409684 <nop_>
  409f30:	aa0b03fe 	mov	x30, x11
  409f34:	ad8804c0 	stp	q0, q1, [x6,#256]!
  409f38:	adc80440 	ldp	q0, q1, [x2,#256]!
  409f3c:	ad8804c0 	stp	q0, q1, [x6,#256]!
  409f40:	ad8804c0 	stp	q0, q1, [x6,#256]!
  409f44:	ad8804c0 	stp	q0, q1, [x6,#256]!
  409f48:	ad8804c0 	stp	q0, q1, [x6,#256]!
  409f4c:	aa1e03eb 	mov	x11, x30
  409f50:	97fffdcd 	bl	409684 <nop_>
  409f54:	aa0b03fe 	mov	x30, x11
  409f58:	ad8804c0 	stp	q0, q1, [x6,#256]!
  409f5c:	ad8804c0 	stp	q0, q1, [x6,#256]!
  409f60:	ad8804c0 	stp	q0, q1, [x6,#256]!
  409f64:	ad8804c0 	stp	q0, q1, [x6,#256]!
  409f68:	ad8804c0 	stp	q0, q1, [x6,#256]!
  409f6c:	ad8804c0 	stp	q0, q1, [x6,#256]!
  409f70:	aa1e03eb 	mov	x11, x30
  409f74:	97fffdc4 	bl	409684 <nop_>
  409f78:	aa0b03fe 	mov	x30, x11
  409f7c:	ad8804c0 	stp	q0, q1, [x6,#256]!
  409f80:	ad8804c0 	stp	q0, q1, [x6,#256]!
  409f84:	ad8804c0 	stp	q0, q1, [x6,#256]!
  409f88:	ad8804c0 	stp	q0, q1, [x6,#256]!
  409f8c:	ad8804c0 	stp	q0, q1, [x6,#256]!
  409f90:	ad8804c0 	stp	q0, q1, [x6,#256]!
  409f94:	aa1e03eb 	mov	x11, x30
  409f98:	97fffdbb 	bl	409684 <nop_>
  409f9c:	aa0b03fe 	mov	x30, x11
  409fa0:	ad8804c0 	stp	q0, q1, [x6,#256]!
  409fa4:	ad8804c0 	stp	q0, q1, [x6,#256]!
  409fa8:	ad8804c0 	stp	q0, q1, [x6,#256]!
  409fac:	ad8804c0 	stp	q0, q1, [x6,#256]!
  409fb0:	ad8804c0 	stp	q0, q1, [x6,#256]!
  409fb4:	ad8804c0 	stp	q0, q1, [x6,#256]!
  409fb8:	aa1e03eb 	mov	x11, x30
  409fbc:	97fffdb2 	bl	409684 <nop_>
  409fc0:	aa0b03fe 	mov	x30, x11
  409fc4:	ad8804c0 	stp	q0, q1, [x6,#256]!
  409fc8:	ad8804c0 	stp	q0, q1, [x6,#256]!
  409fcc:	ad8804c0 	stp	q0, q1, [x6,#256]!
  409fd0:	ad8804c0 	stp	q0, q1, [x6,#256]!
  409fd4:	ad8804c0 	stp	q0, q1, [x6,#256]!
  409fd8:	ad8804c0 	stp	q0, q1, [x6,#256]!
  409fdc:	aa1e03eb 	mov	x11, x30
  409fe0:	97fffda9 	bl	409684 <nop_>
  409fe4:	aa0b03fe 	mov	x30, x11
  409fe8:	ad8804c0 	stp	q0, q1, [x6,#256]!
  409fec:	ad8804c0 	stp	q0, q1, [x6,#256]!
  409ff0:	ad8804c0 	stp	q0, q1, [x6,#256]!
  409ff4:	adc80440 	ldp	q0, q1, [x2,#256]!
  409ff8:	ad8804c0 	stp	q0, q1, [x6,#256]!
  409ffc:	ad8804c0 	stp	q0, q1, [x6,#256]!
  40a000:	aa1e03eb 	mov	x11, x30
  40a004:	97fffda0 	bl	409684 <nop_>
  40a008:	aa0b03fe 	mov	x30, x11
  40a00c:	ad8804c0 	stp	q0, q1, [x6,#256]!
  40a010:	ad8804c0 	stp	q0, q1, [x6,#256]!
  40a014:	adc80440 	ldp	q0, q1, [x2,#256]!
  40a018:	ad8804c0 	stp	q0, q1, [x6,#256]!
  40a01c:	ad8804c0 	stp	q0, q1, [x6,#256]!
  40a020:	ad8804c0 	stp	q0, q1, [x6,#256]!
  40a024:	aa1e03eb 	mov	x11, x30
  40a028:	97fffd97 	bl	409684 <nop_>
  40a02c:	aa0b03fe 	mov	x30, x11
  40a030:	ad8804c0 	stp	q0, q1, [x6,#256]!
  40a034:	ad8804c0 	stp	q0, q1, [x6,#256]!
  40a038:	ad8804c0 	stp	q0, q1, [x6,#256]!
  40a03c:	ad8804c0 	stp	q0, q1, [x6,#256]!
  40a040:	ad8804c0 	stp	q0, q1, [x6,#256]!
  40a044:	ad8804c0 	stp	q0, q1, [x6,#256]!
  40a048:	aa1e03eb 	mov	x11, x30
  40a04c:	97fffd8e 	bl	409684 <nop_>
  40a050:	aa0b03fe 	mov	x30, x11
  40a054:	adc80440 	ldp	q0, q1, [x2,#256]!
  40a058:	ad8804c0 	stp	q0, q1, [x6,#256]!
  40a05c:	ad8804c0 	stp	q0, q1, [x6,#256]!
  40a060:	ad8804c0 	stp	q0, q1, [x6,#256]!
  40a064:	ad8804c0 	stp	q0, q1, [x6,#256]!
  40a068:	ad8804c0 	stp	q0, q1, [x6,#256]!
  40a06c:	aa1e03eb 	mov	x11, x30
  40a070:	97fffd85 	bl	409684 <nop_>
  40a074:	aa0b03fe 	mov	x30, x11
  40a078:	ad8804c0 	stp	q0, q1, [x6,#256]!
  40a07c:	ad8804c0 	stp	q0, q1, [x6,#256]!
  40a080:	ad8804c0 	stp	q0, q1, [x6,#256]!
  40a084:	ad8804c0 	stp	q0, q1, [x6,#256]!
  40a088:	ad8804c0 	stp	q0, q1, [x6,#256]!
  40a08c:	ad8804c0 	stp	q0, q1, [x6,#256]!
  40a090:	aa1e03eb 	mov	x11, x30
  40a094:	97fffd7c 	bl	409684 <nop_>
  40a098:	aa0b03fe 	mov	x30, x11
  40a09c:	ad8804c0 	stp	q0, q1, [x6,#256]!
  40a0a0:	ad8804c0 	stp	q0, q1, [x6,#256]!
  40a0a4:	ad8804c0 	stp	q0, q1, [x6,#256]!
  40a0a8:	ad8804c0 	stp	q0, q1, [x6,#256]!
  40a0ac:	ad8804c0 	stp	q0, q1, [x6,#256]!
  40a0b0:	ad8804c0 	stp	q0, q1, [x6,#256]!
  40a0b4:	aa1e03eb 	mov	x11, x30
  40a0b8:	97fffd73 	bl	409684 <nop_>
  40a0bc:	aa0b03fe 	mov	x30, x11
  40a0c0:	ad8804c0 	stp	q0, q1, [x6,#256]!
  40a0c4:	ad8804c0 	stp	q0, q1, [x6,#256]!
  40a0c8:	ad8804c0 	stp	q0, q1, [x6,#256]!
  40a0cc:	ad8804c0 	stp	q0, q1, [x6,#256]!
  40a0d0:	ad8804c0 	stp	q0, q1, [x6,#256]!
  40a0d4:	ad8804c0 	stp	q0, q1, [x6,#256]!
  40a0d8:	aa1e03eb 	mov	x11, x30
  40a0dc:	97fffd6a 	bl	409684 <nop_>
  40a0e0:	aa0b03fe 	mov	x30, x11
  40a0e4:	ad8804c0 	stp	q0, q1, [x6,#256]!
  40a0e8:	adc80440 	ldp	q0, q1, [x2,#256]!
  40a0ec:	ad8804c0 	stp	q0, q1, [x6,#256]!
  40a0f0:	ad8804c0 	stp	q0, q1, [x6,#256]!
  40a0f4:	ad8804c0 	stp	q0, q1, [x6,#256]!
  40a0f8:	ad8804c0 	stp	q0, q1, [x6,#256]!
  40a0fc:	aa1e03eb 	mov	x11, x30
  40a100:	97fffd61 	bl	409684 <nop_>
  40a104:	aa0b03fe 	mov	x30, x11
  40a108:	ad8804c0 	stp	q0, q1, [x6,#256]!
  40a10c:	ad8804c0 	stp	q0, q1, [x6,#256]!
  40a110:	ad8804c0 	stp	q0, q1, [x6,#256]!
  40a114:	ad8804c0 	stp	q0, q1, [x6,#256]!
  40a118:	adc80440 	ldp	q0, q1, [x2,#256]!
  40a11c:	ad8804c0 	stp	q0, q1, [x6,#256]!
  40a120:	aa1e03eb 	mov	x11, x30
  40a124:	97fffd58 	bl	409684 <nop_>
  40a128:	aa0b03fe 	mov	x30, x11
  40a12c:	ad8804c0 	stp	q0, q1, [x6,#256]!
  40a130:	ad8804c0 	stp	q0, q1, [x6,#256]!
  40a134:	ad8804c0 	stp	q0, q1, [x6,#256]!
  40a138:	ad8804c0 	stp	q0, q1, [x6,#256]!
  40a13c:	ad8804c0 	stp	q0, q1, [x6,#256]!
  40a140:	ad8804c0 	stp	q0, q1, [x6,#256]!
  40a144:	aa1e03eb 	mov	x11, x30
  40a148:	97fffd4f 	bl	409684 <nop_>
  40a14c:	aa0b03fe 	mov	x30, x11
  40a150:	ad8804c0 	stp	q0, q1, [x6,#256]!
  40a154:	ad8804c0 	stp	q0, q1, [x6,#256]!
  40a158:	ad8804c0 	stp	q0, q1, [x6,#256]!
  40a15c:	ad8804c0 	stp	q0, q1, [x6,#256]!
  40a160:	aa1e03eb 	mov	x11, x30
  40a164:	97fffd48 	bl	409684 <nop_>
  40a168:	aa0b03fe 	mov	x30, x11
  40a16c:	91320021 	add	x1, x1, #0xc80
  40a170:	eb03003f 	cmp	x1, x3
  40a174:	5404d1ad 	b.le	413ba8 <_Z15STREAM_copy_100PdS_PlPKi+0xe0>
  40a178:	d503201f 	nop
  40a17c:	a8c37bfd 	ldp	x29, x30, [sp],#48
  40a180:	d65f03c0 	ret

000000000040a184 <_Z13STREAM_copy_8PdS_PlPKi>:
  40a184:	a9bd7bfd 	stp	x29, x30, [sp,#-48]!
  40a188:	910003fd 	mov	x29, sp
  40a18c:	f90017e0 	str	x0, [sp,#40]
  40a190:	f90013e1 	str	x1, [sp,#32]
  40a194:	f9000fe2 	str	x2, [sp,#24]
  40a198:	f9000be3 	str	x3, [sp,#16]
  40a19c:	d2800000 	mov	x0, #0x0                   	// #0
  40a1a0:	f0000060 	adrp	x0, 419000 <_IO_stdin_used+0x8>
  40a1a4:	91008001 	add	x1, x0, #0x20
  40a1a8:	90000120 	adrp	x0, 42e000 <_Znam@GLIBCXX_3.4>
  40a1ac:	91286000 	add	x0, x0, #0xa18
  40a1b0:	97fffb50 	bl	408ef0 <_ZStlsISt11char_traitsIcEERSt13basic_ostreamIcT_ES5_PKc@plt>
  40a1b4:	aa0003e2 	mov	x2, x0
  40a1b8:	f9400be0 	ldr	x0, [sp,#16]
  40a1bc:	b9400000 	ldr	w0, [x0]
  40a1c0:	2a0003e1 	mov	w1, w0
  40a1c4:	aa0203e0 	mov	x0, x2
  40a1c8:	97fffc7e 	bl	4093c0 <_ZNSolsEi@plt>
  40a1cc:	aa0003e2 	mov	x2, x0
  40a1d0:	f0000060 	adrp	x0, 419000 <_IO_stdin_used+0x8>
  40a1d4:	9100c001 	add	x1, x0, #0x30
  40a1d8:	aa0203e0 	mov	x0, x2
  40a1dc:	97fffb45 	bl	408ef0 <_ZStlsISt11char_traitsIcEERSt13basic_ostreamIcT_ES5_PKc@plt>
  40a1e0:	f94017e1 	ldr	x1, [sp,#40]
  40a1e4:	97fffae7 	bl	408d80 <_ZNSolsEPKv@plt>
  40a1e8:	aa0003e2 	mov	x2, x0
  40a1ec:	f0000060 	adrp	x0, 419000 <_IO_stdin_used+0x8>
  40a1f0:	91010001 	add	x1, x0, #0x40
  40a1f4:	aa0203e0 	mov	x0, x2
  40a1f8:	97fffb3e 	bl	408ef0 <_ZStlsISt11char_traitsIcEERSt13basic_ostreamIcT_ES5_PKc@plt>
  40a1fc:	f94013e1 	ldr	x1, [sp,#32]
  40a200:	97fffae0 	bl	408d80 <_ZNSolsEPKv@plt>
  40a204:	aa0003e2 	mov	x2, x0
  40a208:	f0000060 	adrp	x0, 419000 <_IO_stdin_used+0x8>
  40a20c:	91014001 	add	x1, x0, #0x50
  40a210:	aa0203e0 	mov	x0, x2
  40a214:	97fffb37 	bl	408ef0 <_ZStlsISt11char_traitsIcEERSt13basic_ostreamIcT_ES5_PKc@plt>
  40a218:	aa0003e2 	mov	x2, x0
  40a21c:	f9400fe0 	ldr	x0, [sp,#24]
  40a220:	f9400000 	ldr	x0, [x0]
  40a224:	aa0003e1 	mov	x1, x0
  40a228:	aa0203e0 	mov	x0, x2
  40a22c:	97fffc85 	bl	409440 <_ZNSolsEl@plt>
  40a230:	aa0003e2 	mov	x2, x0
  40a234:	d0ffffe0 	adrp	x0, 408000 <_init-0x970>
  40a238:	912ec001 	add	x1, x0, #0xbb0
  40a23c:	aa0203e0 	mov	x0, x2
  40a240:	97fffb40 	bl	408f40 <_ZNSolsEPFRSoS_E@plt>
  40a244:	f9400fe1 	ldr	x1, [sp,#24]
  40a248:	f9400023 	ldr	x3, [x1]
  40a24c:	f9400be1 	ldr	x1, [sp,#16]
  40a250:	b9400025 	ldr	w5, [x1]
  40a254:	f94017e2 	ldr	x2, [sp,#40]
  40a258:	f94013e6 	ldr	x6, [sp,#32]
  40a25c:	d2800001 	mov	x1, #0x0                   	// #0
  40a260:	aa0503e4 	mov	x4, x5
  40a264:	ad8804c0 	stp	q0, q1, [x6,#256]!
  40a268:	ad8804c0 	stp	q0, q1, [x6,#256]!
  40a26c:	ad8804c0 	stp	q0, q1, [x6,#256]!
  40a270:	ad8804c0 	stp	q0, q1, [x6,#256]!
  40a274:	ad8804c0 	stp	q0, q1, [x6,#256]!
  40a278:	ad8804c0 	stp	q0, q1, [x6,#256]!
  40a27c:	aa1e03eb 	mov	x11, x30
  40a280:	97fffd01 	bl	409684 <nop_>
  40a284:	aa0b03fe 	mov	x30, x11
  40a288:	ad8804c0 	stp	q0, q1, [x6,#256]!
  40a28c:	adc80440 	ldp	q0, q1, [x2,#256]!
  40a290:	ad8804c0 	stp	q0, q1, [x6,#256]!
  40a294:	ad8804c0 	stp	q0, q1, [x6,#256]!
  40a298:	ad8804c0 	stp	q0, q1, [x6,#256]!
  40a29c:	ad8804c0 	stp	q0, q1, [x6,#256]!
  40a2a0:	aa1e03eb 	mov	x11, x30
  40a2a4:	97fffcf8 	bl	409684 <nop_>
  40a2a8:	aa0b03fe 	mov	x30, x11
  40a2ac:	ad8804c0 	stp	q0, q1, [x6,#256]!
  40a2b0:	ad8804c0 	stp	q0, q1, [x6,#256]!
  40a2b4:	ad8804c0 	stp	q0, q1, [x6,#256]!
  40a2b8:	ad8804c0 	stp	q0, q1, [x6,#256]!
  40a2bc:	ad8804c0 	stp	q0, q1, [x6,#256]!
  40a2c0:	ad8804c0 	stp	q0, q1, [x6,#256]!
  40a2c4:	aa1e03eb 	mov	x11, x30
  40a2c8:	97fffcef 	bl	409684 <nop_>
  40a2cc:	aa0b03fe 	mov	x30, x11
  40a2d0:	ad8804c0 	stp	q0, q1, [x6,#256]!
  40a2d4:	ad8804c0 	stp	q0, q1, [x6,#256]!
  40a2d8:	ad8804c0 	stp	q0, q1, [x6,#256]!
  40a2dc:	ad8804c0 	stp	q0, q1, [x6,#256]!
  40a2e0:	ad8804c0 	stp	q0, q1, [x6,#256]!
  40a2e4:	ad8804c0 	stp	q0, q1, [x6,#256]!
  40a2e8:	aa1e03eb 	mov	x11, x30
  40a2ec:	97fffce6 	bl	409684 <nop_>
  40a2f0:	aa0b03fe 	mov	x30, x11
  40a2f4:	ad8804c0 	stp	q0, q1, [x6,#256]!
  40a2f8:	ad8804c0 	stp	q0, q1, [x6,#256]!
  40a2fc:	ad8804c0 	stp	q0, q1, [x6,#256]!
  40a300:	ad8804c0 	stp	q0, q1, [x6,#256]!
  40a304:	ad8804c0 	stp	q0, q1, [x6,#256]!
  40a308:	ad8804c0 	stp	q0, q1, [x6,#256]!
  40a30c:	aa1e03eb 	mov	x11, x30
  40a310:	97fffcdd 	bl	409684 <nop_>
  40a314:	aa0b03fe 	mov	x30, x11
  40a318:	ad8804c0 	stp	q0, q1, [x6,#256]!
  40a31c:	ad8804c0 	stp	q0, q1, [x6,#256]!
  40a320:	adc80440 	ldp	q0, q1, [x2,#256]!
  40a324:	ad8804c0 	stp	q0, q1, [x6,#256]!
  40a328:	ad8804c0 	stp	q0, q1, [x6,#256]!
  40a32c:	ad8804c0 	stp	q0, q1, [x6,#256]!
  40a330:	aa1e03eb 	mov	x11, x30
  40a334:	97fffcd4 	bl	409684 <nop_>
  40a338:	aa0b03fe 	mov	x30, x11
  40a33c:	ad8804c0 	stp	q0, q1, [x6,#256]!
  40a340:	ad8804c0 	stp	q0, q1, [x6,#256]!
  40a344:	ad8804c0 	stp	q0, q1, [x6,#256]!
  40a348:	adc80440 	ldp	q0, q1, [x2,#256]!
  40a34c:	ad8804c0 	stp	q0, q1, [x6,#256]!
  40a350:	ad8804c0 	stp	q0, q1, [x6,#256]!
  40a354:	aa1e03eb 	mov	x11, x30
  40a358:	97fffccb 	bl	409684 <nop_>
  40a35c:	aa0b03fe 	mov	x30, x11
  40a360:	ad8804c0 	stp	q0, q1, [x6,#256]!
  40a364:	ad8804c0 	stp	q0, q1, [x6,#256]!
  40a368:	adc80440 	ldp	q0, q1, [x2,#256]!
  40a36c:	ad8804c0 	stp	q0, q1, [x6,#256]!
  40a370:	ad8804c0 	stp	q0, q1, [x6,#256]!
  40a374:	ad8804c0 	stp	q0, q1, [x6,#256]!
  40a378:	aa1e03eb 	mov	x11, x30
  40a37c:	97fffcc2 	bl	409684 <nop_>
  40a380:	aa0b03fe 	mov	x30, x11
  40a384:	ad8804c0 	stp	q0, q1, [x6,#256]!
  40a388:	ad8804c0 	stp	q0, q1, [x6,#256]!
  40a38c:	ad8804c0 	stp	q0, q1, [x6,#256]!
  40a390:	ad8804c0 	stp	q0, q1, [x6,#256]!
  40a394:	ad8804c0 	stp	q0, q1, [x6,#256]!
  40a398:	ad8804c0 	stp	q0, q1, [x6,#256]!
  40a39c:	aa1e03eb 	mov	x11, x30
  40a3a0:	97fffcb9 	bl	409684 <nop_>
  40a3a4:	aa0b03fe 	mov	x30, x11
  40a3a8:	adc80440 	ldp	q0, q1, [x2,#256]!
  40a3ac:	ad8804c0 	stp	q0, q1, [x6,#256]!
  40a3b0:	ad8804c0 	stp	q0, q1, [x6,#256]!
  40a3b4:	ad8804c0 	stp	q0, q1, [x6,#256]!
  40a3b8:	ad8804c0 	stp	q0, q1, [x6,#256]!
  40a3bc:	ad8804c0 	stp	q0, q1, [x6,#256]!
  40a3c0:	aa1e03eb 	mov	x11, x30
  40a3c4:	97fffcb0 	bl	409684 <nop_>
  40a3c8:	aa0b03fe 	mov	x30, x11
  40a3cc:	ad8804c0 	stp	q0, q1, [x6,#256]!
  40a3d0:	ad8804c0 	stp	q0, q1, [x6,#256]!
  40a3d4:	ad8804c0 	stp	q0, q1, [x6,#256]!
  40a3d8:	ad8804c0 	stp	q0, q1, [x6,#256]!
  40a3dc:	ad8804c0 	stp	q0, q1, [x6,#256]!
  40a3e0:	ad8804c0 	stp	q0, q1, [x6,#256]!
  40a3e4:	aa1e03eb 	mov	x11, x30
  40a3e8:	97fffca7 	bl	409684 <nop_>
  40a3ec:	aa0b03fe 	mov	x30, x11
  40a3f0:	ad8804c0 	stp	q0, q1, [x6,#256]!
  40a3f4:	adc80440 	ldp	q0, q1, [x2,#256]!
  40a3f8:	ad8804c0 	stp	q0, q1, [x6,#256]!
  40a3fc:	ad8804c0 	stp	q0, q1, [x6,#256]!
  40a400:	ad8804c0 	stp	q0, q1, [x6,#256]!
  40a404:	ad8804c0 	stp	q0, q1, [x6,#256]!
  40a408:	aa1e03eb 	mov	x11, x30
  40a40c:	97fffc9e 	bl	409684 <nop_>
  40a410:	aa0b03fe 	mov	x30, x11
  40a414:	ad8804c0 	stp	q0, q1, [x6,#256]!
  40a418:	ad8804c0 	stp	q0, q1, [x6,#256]!
  40a41c:	ad8804c0 	stp	q0, q1, [x6,#256]!
  40a420:	ad8804c0 	stp	q0, q1, [x6,#256]!
  40a424:	ad8804c0 	stp	q0, q1, [x6,#256]!
  40a428:	ad8804c0 	stp	q0, q1, [x6,#256]!
  40a42c:	aa1e03eb 	mov	x11, x30
  40a430:	97fffc95 	bl	409684 <nop_>
  40a434:	aa0b03fe 	mov	x30, x11
  40a438:	ad8804c0 	stp	q0, q1, [x6,#256]!
  40a43c:	adc80440 	ldp	q0, q1, [x2,#256]!
  40a440:	ad8804c0 	stp	q0, q1, [x6,#256]!
  40a444:	ad8804c0 	stp	q0, q1, [x6,#256]!
  40a448:	ad8804c0 	stp	q0, q1, [x6,#256]!
  40a44c:	ad8804c0 	stp	q0, q1, [x6,#256]!
  40a450:	aa1e03eb 	mov	x11, x30
  40a454:	97fffc8c 	bl	409684 <nop_>
  40a458:	aa0b03fe 	mov	x30, x11
  40a45c:	ad8804c0 	stp	q0, q1, [x6,#256]!
  40a460:	ad8804c0 	stp	q0, q1, [x6,#256]!
  40a464:	ad8804c0 	stp	q0, q1, [x6,#256]!
  40a468:	ad8804c0 	stp	q0, q1, [x6,#256]!
  40a46c:	adc80440 	ldp	q0, q1, [x2,#256]!
  40a470:	ad8804c0 	stp	q0, q1, [x6,#256]!
  40a474:	aa1e03eb 	mov	x11, x30
  40a478:	97fffc83 	bl	409684 <nop_>
  40a47c:	aa0b03fe 	mov	x30, x11
  40a480:	ad8804c0 	stp	q0, q1, [x6,#256]!
  40a484:	ad8804c0 	stp	q0, q1, [x6,#256]!
  40a488:	ad8804c0 	stp	q0, q1, [x6,#256]!
  40a48c:	ad8804c0 	stp	q0, q1, [x6,#256]!
  40a490:	ad8804c0 	stp	q0, q1, [x6,#256]!
  40a494:	ad8804c0 	stp	q0, q1, [x6,#256]!
  40a498:	aa1e03eb 	mov	x11, x30
  40a49c:	97fffc7a 	bl	409684 <nop_>
  40a4a0:	aa0b03fe 	mov	x30, x11
  40a4a4:	ad8804c0 	stp	q0, q1, [x6,#256]!
  40a4a8:	ad8804c0 	stp	q0, q1, [x6,#256]!
  40a4ac:	ad8804c0 	stp	q0, q1, [x6,#256]!
  40a4b0:	ad8804c0 	stp	q0, q1, [x6,#256]!
  40a4b4:	aa1e03eb 	mov	x11, x30
  40a4b8:	97fffc73 	bl	409684 <nop_>
  40a4bc:	aa0b03fe 	mov	x30, x11
  40a4c0:	91320021 	add	x1, x1, #0xc80
  40a4c4:	eb03003f 	cmp	x1, x3
  40a4c8:	5404b70d 	b.le	413ba8 <_Z15STREAM_copy_100PdS_PlPKi+0xe0>
  40a4cc:	d503201f 	nop
  40a4d0:	a8c37bfd 	ldp	x29, x30, [sp],#48
  40a4d4:	d65f03c0 	ret

000000000040a4d8 <_Z14STREAM_copy_10PdS_PlPKi>:
  40a4d8:	a9bd7bfd 	stp	x29, x30, [sp,#-48]!
  40a4dc:	910003fd 	mov	x29, sp
  40a4e0:	f90017e0 	str	x0, [sp,#40]
  40a4e4:	f90013e1 	str	x1, [sp,#32]
  40a4e8:	f9000fe2 	str	x2, [sp,#24]
  40a4ec:	f9000be3 	str	x3, [sp,#16]
  40a4f0:	d2800000 	mov	x0, #0x0                   	// #0
  40a4f4:	f0000060 	adrp	x0, 419000 <_IO_stdin_used+0x8>
  40a4f8:	91008001 	add	x1, x0, #0x20
  40a4fc:	90000120 	adrp	x0, 42e000 <_Znam@GLIBCXX_3.4>
  40a500:	91286000 	add	x0, x0, #0xa18
  40a504:	97fffa7b 	bl	408ef0 <_ZStlsISt11char_traitsIcEERSt13basic_ostreamIcT_ES5_PKc@plt>
  40a508:	aa0003e2 	mov	x2, x0
  40a50c:	f9400be0 	ldr	x0, [sp,#16]
  40a510:	b9400000 	ldr	w0, [x0]
  40a514:	2a0003e1 	mov	w1, w0
  40a518:	aa0203e0 	mov	x0, x2
  40a51c:	97fffba9 	bl	4093c0 <_ZNSolsEi@plt>
  40a520:	aa0003e2 	mov	x2, x0
  40a524:	f0000060 	adrp	x0, 419000 <_IO_stdin_used+0x8>
  40a528:	9100c001 	add	x1, x0, #0x30
  40a52c:	aa0203e0 	mov	x0, x2
  40a530:	97fffa70 	bl	408ef0 <_ZStlsISt11char_traitsIcEERSt13basic_ostreamIcT_ES5_PKc@plt>
  40a534:	f94017e1 	ldr	x1, [sp,#40]
  40a538:	97fffa12 	bl	408d80 <_ZNSolsEPKv@plt>
  40a53c:	aa0003e2 	mov	x2, x0
  40a540:	f0000060 	adrp	x0, 419000 <_IO_stdin_used+0x8>
  40a544:	91010001 	add	x1, x0, #0x40
  40a548:	aa0203e0 	mov	x0, x2
  40a54c:	97fffa69 	bl	408ef0 <_ZStlsISt11char_traitsIcEERSt13basic_ostreamIcT_ES5_PKc@plt>
  40a550:	f94013e1 	ldr	x1, [sp,#32]
  40a554:	97fffa0b 	bl	408d80 <_ZNSolsEPKv@plt>
  40a558:	aa0003e2 	mov	x2, x0
  40a55c:	f0000060 	adrp	x0, 419000 <_IO_stdin_used+0x8>
  40a560:	91014001 	add	x1, x0, #0x50
  40a564:	aa0203e0 	mov	x0, x2
  40a568:	97fffa62 	bl	408ef0 <_ZStlsISt11char_traitsIcEERSt13basic_ostreamIcT_ES5_PKc@plt>
  40a56c:	aa0003e2 	mov	x2, x0
  40a570:	f9400fe0 	ldr	x0, [sp,#24]
  40a574:	f9400000 	ldr	x0, [x0]
  40a578:	aa0003e1 	mov	x1, x0
  40a57c:	aa0203e0 	mov	x0, x2
  40a580:	97fffbb0 	bl	409440 <_ZNSolsEl@plt>
  40a584:	aa0003e2 	mov	x2, x0
  40a588:	d0ffffe0 	adrp	x0, 408000 <_init-0x970>
  40a58c:	912ec001 	add	x1, x0, #0xbb0
  40a590:	aa0203e0 	mov	x0, x2
  40a594:	97fffa6b 	bl	408f40 <_ZNSolsEPFRSoS_E@plt>
  40a598:	f9400fe1 	ldr	x1, [sp,#24]
  40a59c:	f9400023 	ldr	x3, [x1]
  40a5a0:	f9400be1 	ldr	x1, [sp,#16]
  40a5a4:	b9400025 	ldr	w5, [x1]
  40a5a8:	f94017e2 	ldr	x2, [sp,#40]
  40a5ac:	f94013e6 	ldr	x6, [sp,#32]
  40a5b0:	d2800001 	mov	x1, #0x0                   	// #0
  40a5b4:	aa0503e4 	mov	x4, x5
  40a5b8:	ad8804c0 	stp	q0, q1, [x6,#256]!
  40a5bc:	ad8804c0 	stp	q0, q1, [x6,#256]!
  40a5c0:	ad8804c0 	stp	q0, q1, [x6,#256]!
  40a5c4:	ad8804c0 	stp	q0, q1, [x6,#256]!
  40a5c8:	ad8804c0 	stp	q0, q1, [x6,#256]!
  40a5cc:	ad8804c0 	stp	q0, q1, [x6,#256]!
  40a5d0:	aa1e03eb 	mov	x11, x30
  40a5d4:	97fffc2c 	bl	409684 <nop_>
  40a5d8:	aa0b03fe 	mov	x30, x11
  40a5dc:	ad8804c0 	stp	q0, q1, [x6,#256]!
  40a5e0:	adc80440 	ldp	q0, q1, [x2,#256]!
  40a5e4:	ad8804c0 	stp	q0, q1, [x6,#256]!
  40a5e8:	ad8804c0 	stp	q0, q1, [x6,#256]!
  40a5ec:	ad8804c0 	stp	q0, q1, [x6,#256]!
  40a5f0:	ad8804c0 	stp	q0, q1, [x6,#256]!
  40a5f4:	aa1e03eb 	mov	x11, x30
  40a5f8:	97fffc23 	bl	409684 <nop_>
  40a5fc:	aa0b03fe 	mov	x30, x11
  40a600:	adc80440 	ldp	q0, q1, [x2,#256]!
  40a604:	ad8804c0 	stp	q0, q1, [x6,#256]!
  40a608:	ad8804c0 	stp	q0, q1, [x6,#256]!
  40a60c:	ad8804c0 	stp	q0, q1, [x6,#256]!
  40a610:	ad8804c0 	stp	q0, q1, [x6,#256]!
  40a614:	ad8804c0 	stp	q0, q1, [x6,#256]!
  40a618:	aa1e03eb 	mov	x11, x30
  40a61c:	97fffc1a 	bl	409684 <nop_>
  40a620:	aa0b03fe 	mov	x30, x11
  40a624:	ad8804c0 	stp	q0, q1, [x6,#256]!
  40a628:	ad8804c0 	stp	q0, q1, [x6,#256]!
  40a62c:	ad8804c0 	stp	q0, q1, [x6,#256]!
  40a630:	ad8804c0 	stp	q0, q1, [x6,#256]!
  40a634:	ad8804c0 	stp	q0, q1, [x6,#256]!
  40a638:	ad8804c0 	stp	q0, q1, [x6,#256]!
  40a63c:	aa1e03eb 	mov	x11, x30
  40a640:	97fffc11 	bl	409684 <nop_>
  40a644:	aa0b03fe 	mov	x30, x11
  40a648:	ad8804c0 	stp	q0, q1, [x6,#256]!
  40a64c:	ad8804c0 	stp	q0, q1, [x6,#256]!
  40a650:	ad8804c0 	stp	q0, q1, [x6,#256]!
  40a654:	ad8804c0 	stp	q0, q1, [x6,#256]!
  40a658:	ad8804c0 	stp	q0, q1, [x6,#256]!
  40a65c:	ad8804c0 	stp	q0, q1, [x6,#256]!
  40a660:	aa1e03eb 	mov	x11, x30
  40a664:	97fffc08 	bl	409684 <nop_>
  40a668:	aa0b03fe 	mov	x30, x11
  40a66c:	ad8804c0 	stp	q0, q1, [x6,#256]!
  40a670:	ad8804c0 	stp	q0, q1, [x6,#256]!
  40a674:	adc80440 	ldp	q0, q1, [x2,#256]!
  40a678:	ad8804c0 	stp	q0, q1, [x6,#256]!
  40a67c:	ad8804c0 	stp	q0, q1, [x6,#256]!
  40a680:	ad8804c0 	stp	q0, q1, [x6,#256]!
  40a684:	aa1e03eb 	mov	x11, x30
  40a688:	97fffbff 	bl	409684 <nop_>
  40a68c:	aa0b03fe 	mov	x30, x11
  40a690:	ad8804c0 	stp	q0, q1, [x6,#256]!
  40a694:	ad8804c0 	stp	q0, q1, [x6,#256]!
  40a698:	ad8804c0 	stp	q0, q1, [x6,#256]!
  40a69c:	adc80440 	ldp	q0, q1, [x2,#256]!
  40a6a0:	ad8804c0 	stp	q0, q1, [x6,#256]!
  40a6a4:	ad8804c0 	stp	q0, q1, [x6,#256]!
  40a6a8:	aa1e03eb 	mov	x11, x30
  40a6ac:	97fffbf6 	bl	409684 <nop_>
  40a6b0:	aa0b03fe 	mov	x30, x11
  40a6b4:	ad8804c0 	stp	q0, q1, [x6,#256]!
  40a6b8:	ad8804c0 	stp	q0, q1, [x6,#256]!
  40a6bc:	adc80440 	ldp	q0, q1, [x2,#256]!
  40a6c0:	ad8804c0 	stp	q0, q1, [x6,#256]!
  40a6c4:	ad8804c0 	stp	q0, q1, [x6,#256]!
  40a6c8:	ad8804c0 	stp	q0, q1, [x6,#256]!
  40a6cc:	aa1e03eb 	mov	x11, x30
  40a6d0:	97fffbed 	bl	409684 <nop_>
  40a6d4:	aa0b03fe 	mov	x30, x11
  40a6d8:	ad8804c0 	stp	q0, q1, [x6,#256]!
  40a6dc:	ad8804c0 	stp	q0, q1, [x6,#256]!
  40a6e0:	ad8804c0 	stp	q0, q1, [x6,#256]!
  40a6e4:	ad8804c0 	stp	q0, q1, [x6,#256]!
  40a6e8:	ad8804c0 	stp	q0, q1, [x6,#256]!
  40a6ec:	ad8804c0 	stp	q0, q1, [x6,#256]!
  40a6f0:	aa1e03eb 	mov	x11, x30
  40a6f4:	97fffbe4 	bl	409684 <nop_>
  40a6f8:	aa0b03fe 	mov	x30, x11
  40a6fc:	adc80440 	ldp	q0, q1, [x2,#256]!
  40a700:	ad8804c0 	stp	q0, q1, [x6,#256]!
  40a704:	ad8804c0 	stp	q0, q1, [x6,#256]!
  40a708:	ad8804c0 	stp	q0, q1, [x6,#256]!
  40a70c:	ad8804c0 	stp	q0, q1, [x6,#256]!
  40a710:	ad8804c0 	stp	q0, q1, [x6,#256]!
  40a714:	aa1e03eb 	mov	x11, x30
  40a718:	97fffbdb 	bl	409684 <nop_>
  40a71c:	aa0b03fe 	mov	x30, x11
  40a720:	ad8804c0 	stp	q0, q1, [x6,#256]!
  40a724:	ad8804c0 	stp	q0, q1, [x6,#256]!
  40a728:	ad8804c0 	stp	q0, q1, [x6,#256]!
  40a72c:	ad8804c0 	stp	q0, q1, [x6,#256]!
  40a730:	ad8804c0 	stp	q0, q1, [x6,#256]!
  40a734:	ad8804c0 	stp	q0, q1, [x6,#256]!
  40a738:	aa1e03eb 	mov	x11, x30
  40a73c:	97fffbd2 	bl	409684 <nop_>
  40a740:	aa0b03fe 	mov	x30, x11
  40a744:	ad8804c0 	stp	q0, q1, [x6,#256]!
  40a748:	adc80440 	ldp	q0, q1, [x2,#256]!
  40a74c:	ad8804c0 	stp	q0, q1, [x6,#256]!
  40a750:	ad8804c0 	stp	q0, q1, [x6,#256]!
  40a754:	ad8804c0 	stp	q0, q1, [x6,#256]!
  40a758:	ad8804c0 	stp	q0, q1, [x6,#256]!
  40a75c:	aa1e03eb 	mov	x11, x30
  40a760:	97fffbc9 	bl	409684 <nop_>
  40a764:	aa0b03fe 	mov	x30, x11
  40a768:	ad8804c0 	stp	q0, q1, [x6,#256]!
  40a76c:	adc80440 	ldp	q0, q1, [x2,#256]!
  40a770:	ad8804c0 	stp	q0, q1, [x6,#256]!
  40a774:	ad8804c0 	stp	q0, q1, [x6,#256]!
  40a778:	ad8804c0 	stp	q0, q1, [x6,#256]!
  40a77c:	ad8804c0 	stp	q0, q1, [x6,#256]!
  40a780:	aa1e03eb 	mov	x11, x30
  40a784:	97fffbc0 	bl	409684 <nop_>
  40a788:	aa0b03fe 	mov	x30, x11
  40a78c:	ad8804c0 	stp	q0, q1, [x6,#256]!
  40a790:	adc80440 	ldp	q0, q1, [x2,#256]!
  40a794:	ad8804c0 	stp	q0, q1, [x6,#256]!
  40a798:	ad8804c0 	stp	q0, q1, [x6,#256]!
  40a79c:	ad8804c0 	stp	q0, q1, [x6,#256]!
  40a7a0:	ad8804c0 	stp	q0, q1, [x6,#256]!
  40a7a4:	aa1e03eb 	mov	x11, x30
  40a7a8:	97fffbb7 	bl	409684 <nop_>
  40a7ac:	aa0b03fe 	mov	x30, x11
  40a7b0:	ad8804c0 	stp	q0, q1, [x6,#256]!
  40a7b4:	ad8804c0 	stp	q0, q1, [x6,#256]!
  40a7b8:	ad8804c0 	stp	q0, q1, [x6,#256]!
  40a7bc:	ad8804c0 	stp	q0, q1, [x6,#256]!
  40a7c0:	adc80440 	ldp	q0, q1, [x2,#256]!
  40a7c4:	ad8804c0 	stp	q0, q1, [x6,#256]!
  40a7c8:	aa1e03eb 	mov	x11, x30
  40a7cc:	97fffbae 	bl	409684 <nop_>
  40a7d0:	aa0b03fe 	mov	x30, x11
  40a7d4:	ad8804c0 	stp	q0, q1, [x6,#256]!
  40a7d8:	ad8804c0 	stp	q0, q1, [x6,#256]!
  40a7dc:	ad8804c0 	stp	q0, q1, [x6,#256]!
  40a7e0:	ad8804c0 	stp	q0, q1, [x6,#256]!
  40a7e4:	ad8804c0 	stp	q0, q1, [x6,#256]!
  40a7e8:	ad8804c0 	stp	q0, q1, [x6,#256]!
  40a7ec:	aa1e03eb 	mov	x11, x30
  40a7f0:	97fffba5 	bl	409684 <nop_>
  40a7f4:	aa0b03fe 	mov	x30, x11
  40a7f8:	ad8804c0 	stp	q0, q1, [x6,#256]!
  40a7fc:	ad8804c0 	stp	q0, q1, [x6,#256]!
  40a800:	ad8804c0 	stp	q0, q1, [x6,#256]!
  40a804:	ad8804c0 	stp	q0, q1, [x6,#256]!
  40a808:	aa1e03eb 	mov	x11, x30
  40a80c:	97fffb9e 	bl	409684 <nop_>
  40a810:	aa0b03fe 	mov	x30, x11
  40a814:	91320021 	add	x1, x1, #0xc80
  40a818:	eb03003f 	cmp	x1, x3
  40a81c:	54049c6d 	b.le	413ba8 <_Z15STREAM_copy_100PdS_PlPKi+0xe0>
  40a820:	d503201f 	nop
  40a824:	a8c37bfd 	ldp	x29, x30, [sp],#48
  40a828:	d65f03c0 	ret

000000000040a82c <_Z14STREAM_copy_12PdS_PlPKi>:
  40a82c:	a9bd7bfd 	stp	x29, x30, [sp,#-48]!
  40a830:	910003fd 	mov	x29, sp
  40a834:	f90017e0 	str	x0, [sp,#40]
  40a838:	f90013e1 	str	x1, [sp,#32]
  40a83c:	f9000fe2 	str	x2, [sp,#24]
  40a840:	f9000be3 	str	x3, [sp,#16]
  40a844:	d2800000 	mov	x0, #0x0                   	// #0
  40a848:	f0000060 	adrp	x0, 419000 <_IO_stdin_used+0x8>
  40a84c:	91008001 	add	x1, x0, #0x20
  40a850:	90000120 	adrp	x0, 42e000 <_Znam@GLIBCXX_3.4>
  40a854:	91286000 	add	x0, x0, #0xa18
  40a858:	97fff9a6 	bl	408ef0 <_ZStlsISt11char_traitsIcEERSt13basic_ostreamIcT_ES5_PKc@plt>
  40a85c:	aa0003e2 	mov	x2, x0
  40a860:	f9400be0 	ldr	x0, [sp,#16]
  40a864:	b9400000 	ldr	w0, [x0]
  40a868:	2a0003e1 	mov	w1, w0
  40a86c:	aa0203e0 	mov	x0, x2
  40a870:	97fffad4 	bl	4093c0 <_ZNSolsEi@plt>
  40a874:	aa0003e2 	mov	x2, x0
  40a878:	f0000060 	adrp	x0, 419000 <_IO_stdin_used+0x8>
  40a87c:	9100c001 	add	x1, x0, #0x30
  40a880:	aa0203e0 	mov	x0, x2
  40a884:	97fff99b 	bl	408ef0 <_ZStlsISt11char_traitsIcEERSt13basic_ostreamIcT_ES5_PKc@plt>
  40a888:	f94017e1 	ldr	x1, [sp,#40]
  40a88c:	97fff93d 	bl	408d80 <_ZNSolsEPKv@plt>
  40a890:	aa0003e2 	mov	x2, x0
  40a894:	f0000060 	adrp	x0, 419000 <_IO_stdin_used+0x8>
  40a898:	91010001 	add	x1, x0, #0x40
  40a89c:	aa0203e0 	mov	x0, x2
  40a8a0:	97fff994 	bl	408ef0 <_ZStlsISt11char_traitsIcEERSt13basic_ostreamIcT_ES5_PKc@plt>
  40a8a4:	f94013e1 	ldr	x1, [sp,#32]
  40a8a8:	97fff936 	bl	408d80 <_ZNSolsEPKv@plt>
  40a8ac:	aa0003e2 	mov	x2, x0
  40a8b0:	f0000060 	adrp	x0, 419000 <_IO_stdin_used+0x8>
  40a8b4:	91014001 	add	x1, x0, #0x50
  40a8b8:	aa0203e0 	mov	x0, x2
  40a8bc:	97fff98d 	bl	408ef0 <_ZStlsISt11char_traitsIcEERSt13basic_ostreamIcT_ES5_PKc@plt>
  40a8c0:	aa0003e2 	mov	x2, x0
  40a8c4:	f9400fe0 	ldr	x0, [sp,#24]
  40a8c8:	f9400000 	ldr	x0, [x0]
  40a8cc:	aa0003e1 	mov	x1, x0
  40a8d0:	aa0203e0 	mov	x0, x2
  40a8d4:	97fffadb 	bl	409440 <_ZNSolsEl@plt>
  40a8d8:	aa0003e2 	mov	x2, x0
  40a8dc:	d0ffffe0 	adrp	x0, 408000 <_init-0x970>
  40a8e0:	912ec001 	add	x1, x0, #0xbb0
  40a8e4:	aa0203e0 	mov	x0, x2
  40a8e8:	97fff996 	bl	408f40 <_ZNSolsEPFRSoS_E@plt>
  40a8ec:	f9400fe1 	ldr	x1, [sp,#24]
  40a8f0:	f9400023 	ldr	x3, [x1]
  40a8f4:	f9400be1 	ldr	x1, [sp,#16]
  40a8f8:	b9400025 	ldr	w5, [x1]
  40a8fc:	f94017e2 	ldr	x2, [sp,#40]
  40a900:	f94013e6 	ldr	x6, [sp,#32]
  40a904:	d2800001 	mov	x1, #0x0                   	// #0
  40a908:	aa0503e4 	mov	x4, x5
  40a90c:	ad8804c0 	stp	q0, q1, [x6,#256]!
  40a910:	ad8804c0 	stp	q0, q1, [x6,#256]!
  40a914:	ad8804c0 	stp	q0, q1, [x6,#256]!
  40a918:	ad8804c0 	stp	q0, q1, [x6,#256]!
  40a91c:	ad8804c0 	stp	q0, q1, [x6,#256]!
  40a920:	ad8804c0 	stp	q0, q1, [x6,#256]!
  40a924:	aa1e03eb 	mov	x11, x30
  40a928:	97fffb57 	bl	409684 <nop_>
  40a92c:	aa0b03fe 	mov	x30, x11
  40a930:	ad8804c0 	stp	q0, q1, [x6,#256]!
  40a934:	adc80440 	ldp	q0, q1, [x2,#256]!
  40a938:	ad8804c0 	stp	q0, q1, [x6,#256]!
  40a93c:	ad8804c0 	stp	q0, q1, [x6,#256]!
  40a940:	ad8804c0 	stp	q0, q1, [x6,#256]!
  40a944:	ad8804c0 	stp	q0, q1, [x6,#256]!
  40a948:	aa1e03eb 	mov	x11, x30
  40a94c:	97fffb4e 	bl	409684 <nop_>
  40a950:	aa0b03fe 	mov	x30, x11
  40a954:	adc80440 	ldp	q0, q1, [x2,#256]!
  40a958:	ad8804c0 	stp	q0, q1, [x6,#256]!
  40a95c:	ad8804c0 	stp	q0, q1, [x6,#256]!
  40a960:	ad8804c0 	stp	q0, q1, [x6,#256]!
  40a964:	ad8804c0 	stp	q0, q1, [x6,#256]!
  40a968:	ad8804c0 	stp	q0, q1, [x6,#256]!
  40a96c:	aa1e03eb 	mov	x11, x30
  40a970:	97fffb45 	bl	409684 <nop_>
  40a974:	aa0b03fe 	mov	x30, x11
  40a978:	ad8804c0 	stp	q0, q1, [x6,#256]!
  40a97c:	ad8804c0 	stp	q0, q1, [x6,#256]!
  40a980:	ad8804c0 	stp	q0, q1, [x6,#256]!
  40a984:	ad8804c0 	stp	q0, q1, [x6,#256]!
  40a988:	ad8804c0 	stp	q0, q1, [x6,#256]!
  40a98c:	ad8804c0 	stp	q0, q1, [x6,#256]!
  40a990:	aa1e03eb 	mov	x11, x30
  40a994:	97fffb3c 	bl	409684 <nop_>
  40a998:	aa0b03fe 	mov	x30, x11
  40a99c:	ad8804c0 	stp	q0, q1, [x6,#256]!
  40a9a0:	adc80440 	ldp	q0, q1, [x2,#256]!
  40a9a4:	ad8804c0 	stp	q0, q1, [x6,#256]!
  40a9a8:	ad8804c0 	stp	q0, q1, [x6,#256]!
  40a9ac:	ad8804c0 	stp	q0, q1, [x6,#256]!
  40a9b0:	ad8804c0 	stp	q0, q1, [x6,#256]!
  40a9b4:	aa1e03eb 	mov	x11, x30
  40a9b8:	97fffb33 	bl	409684 <nop_>
  40a9bc:	aa0b03fe 	mov	x30, x11
  40a9c0:	ad8804c0 	stp	q0, q1, [x6,#256]!
  40a9c4:	ad8804c0 	stp	q0, q1, [x6,#256]!
  40a9c8:	adc80440 	ldp	q0, q1, [x2,#256]!
  40a9cc:	ad8804c0 	stp	q0, q1, [x6,#256]!
  40a9d0:	ad8804c0 	stp	q0, q1, [x6,#256]!
  40a9d4:	ad8804c0 	stp	q0, q1, [x6,#256]!
  40a9d8:	aa1e03eb 	mov	x11, x30
  40a9dc:	97fffb2a 	bl	409684 <nop_>
  40a9e0:	aa0b03fe 	mov	x30, x11
  40a9e4:	ad8804c0 	stp	q0, q1, [x6,#256]!
  40a9e8:	ad8804c0 	stp	q0, q1, [x6,#256]!
  40a9ec:	ad8804c0 	stp	q0, q1, [x6,#256]!
  40a9f0:	adc80440 	ldp	q0, q1, [x2,#256]!
  40a9f4:	ad8804c0 	stp	q0, q1, [x6,#256]!
  40a9f8:	ad8804c0 	stp	q0, q1, [x6,#256]!
  40a9fc:	aa1e03eb 	mov	x11, x30
  40aa00:	97fffb21 	bl	409684 <nop_>
  40aa04:	aa0b03fe 	mov	x30, x11
  40aa08:	ad8804c0 	stp	q0, q1, [x6,#256]!
  40aa0c:	ad8804c0 	stp	q0, q1, [x6,#256]!
  40aa10:	adc80440 	ldp	q0, q1, [x2,#256]!
  40aa14:	ad8804c0 	stp	q0, q1, [x6,#256]!
  40aa18:	ad8804c0 	stp	q0, q1, [x6,#256]!
  40aa1c:	ad8804c0 	stp	q0, q1, [x6,#256]!
  40aa20:	aa1e03eb 	mov	x11, x30
  40aa24:	97fffb18 	bl	409684 <nop_>
  40aa28:	aa0b03fe 	mov	x30, x11
  40aa2c:	ad8804c0 	stp	q0, q1, [x6,#256]!
  40aa30:	ad8804c0 	stp	q0, q1, [x6,#256]!
  40aa34:	ad8804c0 	stp	q0, q1, [x6,#256]!
  40aa38:	ad8804c0 	stp	q0, q1, [x6,#256]!
  40aa3c:	ad8804c0 	stp	q0, q1, [x6,#256]!
  40aa40:	ad8804c0 	stp	q0, q1, [x6,#256]!
  40aa44:	aa1e03eb 	mov	x11, x30
  40aa48:	97fffb0f 	bl	409684 <nop_>
  40aa4c:	aa0b03fe 	mov	x30, x11
  40aa50:	adc80440 	ldp	q0, q1, [x2,#256]!
  40aa54:	ad8804c0 	stp	q0, q1, [x6,#256]!
  40aa58:	ad8804c0 	stp	q0, q1, [x6,#256]!
  40aa5c:	ad8804c0 	stp	q0, q1, [x6,#256]!
  40aa60:	ad8804c0 	stp	q0, q1, [x6,#256]!
  40aa64:	ad8804c0 	stp	q0, q1, [x6,#256]!
  40aa68:	aa1e03eb 	mov	x11, x30
  40aa6c:	97fffb06 	bl	409684 <nop_>
  40aa70:	aa0b03fe 	mov	x30, x11
  40aa74:	ad8804c0 	stp	q0, q1, [x6,#256]!
  40aa78:	ad8804c0 	stp	q0, q1, [x6,#256]!
  40aa7c:	ad8804c0 	stp	q0, q1, [x6,#256]!
  40aa80:	ad8804c0 	stp	q0, q1, [x6,#256]!
  40aa84:	ad8804c0 	stp	q0, q1, [x6,#256]!
  40aa88:	ad8804c0 	stp	q0, q1, [x6,#256]!
  40aa8c:	aa1e03eb 	mov	x11, x30
  40aa90:	97fffafd 	bl	409684 <nop_>
  40aa94:	aa0b03fe 	mov	x30, x11
  40aa98:	ad8804c0 	stp	q0, q1, [x6,#256]!
  40aa9c:	adc80440 	ldp	q0, q1, [x2,#256]!
  40aaa0:	ad8804c0 	stp	q0, q1, [x6,#256]!
  40aaa4:	ad8804c0 	stp	q0, q1, [x6,#256]!
  40aaa8:	ad8804c0 	stp	q0, q1, [x6,#256]!
  40aaac:	ad8804c0 	stp	q0, q1, [x6,#256]!
  40aab0:	aa1e03eb 	mov	x11, x30
  40aab4:	97fffaf4 	bl	409684 <nop_>
  40aab8:	aa0b03fe 	mov	x30, x11
  40aabc:	ad8804c0 	stp	q0, q1, [x6,#256]!
  40aac0:	adc80440 	ldp	q0, q1, [x2,#256]!
  40aac4:	ad8804c0 	stp	q0, q1, [x6,#256]!
  40aac8:	ad8804c0 	stp	q0, q1, [x6,#256]!
  40aacc:	ad8804c0 	stp	q0, q1, [x6,#256]!
  40aad0:	ad8804c0 	stp	q0, q1, [x6,#256]!
  40aad4:	aa1e03eb 	mov	x11, x30
  40aad8:	97fffaeb 	bl	409684 <nop_>
  40aadc:	aa0b03fe 	mov	x30, x11
  40aae0:	ad8804c0 	stp	q0, q1, [x6,#256]!
  40aae4:	adc80440 	ldp	q0, q1, [x2,#256]!
  40aae8:	ad8804c0 	stp	q0, q1, [x6,#256]!
  40aaec:	ad8804c0 	stp	q0, q1, [x6,#256]!
  40aaf0:	ad8804c0 	stp	q0, q1, [x6,#256]!
  40aaf4:	ad8804c0 	stp	q0, q1, [x6,#256]!
  40aaf8:	aa1e03eb 	mov	x11, x30
  40aafc:	97fffae2 	bl	409684 <nop_>
  40ab00:	aa0b03fe 	mov	x30, x11
  40ab04:	ad8804c0 	stp	q0, q1, [x6,#256]!
  40ab08:	ad8804c0 	stp	q0, q1, [x6,#256]!
  40ab0c:	ad8804c0 	stp	q0, q1, [x6,#256]!
  40ab10:	ad8804c0 	stp	q0, q1, [x6,#256]!
  40ab14:	adc80440 	ldp	q0, q1, [x2,#256]!
  40ab18:	ad8804c0 	stp	q0, q1, [x6,#256]!
  40ab1c:	aa1e03eb 	mov	x11, x30
  40ab20:	97fffad9 	bl	409684 <nop_>
  40ab24:	aa0b03fe 	mov	x30, x11
  40ab28:	adc80440 	ldp	q0, q1, [x2,#256]!
  40ab2c:	ad8804c0 	stp	q0, q1, [x6,#256]!
  40ab30:	ad8804c0 	stp	q0, q1, [x6,#256]!
  40ab34:	ad8804c0 	stp	q0, q1, [x6,#256]!
  40ab38:	ad8804c0 	stp	q0, q1, [x6,#256]!
  40ab3c:	ad8804c0 	stp	q0, q1, [x6,#256]!
  40ab40:	aa1e03eb 	mov	x11, x30
  40ab44:	97fffad0 	bl	409684 <nop_>
  40ab48:	aa0b03fe 	mov	x30, x11
  40ab4c:	ad8804c0 	stp	q0, q1, [x6,#256]!
  40ab50:	ad8804c0 	stp	q0, q1, [x6,#256]!
  40ab54:	ad8804c0 	stp	q0, q1, [x6,#256]!
  40ab58:	ad8804c0 	stp	q0, q1, [x6,#256]!
  40ab5c:	aa1e03eb 	mov	x11, x30
  40ab60:	97fffac9 	bl	409684 <nop_>
  40ab64:	aa0b03fe 	mov	x30, x11
  40ab68:	91320021 	add	x1, x1, #0xc80
  40ab6c:	eb03003f 	cmp	x1, x3
  40ab70:	540481cd 	b.le	413ba8 <_Z15STREAM_copy_100PdS_PlPKi+0xe0>
  40ab74:	d503201f 	nop
  40ab78:	a8c37bfd 	ldp	x29, x30, [sp],#48
  40ab7c:	d65f03c0 	ret

000000000040ab80 <_Z14STREAM_copy_14PdS_PlPKi>:
  40ab80:	a9bd7bfd 	stp	x29, x30, [sp,#-48]!
  40ab84:	910003fd 	mov	x29, sp
  40ab88:	f90017e0 	str	x0, [sp,#40]
  40ab8c:	f90013e1 	str	x1, [sp,#32]
  40ab90:	f9000fe2 	str	x2, [sp,#24]
  40ab94:	f9000be3 	str	x3, [sp,#16]
  40ab98:	d2800000 	mov	x0, #0x0                   	// #0
  40ab9c:	f0000060 	adrp	x0, 419000 <_IO_stdin_used+0x8>
  40aba0:	91008001 	add	x1, x0, #0x20
  40aba4:	90000120 	adrp	x0, 42e000 <_Znam@GLIBCXX_3.4>
  40aba8:	91286000 	add	x0, x0, #0xa18
  40abac:	97fff8d1 	bl	408ef0 <_ZStlsISt11char_traitsIcEERSt13basic_ostreamIcT_ES5_PKc@plt>
  40abb0:	aa0003e2 	mov	x2, x0
  40abb4:	f9400be0 	ldr	x0, [sp,#16]
  40abb8:	b9400000 	ldr	w0, [x0]
  40abbc:	2a0003e1 	mov	w1, w0
  40abc0:	aa0203e0 	mov	x0, x2
  40abc4:	97fff9ff 	bl	4093c0 <_ZNSolsEi@plt>
  40abc8:	aa0003e2 	mov	x2, x0
  40abcc:	f0000060 	adrp	x0, 419000 <_IO_stdin_used+0x8>
  40abd0:	9100c001 	add	x1, x0, #0x30
  40abd4:	aa0203e0 	mov	x0, x2
  40abd8:	97fff8c6 	bl	408ef0 <_ZStlsISt11char_traitsIcEERSt13basic_ostreamIcT_ES5_PKc@plt>
  40abdc:	f94017e1 	ldr	x1, [sp,#40]
  40abe0:	97fff868 	bl	408d80 <_ZNSolsEPKv@plt>
  40abe4:	aa0003e2 	mov	x2, x0
  40abe8:	f0000060 	adrp	x0, 419000 <_IO_stdin_used+0x8>
  40abec:	91010001 	add	x1, x0, #0x40
  40abf0:	aa0203e0 	mov	x0, x2
  40abf4:	97fff8bf 	bl	408ef0 <_ZStlsISt11char_traitsIcEERSt13basic_ostreamIcT_ES5_PKc@plt>
  40abf8:	f94013e1 	ldr	x1, [sp,#32]
  40abfc:	97fff861 	bl	408d80 <_ZNSolsEPKv@plt>
  40ac00:	aa0003e2 	mov	x2, x0
  40ac04:	f0000060 	adrp	x0, 419000 <_IO_stdin_used+0x8>
  40ac08:	91014001 	add	x1, x0, #0x50
  40ac0c:	aa0203e0 	mov	x0, x2
  40ac10:	97fff8b8 	bl	408ef0 <_ZStlsISt11char_traitsIcEERSt13basic_ostreamIcT_ES5_PKc@plt>
  40ac14:	aa0003e2 	mov	x2, x0
  40ac18:	f9400fe0 	ldr	x0, [sp,#24]
  40ac1c:	f9400000 	ldr	x0, [x0]
  40ac20:	aa0003e1 	mov	x1, x0
  40ac24:	aa0203e0 	mov	x0, x2
  40ac28:	97fffa06 	bl	409440 <_ZNSolsEl@plt>
  40ac2c:	aa0003e2 	mov	x2, x0
  40ac30:	d0ffffe0 	adrp	x0, 408000 <_init-0x970>
  40ac34:	912ec001 	add	x1, x0, #0xbb0
  40ac38:	aa0203e0 	mov	x0, x2
  40ac3c:	97fff8c1 	bl	408f40 <_ZNSolsEPFRSoS_E@plt>
  40ac40:	f9400fe1 	ldr	x1, [sp,#24]
  40ac44:	f9400023 	ldr	x3, [x1]
  40ac48:	f9400be1 	ldr	x1, [sp,#16]
  40ac4c:	b9400025 	ldr	w5, [x1]
  40ac50:	f94017e2 	ldr	x2, [sp,#40]
  40ac54:	f94013e6 	ldr	x6, [sp,#32]
  40ac58:	d2800001 	mov	x1, #0x0                   	// #0
  40ac5c:	aa0503e4 	mov	x4, x5
  40ac60:	ad8804c0 	stp	q0, q1, [x6,#256]!
  40ac64:	ad8804c0 	stp	q0, q1, [x6,#256]!
  40ac68:	ad8804c0 	stp	q0, q1, [x6,#256]!
  40ac6c:	ad8804c0 	stp	q0, q1, [x6,#256]!
  40ac70:	ad8804c0 	stp	q0, q1, [x6,#256]!
  40ac74:	ad8804c0 	stp	q0, q1, [x6,#256]!
  40ac78:	aa1e03eb 	mov	x11, x30
  40ac7c:	97fffa82 	bl	409684 <nop_>
  40ac80:	aa0b03fe 	mov	x30, x11
  40ac84:	ad8804c0 	stp	q0, q1, [x6,#256]!
  40ac88:	adc80440 	ldp	q0, q1, [x2,#256]!
  40ac8c:	ad8804c0 	stp	q0, q1, [x6,#256]!
  40ac90:	ad8804c0 	stp	q0, q1, [x6,#256]!
  40ac94:	ad8804c0 	stp	q0, q1, [x6,#256]!
  40ac98:	ad8804c0 	stp	q0, q1, [x6,#256]!
  40ac9c:	aa1e03eb 	mov	x11, x30
  40aca0:	97fffa79 	bl	409684 <nop_>
  40aca4:	aa0b03fe 	mov	x30, x11
  40aca8:	adc80440 	ldp	q0, q1, [x2,#256]!
  40acac:	ad8804c0 	stp	q0, q1, [x6,#256]!
  40acb0:	ad8804c0 	stp	q0, q1, [x6,#256]!
  40acb4:	ad8804c0 	stp	q0, q1, [x6,#256]!
  40acb8:	ad8804c0 	stp	q0, q1, [x6,#256]!
  40acbc:	ad8804c0 	stp	q0, q1, [x6,#256]!
  40acc0:	aa1e03eb 	mov	x11, x30
  40acc4:	97fffa70 	bl	409684 <nop_>
  40acc8:	aa0b03fe 	mov	x30, x11
  40accc:	ad8804c0 	stp	q0, q1, [x6,#256]!
  40acd0:	adc80440 	ldp	q0, q1, [x2,#256]!
  40acd4:	ad8804c0 	stp	q0, q1, [x6,#256]!
  40acd8:	ad8804c0 	stp	q0, q1, [x6,#256]!
  40acdc:	ad8804c0 	stp	q0, q1, [x6,#256]!
  40ace0:	ad8804c0 	stp	q0, q1, [x6,#256]!
  40ace4:	aa1e03eb 	mov	x11, x30
  40ace8:	97fffa67 	bl	409684 <nop_>
  40acec:	aa0b03fe 	mov	x30, x11
  40acf0:	ad8804c0 	stp	q0, q1, [x6,#256]!
  40acf4:	adc80440 	ldp	q0, q1, [x2,#256]!
  40acf8:	ad8804c0 	stp	q0, q1, [x6,#256]!
  40acfc:	ad8804c0 	stp	q0, q1, [x6,#256]!
  40ad00:	ad8804c0 	stp	q0, q1, [x6,#256]!
  40ad04:	ad8804c0 	stp	q0, q1, [x6,#256]!
  40ad08:	aa1e03eb 	mov	x11, x30
  40ad0c:	97fffa5e 	bl	409684 <nop_>
  40ad10:	aa0b03fe 	mov	x30, x11
  40ad14:	ad8804c0 	stp	q0, q1, [x6,#256]!
  40ad18:	ad8804c0 	stp	q0, q1, [x6,#256]!
  40ad1c:	adc80440 	ldp	q0, q1, [x2,#256]!
  40ad20:	ad8804c0 	stp	q0, q1, [x6,#256]!
  40ad24:	ad8804c0 	stp	q0, q1, [x6,#256]!
  40ad28:	ad8804c0 	stp	q0, q1, [x6,#256]!
  40ad2c:	aa1e03eb 	mov	x11, x30
  40ad30:	97fffa55 	bl	409684 <nop_>
  40ad34:	aa0b03fe 	mov	x30, x11
  40ad38:	ad8804c0 	stp	q0, q1, [x6,#256]!
  40ad3c:	ad8804c0 	stp	q0, q1, [x6,#256]!
  40ad40:	ad8804c0 	stp	q0, q1, [x6,#256]!
  40ad44:	adc80440 	ldp	q0, q1, [x2,#256]!
  40ad48:	ad8804c0 	stp	q0, q1, [x6,#256]!
  40ad4c:	ad8804c0 	stp	q0, q1, [x6,#256]!
  40ad50:	aa1e03eb 	mov	x11, x30
  40ad54:	97fffa4c 	bl	409684 <nop_>
  40ad58:	aa0b03fe 	mov	x30, x11
  40ad5c:	ad8804c0 	stp	q0, q1, [x6,#256]!
  40ad60:	ad8804c0 	stp	q0, q1, [x6,#256]!
  40ad64:	adc80440 	ldp	q0, q1, [x2,#256]!
  40ad68:	ad8804c0 	stp	q0, q1, [x6,#256]!
  40ad6c:	ad8804c0 	stp	q0, q1, [x6,#256]!
  40ad70:	ad8804c0 	stp	q0, q1, [x6,#256]!
  40ad74:	aa1e03eb 	mov	x11, x30
  40ad78:	97fffa43 	bl	409684 <nop_>
  40ad7c:	aa0b03fe 	mov	x30, x11
  40ad80:	ad8804c0 	stp	q0, q1, [x6,#256]!
  40ad84:	ad8804c0 	stp	q0, q1, [x6,#256]!
  40ad88:	ad8804c0 	stp	q0, q1, [x6,#256]!
  40ad8c:	ad8804c0 	stp	q0, q1, [x6,#256]!
  40ad90:	ad8804c0 	stp	q0, q1, [x6,#256]!
  40ad94:	ad8804c0 	stp	q0, q1, [x6,#256]!
  40ad98:	aa1e03eb 	mov	x11, x30
  40ad9c:	97fffa3a 	bl	409684 <nop_>
  40ada0:	aa0b03fe 	mov	x30, x11
  40ada4:	adc80440 	ldp	q0, q1, [x2,#256]!
  40ada8:	ad8804c0 	stp	q0, q1, [x6,#256]!
  40adac:	ad8804c0 	stp	q0, q1, [x6,#256]!
  40adb0:	ad8804c0 	stp	q0, q1, [x6,#256]!
  40adb4:	ad8804c0 	stp	q0, q1, [x6,#256]!
  40adb8:	ad8804c0 	stp	q0, q1, [x6,#256]!
  40adbc:	aa1e03eb 	mov	x11, x30
  40adc0:	97fffa31 	bl	409684 <nop_>
  40adc4:	aa0b03fe 	mov	x30, x11
  40adc8:	ad8804c0 	stp	q0, q1, [x6,#256]!
  40adcc:	adc80440 	ldp	q0, q1, [x2,#256]!
  40add0:	ad8804c0 	stp	q0, q1, [x6,#256]!
  40add4:	ad8804c0 	stp	q0, q1, [x6,#256]!
  40add8:	ad8804c0 	stp	q0, q1, [x6,#256]!
  40addc:	ad8804c0 	stp	q0, q1, [x6,#256]!
  40ade0:	aa1e03eb 	mov	x11, x30
  40ade4:	97fffa28 	bl	409684 <nop_>
  40ade8:	aa0b03fe 	mov	x30, x11
  40adec:	ad8804c0 	stp	q0, q1, [x6,#256]!
  40adf0:	adc80440 	ldp	q0, q1, [x2,#256]!
  40adf4:	ad8804c0 	stp	q0, q1, [x6,#256]!
  40adf8:	ad8804c0 	stp	q0, q1, [x6,#256]!
  40adfc:	ad8804c0 	stp	q0, q1, [x6,#256]!
  40ae00:	ad8804c0 	stp	q0, q1, [x6,#256]!
  40ae04:	aa1e03eb 	mov	x11, x30
  40ae08:	97fffa1f 	bl	409684 <nop_>
  40ae0c:	aa0b03fe 	mov	x30, x11
  40ae10:	ad8804c0 	stp	q0, q1, [x6,#256]!
  40ae14:	adc80440 	ldp	q0, q1, [x2,#256]!
  40ae18:	ad8804c0 	stp	q0, q1, [x6,#256]!
  40ae1c:	ad8804c0 	stp	q0, q1, [x6,#256]!
  40ae20:	ad8804c0 	stp	q0, q1, [x6,#256]!
  40ae24:	ad8804c0 	stp	q0, q1, [x6,#256]!
  40ae28:	aa1e03eb 	mov	x11, x30
  40ae2c:	97fffa16 	bl	409684 <nop_>
  40ae30:	aa0b03fe 	mov	x30, x11
  40ae34:	ad8804c0 	stp	q0, q1, [x6,#256]!
  40ae38:	adc80440 	ldp	q0, q1, [x2,#256]!
  40ae3c:	ad8804c0 	stp	q0, q1, [x6,#256]!
  40ae40:	ad8804c0 	stp	q0, q1, [x6,#256]!
  40ae44:	ad8804c0 	stp	q0, q1, [x6,#256]!
  40ae48:	ad8804c0 	stp	q0, q1, [x6,#256]!
  40ae4c:	aa1e03eb 	mov	x11, x30
  40ae50:	97fffa0d 	bl	409684 <nop_>
  40ae54:	aa0b03fe 	mov	x30, x11
  40ae58:	ad8804c0 	stp	q0, q1, [x6,#256]!
  40ae5c:	ad8804c0 	stp	q0, q1, [x6,#256]!
  40ae60:	ad8804c0 	stp	q0, q1, [x6,#256]!
  40ae64:	ad8804c0 	stp	q0, q1, [x6,#256]!
  40ae68:	adc80440 	ldp	q0, q1, [x2,#256]!
  40ae6c:	ad8804c0 	stp	q0, q1, [x6,#256]!
  40ae70:	aa1e03eb 	mov	x11, x30
  40ae74:	97fffa04 	bl	409684 <nop_>
  40ae78:	aa0b03fe 	mov	x30, x11
  40ae7c:	adc80440 	ldp	q0, q1, [x2,#256]!
  40ae80:	ad8804c0 	stp	q0, q1, [x6,#256]!
  40ae84:	ad8804c0 	stp	q0, q1, [x6,#256]!
  40ae88:	ad8804c0 	stp	q0, q1, [x6,#256]!
  40ae8c:	ad8804c0 	stp	q0, q1, [x6,#256]!
  40ae90:	ad8804c0 	stp	q0, q1, [x6,#256]!
  40ae94:	aa1e03eb 	mov	x11, x30
  40ae98:	97fff9fb 	bl	409684 <nop_>
  40ae9c:	aa0b03fe 	mov	x30, x11
  40aea0:	ad8804c0 	stp	q0, q1, [x6,#256]!
  40aea4:	ad8804c0 	stp	q0, q1, [x6,#256]!
  40aea8:	ad8804c0 	stp	q0, q1, [x6,#256]!
  40aeac:	ad8804c0 	stp	q0, q1, [x6,#256]!
  40aeb0:	aa1e03eb 	mov	x11, x30
  40aeb4:	97fff9f4 	bl	409684 <nop_>
  40aeb8:	aa0b03fe 	mov	x30, x11
  40aebc:	91320021 	add	x1, x1, #0xc80
  40aec0:	eb03003f 	cmp	x1, x3
  40aec4:	5404672d 	b.le	413ba8 <_Z15STREAM_copy_100PdS_PlPKi+0xe0>
  40aec8:	d503201f 	nop
  40aecc:	a8c37bfd 	ldp	x29, x30, [sp],#48
  40aed0:	d65f03c0 	ret

000000000040aed4 <_Z14STREAM_copy_16PdS_PlPKi>:
  40aed4:	a9bd7bfd 	stp	x29, x30, [sp,#-48]!
  40aed8:	910003fd 	mov	x29, sp
  40aedc:	f90017e0 	str	x0, [sp,#40]
  40aee0:	f90013e1 	str	x1, [sp,#32]
  40aee4:	f9000fe2 	str	x2, [sp,#24]
  40aee8:	f9000be3 	str	x3, [sp,#16]
  40aeec:	d2800000 	mov	x0, #0x0                   	// #0
  40aef0:	f0000060 	adrp	x0, 419000 <_IO_stdin_used+0x8>
  40aef4:	91008001 	add	x1, x0, #0x20
  40aef8:	90000120 	adrp	x0, 42e000 <_Znam@GLIBCXX_3.4>
  40aefc:	91286000 	add	x0, x0, #0xa18
  40af00:	97fff7fc 	bl	408ef0 <_ZStlsISt11char_traitsIcEERSt13basic_ostreamIcT_ES5_PKc@plt>
  40af04:	aa0003e2 	mov	x2, x0
  40af08:	f9400be0 	ldr	x0, [sp,#16]
  40af0c:	b9400000 	ldr	w0, [x0]
  40af10:	2a0003e1 	mov	w1, w0
  40af14:	aa0203e0 	mov	x0, x2
  40af18:	97fff92a 	bl	4093c0 <_ZNSolsEi@plt>
  40af1c:	aa0003e2 	mov	x2, x0
  40af20:	f0000060 	adrp	x0, 419000 <_IO_stdin_used+0x8>
  40af24:	9100c001 	add	x1, x0, #0x30
  40af28:	aa0203e0 	mov	x0, x2
  40af2c:	97fff7f1 	bl	408ef0 <_ZStlsISt11char_traitsIcEERSt13basic_ostreamIcT_ES5_PKc@plt>
  40af30:	f94017e1 	ldr	x1, [sp,#40]
  40af34:	97fff793 	bl	408d80 <_ZNSolsEPKv@plt>
  40af38:	aa0003e2 	mov	x2, x0
  40af3c:	f0000060 	adrp	x0, 419000 <_IO_stdin_used+0x8>
  40af40:	91010001 	add	x1, x0, #0x40
  40af44:	aa0203e0 	mov	x0, x2
  40af48:	97fff7ea 	bl	408ef0 <_ZStlsISt11char_traitsIcEERSt13basic_ostreamIcT_ES5_PKc@plt>
  40af4c:	f94013e1 	ldr	x1, [sp,#32]
  40af50:	97fff78c 	bl	408d80 <_ZNSolsEPKv@plt>
  40af54:	aa0003e2 	mov	x2, x0
  40af58:	f0000060 	adrp	x0, 419000 <_IO_stdin_used+0x8>
  40af5c:	91014001 	add	x1, x0, #0x50
  40af60:	aa0203e0 	mov	x0, x2
  40af64:	97fff7e3 	bl	408ef0 <_ZStlsISt11char_traitsIcEERSt13basic_ostreamIcT_ES5_PKc@plt>
  40af68:	aa0003e2 	mov	x2, x0
  40af6c:	f9400fe0 	ldr	x0, [sp,#24]
  40af70:	f9400000 	ldr	x0, [x0]
  40af74:	aa0003e1 	mov	x1, x0
  40af78:	aa0203e0 	mov	x0, x2
  40af7c:	97fff931 	bl	409440 <_ZNSolsEl@plt>
  40af80:	aa0003e2 	mov	x2, x0
  40af84:	d0ffffe0 	adrp	x0, 408000 <_init-0x970>
  40af88:	912ec001 	add	x1, x0, #0xbb0
  40af8c:	aa0203e0 	mov	x0, x2
  40af90:	97fff7ec 	bl	408f40 <_ZNSolsEPFRSoS_E@plt>
  40af94:	f9400fe1 	ldr	x1, [sp,#24]
  40af98:	f9400023 	ldr	x3, [x1]
  40af9c:	f9400be1 	ldr	x1, [sp,#16]
  40afa0:	b9400025 	ldr	w5, [x1]
  40afa4:	f94017e2 	ldr	x2, [sp,#40]
  40afa8:	f94013e6 	ldr	x6, [sp,#32]
  40afac:	d2800001 	mov	x1, #0x0                   	// #0
  40afb0:	aa0503e4 	mov	x4, x5
  40afb4:	ad8804c0 	stp	q0, q1, [x6,#256]!
  40afb8:	ad8804c0 	stp	q0, q1, [x6,#256]!
  40afbc:	adc80440 	ldp	q0, q1, [x2,#256]!
  40afc0:	ad8804c0 	stp	q0, q1, [x6,#256]!
  40afc4:	ad8804c0 	stp	q0, q1, [x6,#256]!
  40afc8:	ad8804c0 	stp	q0, q1, [x6,#256]!
  40afcc:	aa1e03eb 	mov	x11, x30
  40afd0:	97fff9ad 	bl	409684 <nop_>
  40afd4:	aa0b03fe 	mov	x30, x11
  40afd8:	ad8804c0 	stp	q0, q1, [x6,#256]!
  40afdc:	adc80440 	ldp	q0, q1, [x2,#256]!
  40afe0:	ad8804c0 	stp	q0, q1, [x6,#256]!
  40afe4:	ad8804c0 	stp	q0, q1, [x6,#256]!
  40afe8:	ad8804c0 	stp	q0, q1, [x6,#256]!
  40afec:	ad8804c0 	stp	q0, q1, [x6,#256]!
  40aff0:	aa1e03eb 	mov	x11, x30
  40aff4:	97fff9a4 	bl	409684 <nop_>
  40aff8:	aa0b03fe 	mov	x30, x11
  40affc:	adc80440 	ldp	q0, q1, [x2,#256]!
  40b000:	ad8804c0 	stp	q0, q1, [x6,#256]!
  40b004:	ad8804c0 	stp	q0, q1, [x6,#256]!
  40b008:	ad8804c0 	stp	q0, q1, [x6,#256]!
  40b00c:	ad8804c0 	stp	q0, q1, [x6,#256]!
  40b010:	ad8804c0 	stp	q0, q1, [x6,#256]!
  40b014:	aa1e03eb 	mov	x11, x30
  40b018:	97fff99b 	bl	409684 <nop_>
  40b01c:	aa0b03fe 	mov	x30, x11
  40b020:	ad8804c0 	stp	q0, q1, [x6,#256]!
  40b024:	adc80440 	ldp	q0, q1, [x2,#256]!
  40b028:	ad8804c0 	stp	q0, q1, [x6,#256]!
  40b02c:	ad8804c0 	stp	q0, q1, [x6,#256]!
  40b030:	ad8804c0 	stp	q0, q1, [x6,#256]!
  40b034:	ad8804c0 	stp	q0, q1, [x6,#256]!
  40b038:	aa1e03eb 	mov	x11, x30
  40b03c:	97fff992 	bl	409684 <nop_>
  40b040:	aa0b03fe 	mov	x30, x11
  40b044:	ad8804c0 	stp	q0, q1, [x6,#256]!
  40b048:	adc80440 	ldp	q0, q1, [x2,#256]!
  40b04c:	ad8804c0 	stp	q0, q1, [x6,#256]!
  40b050:	ad8804c0 	stp	q0, q1, [x6,#256]!
  40b054:	ad8804c0 	stp	q0, q1, [x6,#256]!
  40b058:	ad8804c0 	stp	q0, q1, [x6,#256]!
  40b05c:	aa1e03eb 	mov	x11, x30
  40b060:	97fff989 	bl	409684 <nop_>
  40b064:	aa0b03fe 	mov	x30, x11
  40b068:	ad8804c0 	stp	q0, q1, [x6,#256]!
  40b06c:	ad8804c0 	stp	q0, q1, [x6,#256]!
  40b070:	adc80440 	ldp	q0, q1, [x2,#256]!
  40b074:	ad8804c0 	stp	q0, q1, [x6,#256]!
  40b078:	ad8804c0 	stp	q0, q1, [x6,#256]!
  40b07c:	ad8804c0 	stp	q0, q1, [x6,#256]!
  40b080:	aa1e03eb 	mov	x11, x30
  40b084:	97fff980 	bl	409684 <nop_>
  40b088:	aa0b03fe 	mov	x30, x11
  40b08c:	ad8804c0 	stp	q0, q1, [x6,#256]!
  40b090:	ad8804c0 	stp	q0, q1, [x6,#256]!
  40b094:	ad8804c0 	stp	q0, q1, [x6,#256]!
  40b098:	adc80440 	ldp	q0, q1, [x2,#256]!
  40b09c:	ad8804c0 	stp	q0, q1, [x6,#256]!
  40b0a0:	ad8804c0 	stp	q0, q1, [x6,#256]!
  40b0a4:	aa1e03eb 	mov	x11, x30
  40b0a8:	97fff977 	bl	409684 <nop_>
  40b0ac:	aa0b03fe 	mov	x30, x11
  40b0b0:	ad8804c0 	stp	q0, q1, [x6,#256]!
  40b0b4:	ad8804c0 	stp	q0, q1, [x6,#256]!
  40b0b8:	adc80440 	ldp	q0, q1, [x2,#256]!
  40b0bc:	ad8804c0 	stp	q0, q1, [x6,#256]!
  40b0c0:	ad8804c0 	stp	q0, q1, [x6,#256]!
  40b0c4:	ad8804c0 	stp	q0, q1, [x6,#256]!
  40b0c8:	aa1e03eb 	mov	x11, x30
  40b0cc:	97fff96e 	bl	409684 <nop_>
  40b0d0:	aa0b03fe 	mov	x30, x11
  40b0d4:	adc80440 	ldp	q0, q1, [x2,#256]!
  40b0d8:	ad8804c0 	stp	q0, q1, [x6,#256]!
  40b0dc:	ad8804c0 	stp	q0, q1, [x6,#256]!
  40b0e0:	ad8804c0 	stp	q0, q1, [x6,#256]!
  40b0e4:	ad8804c0 	stp	q0, q1, [x6,#256]!
  40b0e8:	ad8804c0 	stp	q0, q1, [x6,#256]!
  40b0ec:	aa1e03eb 	mov	x11, x30
  40b0f0:	97fff965 	bl	409684 <nop_>
  40b0f4:	aa0b03fe 	mov	x30, x11
  40b0f8:	adc80440 	ldp	q0, q1, [x2,#256]!
  40b0fc:	ad8804c0 	stp	q0, q1, [x6,#256]!
  40b100:	ad8804c0 	stp	q0, q1, [x6,#256]!
  40b104:	ad8804c0 	stp	q0, q1, [x6,#256]!
  40b108:	ad8804c0 	stp	q0, q1, [x6,#256]!
  40b10c:	ad8804c0 	stp	q0, q1, [x6,#256]!
  40b110:	aa1e03eb 	mov	x11, x30
  40b114:	97fff95c 	bl	409684 <nop_>
  40b118:	aa0b03fe 	mov	x30, x11
  40b11c:	ad8804c0 	stp	q0, q1, [x6,#256]!
  40b120:	adc80440 	ldp	q0, q1, [x2,#256]!
  40b124:	ad8804c0 	stp	q0, q1, [x6,#256]!
  40b128:	ad8804c0 	stp	q0, q1, [x6,#256]!
  40b12c:	ad8804c0 	stp	q0, q1, [x6,#256]!
  40b130:	ad8804c0 	stp	q0, q1, [x6,#256]!
  40b134:	aa1e03eb 	mov	x11, x30
  40b138:	97fff953 	bl	409684 <nop_>
  40b13c:	aa0b03fe 	mov	x30, x11
  40b140:	ad8804c0 	stp	q0, q1, [x6,#256]!
  40b144:	adc80440 	ldp	q0, q1, [x2,#256]!
  40b148:	ad8804c0 	stp	q0, q1, [x6,#256]!
  40b14c:	ad8804c0 	stp	q0, q1, [x6,#256]!
  40b150:	ad8804c0 	stp	q0, q1, [x6,#256]!
  40b154:	ad8804c0 	stp	q0, q1, [x6,#256]!
  40b158:	aa1e03eb 	mov	x11, x30
  40b15c:	97fff94a 	bl	409684 <nop_>
  40b160:	aa0b03fe 	mov	x30, x11
  40b164:	ad8804c0 	stp	q0, q1, [x6,#256]!
  40b168:	adc80440 	ldp	q0, q1, [x2,#256]!
  40b16c:	ad8804c0 	stp	q0, q1, [x6,#256]!
  40b170:	ad8804c0 	stp	q0, q1, [x6,#256]!
  40b174:	ad8804c0 	stp	q0, q1, [x6,#256]!
  40b178:	ad8804c0 	stp	q0, q1, [x6,#256]!
  40b17c:	aa1e03eb 	mov	x11, x30
  40b180:	97fff941 	bl	409684 <nop_>
  40b184:	aa0b03fe 	mov	x30, x11
  40b188:	ad8804c0 	stp	q0, q1, [x6,#256]!
  40b18c:	adc80440 	ldp	q0, q1, [x2,#256]!
  40b190:	ad8804c0 	stp	q0, q1, [x6,#256]!
  40b194:	ad8804c0 	stp	q0, q1, [x6,#256]!
  40b198:	ad8804c0 	stp	q0, q1, [x6,#256]!
  40b19c:	ad8804c0 	stp	q0, q1, [x6,#256]!
  40b1a0:	aa1e03eb 	mov	x11, x30
  40b1a4:	97fff938 	bl	409684 <nop_>
  40b1a8:	aa0b03fe 	mov	x30, x11
  40b1ac:	ad8804c0 	stp	q0, q1, [x6,#256]!
  40b1b0:	ad8804c0 	stp	q0, q1, [x6,#256]!
  40b1b4:	ad8804c0 	stp	q0, q1, [x6,#256]!
  40b1b8:	ad8804c0 	stp	q0, q1, [x6,#256]!
  40b1bc:	adc80440 	ldp	q0, q1, [x2,#256]!
  40b1c0:	ad8804c0 	stp	q0, q1, [x6,#256]!
  40b1c4:	aa1e03eb 	mov	x11, x30
  40b1c8:	97fff92f 	bl	409684 <nop_>
  40b1cc:	aa0b03fe 	mov	x30, x11
  40b1d0:	adc80440 	ldp	q0, q1, [x2,#256]!
  40b1d4:	ad8804c0 	stp	q0, q1, [x6,#256]!
  40b1d8:	ad8804c0 	stp	q0, q1, [x6,#256]!
  40b1dc:	ad8804c0 	stp	q0, q1, [x6,#256]!
  40b1e0:	ad8804c0 	stp	q0, q1, [x6,#256]!
  40b1e4:	ad8804c0 	stp	q0, q1, [x6,#256]!
  40b1e8:	aa1e03eb 	mov	x11, x30
  40b1ec:	97fff926 	bl	409684 <nop_>
  40b1f0:	aa0b03fe 	mov	x30, x11
  40b1f4:	ad8804c0 	stp	q0, q1, [x6,#256]!
  40b1f8:	ad8804c0 	stp	q0, q1, [x6,#256]!
  40b1fc:	ad8804c0 	stp	q0, q1, [x6,#256]!
  40b200:	ad8804c0 	stp	q0, q1, [x6,#256]!
  40b204:	aa1e03eb 	mov	x11, x30
  40b208:	97fff91f 	bl	409684 <nop_>
  40b20c:	aa0b03fe 	mov	x30, x11
  40b210:	91320021 	add	x1, x1, #0xc80
  40b214:	eb03003f 	cmp	x1, x3
  40b218:	54044c8d 	b.le	413ba8 <_Z15STREAM_copy_100PdS_PlPKi+0xe0>
  40b21c:	d503201f 	nop
  40b220:	a8c37bfd 	ldp	x29, x30, [sp],#48
  40b224:	d65f03c0 	ret

000000000040b228 <_Z14STREAM_copy_18PdS_PlPKi>:
  40b228:	a9bd7bfd 	stp	x29, x30, [sp,#-48]!
  40b22c:	910003fd 	mov	x29, sp
  40b230:	f90017e0 	str	x0, [sp,#40]
  40b234:	f90013e1 	str	x1, [sp,#32]
  40b238:	f9000fe2 	str	x2, [sp,#24]
  40b23c:	f9000be3 	str	x3, [sp,#16]
  40b240:	d2800000 	mov	x0, #0x0                   	// #0
  40b244:	d0000060 	adrp	x0, 419000 <_IO_stdin_used+0x8>
  40b248:	91008001 	add	x1, x0, #0x20
  40b24c:	f0000100 	adrp	x0, 42e000 <_Znam@GLIBCXX_3.4>
  40b250:	91286000 	add	x0, x0, #0xa18
  40b254:	97fff727 	bl	408ef0 <_ZStlsISt11char_traitsIcEERSt13basic_ostreamIcT_ES5_PKc@plt>
  40b258:	aa0003e2 	mov	x2, x0
  40b25c:	f9400be0 	ldr	x0, [sp,#16]
  40b260:	b9400000 	ldr	w0, [x0]
  40b264:	2a0003e1 	mov	w1, w0
  40b268:	aa0203e0 	mov	x0, x2
  40b26c:	97fff855 	bl	4093c0 <_ZNSolsEi@plt>
  40b270:	aa0003e2 	mov	x2, x0
  40b274:	d0000060 	adrp	x0, 419000 <_IO_stdin_used+0x8>
  40b278:	9100c001 	add	x1, x0, #0x30
  40b27c:	aa0203e0 	mov	x0, x2
  40b280:	97fff71c 	bl	408ef0 <_ZStlsISt11char_traitsIcEERSt13basic_ostreamIcT_ES5_PKc@plt>
  40b284:	f94017e1 	ldr	x1, [sp,#40]
  40b288:	97fff6be 	bl	408d80 <_ZNSolsEPKv@plt>
  40b28c:	aa0003e2 	mov	x2, x0
  40b290:	d0000060 	adrp	x0, 419000 <_IO_stdin_used+0x8>
  40b294:	91010001 	add	x1, x0, #0x40
  40b298:	aa0203e0 	mov	x0, x2
  40b29c:	97fff715 	bl	408ef0 <_ZStlsISt11char_traitsIcEERSt13basic_ostreamIcT_ES5_PKc@plt>
  40b2a0:	f94013e1 	ldr	x1, [sp,#32]
  40b2a4:	97fff6b7 	bl	408d80 <_ZNSolsEPKv@plt>
  40b2a8:	aa0003e2 	mov	x2, x0
  40b2ac:	d0000060 	adrp	x0, 419000 <_IO_stdin_used+0x8>
  40b2b0:	91014001 	add	x1, x0, #0x50
  40b2b4:	aa0203e0 	mov	x0, x2
  40b2b8:	97fff70e 	bl	408ef0 <_ZStlsISt11char_traitsIcEERSt13basic_ostreamIcT_ES5_PKc@plt>
  40b2bc:	aa0003e2 	mov	x2, x0
  40b2c0:	f9400fe0 	ldr	x0, [sp,#24]
  40b2c4:	f9400000 	ldr	x0, [x0]
  40b2c8:	aa0003e1 	mov	x1, x0
  40b2cc:	aa0203e0 	mov	x0, x2
  40b2d0:	97fff85c 	bl	409440 <_ZNSolsEl@plt>
  40b2d4:	aa0003e2 	mov	x2, x0
  40b2d8:	b0ffffe0 	adrp	x0, 408000 <_init-0x970>
  40b2dc:	912ec001 	add	x1, x0, #0xbb0
  40b2e0:	aa0203e0 	mov	x0, x2
  40b2e4:	97fff717 	bl	408f40 <_ZNSolsEPFRSoS_E@plt>
  40b2e8:	f9400fe1 	ldr	x1, [sp,#24]
  40b2ec:	f9400023 	ldr	x3, [x1]
  40b2f0:	f9400be1 	ldr	x1, [sp,#16]
  40b2f4:	b9400025 	ldr	w5, [x1]
  40b2f8:	f94017e2 	ldr	x2, [sp,#40]
  40b2fc:	f94013e6 	ldr	x6, [sp,#32]
  40b300:	d2800001 	mov	x1, #0x0                   	// #0
  40b304:	aa0503e4 	mov	x4, x5
  40b308:	ad8804c0 	stp	q0, q1, [x6,#256]!
  40b30c:	ad8804c0 	stp	q0, q1, [x6,#256]!
  40b310:	adc80440 	ldp	q0, q1, [x2,#256]!
  40b314:	ad8804c0 	stp	q0, q1, [x6,#256]!
  40b318:	ad8804c0 	stp	q0, q1, [x6,#256]!
  40b31c:	ad8804c0 	stp	q0, q1, [x6,#256]!
  40b320:	aa1e03eb 	mov	x11, x30
  40b324:	97fff8d8 	bl	409684 <nop_>
  40b328:	aa0b03fe 	mov	x30, x11
  40b32c:	ad8804c0 	stp	q0, q1, [x6,#256]!
  40b330:	adc80440 	ldp	q0, q1, [x2,#256]!
  40b334:	ad8804c0 	stp	q0, q1, [x6,#256]!
  40b338:	ad8804c0 	stp	q0, q1, [x6,#256]!
  40b33c:	ad8804c0 	stp	q0, q1, [x6,#256]!
  40b340:	ad8804c0 	stp	q0, q1, [x6,#256]!
  40b344:	aa1e03eb 	mov	x11, x30
  40b348:	97fff8cf 	bl	409684 <nop_>
  40b34c:	aa0b03fe 	mov	x30, x11
  40b350:	adc80440 	ldp	q0, q1, [x2,#256]!
  40b354:	ad8804c0 	stp	q0, q1, [x6,#256]!
  40b358:	ad8804c0 	stp	q0, q1, [x6,#256]!
  40b35c:	ad8804c0 	stp	q0, q1, [x6,#256]!
  40b360:	ad8804c0 	stp	q0, q1, [x6,#256]!
  40b364:	ad8804c0 	stp	q0, q1, [x6,#256]!
  40b368:	aa1e03eb 	mov	x11, x30
  40b36c:	97fff8c6 	bl	409684 <nop_>
  40b370:	aa0b03fe 	mov	x30, x11
  40b374:	ad8804c0 	stp	q0, q1, [x6,#256]!
  40b378:	adc80440 	ldp	q0, q1, [x2,#256]!
  40b37c:	ad8804c0 	stp	q0, q1, [x6,#256]!
  40b380:	ad8804c0 	stp	q0, q1, [x6,#256]!
  40b384:	ad8804c0 	stp	q0, q1, [x6,#256]!
  40b388:	ad8804c0 	stp	q0, q1, [x6,#256]!
  40b38c:	aa1e03eb 	mov	x11, x30
  40b390:	97fff8bd 	bl	409684 <nop_>
  40b394:	aa0b03fe 	mov	x30, x11
  40b398:	ad8804c0 	stp	q0, q1, [x6,#256]!
  40b39c:	adc80440 	ldp	q0, q1, [x2,#256]!
  40b3a0:	ad8804c0 	stp	q0, q1, [x6,#256]!
  40b3a4:	ad8804c0 	stp	q0, q1, [x6,#256]!
  40b3a8:	ad8804c0 	stp	q0, q1, [x6,#256]!
  40b3ac:	ad8804c0 	stp	q0, q1, [x6,#256]!
  40b3b0:	aa1e03eb 	mov	x11, x30
  40b3b4:	97fff8b4 	bl	409684 <nop_>
  40b3b8:	aa0b03fe 	mov	x30, x11
  40b3bc:	ad8804c0 	stp	q0, q1, [x6,#256]!
  40b3c0:	ad8804c0 	stp	q0, q1, [x6,#256]!
  40b3c4:	adc80440 	ldp	q0, q1, [x2,#256]!
  40b3c8:	ad8804c0 	stp	q0, q1, [x6,#256]!
  40b3cc:	ad8804c0 	stp	q0, q1, [x6,#256]!
  40b3d0:	ad8804c0 	stp	q0, q1, [x6,#256]!
  40b3d4:	aa1e03eb 	mov	x11, x30
  40b3d8:	97fff8ab 	bl	409684 <nop_>
  40b3dc:	aa0b03fe 	mov	x30, x11
  40b3e0:	ad8804c0 	stp	q0, q1, [x6,#256]!
  40b3e4:	ad8804c0 	stp	q0, q1, [x6,#256]!
  40b3e8:	ad8804c0 	stp	q0, q1, [x6,#256]!
  40b3ec:	adc80440 	ldp	q0, q1, [x2,#256]!
  40b3f0:	ad8804c0 	stp	q0, q1, [x6,#256]!
  40b3f4:	ad8804c0 	stp	q0, q1, [x6,#256]!
  40b3f8:	aa1e03eb 	mov	x11, x30
  40b3fc:	97fff8a2 	bl	409684 <nop_>
  40b400:	aa0b03fe 	mov	x30, x11
  40b404:	ad8804c0 	stp	q0, q1, [x6,#256]!
  40b408:	ad8804c0 	stp	q0, q1, [x6,#256]!
  40b40c:	adc80440 	ldp	q0, q1, [x2,#256]!
  40b410:	ad8804c0 	stp	q0, q1, [x6,#256]!
  40b414:	ad8804c0 	stp	q0, q1, [x6,#256]!
  40b418:	ad8804c0 	stp	q0, q1, [x6,#256]!
  40b41c:	aa1e03eb 	mov	x11, x30
  40b420:	97fff899 	bl	409684 <nop_>
  40b424:	aa0b03fe 	mov	x30, x11
  40b428:	adc80440 	ldp	q0, q1, [x2,#256]!
  40b42c:	ad8804c0 	stp	q0, q1, [x6,#256]!
  40b430:	ad8804c0 	stp	q0, q1, [x6,#256]!
  40b434:	ad8804c0 	stp	q0, q1, [x6,#256]!
  40b438:	ad8804c0 	stp	q0, q1, [x6,#256]!
  40b43c:	adc80440 	ldp	q0, q1, [x2,#256]!
  40b440:	aa1e03eb 	mov	x11, x30
  40b444:	97fff890 	bl	409684 <nop_>
  40b448:	aa0b03fe 	mov	x30, x11
  40b44c:	adc80440 	ldp	q0, q1, [x2,#256]!
  40b450:	ad8804c0 	stp	q0, q1, [x6,#256]!
  40b454:	ad8804c0 	stp	q0, q1, [x6,#256]!
  40b458:	ad8804c0 	stp	q0, q1, [x6,#256]!
  40b45c:	ad8804c0 	stp	q0, q1, [x6,#256]!
  40b460:	ad8804c0 	stp	q0, q1, [x6,#256]!
  40b464:	aa1e03eb 	mov	x11, x30
  40b468:	97fff887 	bl	409684 <nop_>
  40b46c:	aa0b03fe 	mov	x30, x11
  40b470:	ad8804c0 	stp	q0, q1, [x6,#256]!
  40b474:	adc80440 	ldp	q0, q1, [x2,#256]!
  40b478:	ad8804c0 	stp	q0, q1, [x6,#256]!
  40b47c:	ad8804c0 	stp	q0, q1, [x6,#256]!
  40b480:	ad8804c0 	stp	q0, q1, [x6,#256]!
  40b484:	ad8804c0 	stp	q0, q1, [x6,#256]!
  40b488:	aa1e03eb 	mov	x11, x30
  40b48c:	97fff87e 	bl	409684 <nop_>
  40b490:	aa0b03fe 	mov	x30, x11
  40b494:	ad8804c0 	stp	q0, q1, [x6,#256]!
  40b498:	adc80440 	ldp	q0, q1, [x2,#256]!
  40b49c:	ad8804c0 	stp	q0, q1, [x6,#256]!
  40b4a0:	ad8804c0 	stp	q0, q1, [x6,#256]!
  40b4a4:	ad8804c0 	stp	q0, q1, [x6,#256]!
  40b4a8:	ad8804c0 	stp	q0, q1, [x6,#256]!
  40b4ac:	aa1e03eb 	mov	x11, x30
  40b4b0:	97fff875 	bl	409684 <nop_>
  40b4b4:	aa0b03fe 	mov	x30, x11
  40b4b8:	ad8804c0 	stp	q0, q1, [x6,#256]!
  40b4bc:	adc80440 	ldp	q0, q1, [x2,#256]!
  40b4c0:	ad8804c0 	stp	q0, q1, [x6,#256]!
  40b4c4:	ad8804c0 	stp	q0, q1, [x6,#256]!
  40b4c8:	ad8804c0 	stp	q0, q1, [x6,#256]!
  40b4cc:	ad8804c0 	stp	q0, q1, [x6,#256]!
  40b4d0:	aa1e03eb 	mov	x11, x30
  40b4d4:	97fff86c 	bl	409684 <nop_>
  40b4d8:	aa0b03fe 	mov	x30, x11
  40b4dc:	ad8804c0 	stp	q0, q1, [x6,#256]!
  40b4e0:	adc80440 	ldp	q0, q1, [x2,#256]!
  40b4e4:	ad8804c0 	stp	q0, q1, [x6,#256]!
  40b4e8:	ad8804c0 	stp	q0, q1, [x6,#256]!
  40b4ec:	ad8804c0 	stp	q0, q1, [x6,#256]!
  40b4f0:	ad8804c0 	stp	q0, q1, [x6,#256]!
  40b4f4:	aa1e03eb 	mov	x11, x30
  40b4f8:	97fff863 	bl	409684 <nop_>
  40b4fc:	aa0b03fe 	mov	x30, x11
  40b500:	ad8804c0 	stp	q0, q1, [x6,#256]!
  40b504:	ad8804c0 	stp	q0, q1, [x6,#256]!
  40b508:	ad8804c0 	stp	q0, q1, [x6,#256]!
  40b50c:	ad8804c0 	stp	q0, q1, [x6,#256]!
  40b510:	adc80440 	ldp	q0, q1, [x2,#256]!
  40b514:	ad8804c0 	stp	q0, q1, [x6,#256]!
  40b518:	aa1e03eb 	mov	x11, x30
  40b51c:	97fff85a 	bl	409684 <nop_>
  40b520:	aa0b03fe 	mov	x30, x11
  40b524:	adc80440 	ldp	q0, q1, [x2,#256]!
  40b528:	ad8804c0 	stp	q0, q1, [x6,#256]!
  40b52c:	ad8804c0 	stp	q0, q1, [x6,#256]!
  40b530:	ad8804c0 	stp	q0, q1, [x6,#256]!
  40b534:	ad8804c0 	stp	q0, q1, [x6,#256]!
  40b538:	ad8804c0 	stp	q0, q1, [x6,#256]!
  40b53c:	aa1e03eb 	mov	x11, x30
  40b540:	97fff851 	bl	409684 <nop_>
  40b544:	aa0b03fe 	mov	x30, x11
  40b548:	ad8804c0 	stp	q0, q1, [x6,#256]!
  40b54c:	adc80440 	ldp	q0, q1, [x2,#256]!
  40b550:	ad8804c0 	stp	q0, q1, [x6,#256]!
  40b554:	ad8804c0 	stp	q0, q1, [x6,#256]!
  40b558:	aa1e03eb 	mov	x11, x30
  40b55c:	97fff84a 	bl	409684 <nop_>
  40b560:	aa0b03fe 	mov	x30, x11
  40b564:	91320021 	add	x1, x1, #0xc80
  40b568:	eb03003f 	cmp	x1, x3
  40b56c:	540431ed 	b.le	413ba8 <_Z15STREAM_copy_100PdS_PlPKi+0xe0>
  40b570:	d503201f 	nop
  40b574:	a8c37bfd 	ldp	x29, x30, [sp],#48
  40b578:	d65f03c0 	ret

000000000040b57c <_Z14STREAM_copy_20PdS_PlPKi>:
  40b57c:	a9bd7bfd 	stp	x29, x30, [sp,#-48]!
  40b580:	910003fd 	mov	x29, sp
  40b584:	f90017e0 	str	x0, [sp,#40]
  40b588:	f90013e1 	str	x1, [sp,#32]
  40b58c:	f9000fe2 	str	x2, [sp,#24]
  40b590:	f9000be3 	str	x3, [sp,#16]
  40b594:	d2800000 	mov	x0, #0x0                   	// #0
  40b598:	d0000060 	adrp	x0, 419000 <_IO_stdin_used+0x8>
  40b59c:	91008001 	add	x1, x0, #0x20
  40b5a0:	f0000100 	adrp	x0, 42e000 <_Znam@GLIBCXX_3.4>
  40b5a4:	91286000 	add	x0, x0, #0xa18
  40b5a8:	97fff652 	bl	408ef0 <_ZStlsISt11char_traitsIcEERSt13basic_ostreamIcT_ES5_PKc@plt>
  40b5ac:	aa0003e2 	mov	x2, x0
  40b5b0:	f9400be0 	ldr	x0, [sp,#16]
  40b5b4:	b9400000 	ldr	w0, [x0]
  40b5b8:	2a0003e1 	mov	w1, w0
  40b5bc:	aa0203e0 	mov	x0, x2
  40b5c0:	97fff780 	bl	4093c0 <_ZNSolsEi@plt>
  40b5c4:	aa0003e2 	mov	x2, x0
  40b5c8:	d0000060 	adrp	x0, 419000 <_IO_stdin_used+0x8>
  40b5cc:	9100c001 	add	x1, x0, #0x30
  40b5d0:	aa0203e0 	mov	x0, x2
  40b5d4:	97fff647 	bl	408ef0 <_ZStlsISt11char_traitsIcEERSt13basic_ostreamIcT_ES5_PKc@plt>
  40b5d8:	f94017e1 	ldr	x1, [sp,#40]
  40b5dc:	97fff5e9 	bl	408d80 <_ZNSolsEPKv@plt>
  40b5e0:	aa0003e2 	mov	x2, x0
  40b5e4:	d0000060 	adrp	x0, 419000 <_IO_stdin_used+0x8>
  40b5e8:	91010001 	add	x1, x0, #0x40
  40b5ec:	aa0203e0 	mov	x0, x2
  40b5f0:	97fff640 	bl	408ef0 <_ZStlsISt11char_traitsIcEERSt13basic_ostreamIcT_ES5_PKc@plt>
  40b5f4:	f94013e1 	ldr	x1, [sp,#32]
  40b5f8:	97fff5e2 	bl	408d80 <_ZNSolsEPKv@plt>
  40b5fc:	aa0003e2 	mov	x2, x0
  40b600:	d0000060 	adrp	x0, 419000 <_IO_stdin_used+0x8>
  40b604:	91014001 	add	x1, x0, #0x50
  40b608:	aa0203e0 	mov	x0, x2
  40b60c:	97fff639 	bl	408ef0 <_ZStlsISt11char_traitsIcEERSt13basic_ostreamIcT_ES5_PKc@plt>
  40b610:	aa0003e2 	mov	x2, x0
  40b614:	f9400fe0 	ldr	x0, [sp,#24]
  40b618:	f9400000 	ldr	x0, [x0]
  40b61c:	aa0003e1 	mov	x1, x0
  40b620:	aa0203e0 	mov	x0, x2
  40b624:	97fff787 	bl	409440 <_ZNSolsEl@plt>
  40b628:	aa0003e2 	mov	x2, x0
  40b62c:	b0ffffe0 	adrp	x0, 408000 <_init-0x970>
  40b630:	912ec001 	add	x1, x0, #0xbb0
  40b634:	aa0203e0 	mov	x0, x2
  40b638:	97fff642 	bl	408f40 <_ZNSolsEPFRSoS_E@plt>
  40b63c:	f9400fe1 	ldr	x1, [sp,#24]
  40b640:	f9400023 	ldr	x3, [x1]
  40b644:	f9400be1 	ldr	x1, [sp,#16]
  40b648:	b9400025 	ldr	w5, [x1]
  40b64c:	f94017e2 	ldr	x2, [sp,#40]
  40b650:	f94013e6 	ldr	x6, [sp,#32]
  40b654:	d2800001 	mov	x1, #0x0                   	// #0
  40b658:	aa0503e4 	mov	x4, x5
  40b65c:	ad8804c0 	stp	q0, q1, [x6,#256]!
  40b660:	ad8804c0 	stp	q0, q1, [x6,#256]!
  40b664:	adc80440 	ldp	q0, q1, [x2,#256]!
  40b668:	ad8804c0 	stp	q0, q1, [x6,#256]!
  40b66c:	ad8804c0 	stp	q0, q1, [x6,#256]!
  40b670:	ad8804c0 	stp	q0, q1, [x6,#256]!
  40b674:	aa1e03eb 	mov	x11, x30
  40b678:	97fff803 	bl	409684 <nop_>
  40b67c:	aa0b03fe 	mov	x30, x11
  40b680:	ad8804c0 	stp	q0, q1, [x6,#256]!
  40b684:	adc80440 	ldp	q0, q1, [x2,#256]!
  40b688:	ad8804c0 	stp	q0, q1, [x6,#256]!
  40b68c:	ad8804c0 	stp	q0, q1, [x6,#256]!
  40b690:	ad8804c0 	stp	q0, q1, [x6,#256]!
  40b694:	ad8804c0 	stp	q0, q1, [x6,#256]!
  40b698:	aa1e03eb 	mov	x11, x30
  40b69c:	97fff7fa 	bl	409684 <nop_>
  40b6a0:	aa0b03fe 	mov	x30, x11
  40b6a4:	adc80440 	ldp	q0, q1, [x2,#256]!
  40b6a8:	ad8804c0 	stp	q0, q1, [x6,#256]!
  40b6ac:	ad8804c0 	stp	q0, q1, [x6,#256]!
  40b6b0:	ad8804c0 	stp	q0, q1, [x6,#256]!
  40b6b4:	ad8804c0 	stp	q0, q1, [x6,#256]!
  40b6b8:	ad8804c0 	stp	q0, q1, [x6,#256]!
  40b6bc:	aa1e03eb 	mov	x11, x30
  40b6c0:	97fff7f1 	bl	409684 <nop_>
  40b6c4:	aa0b03fe 	mov	x30, x11
  40b6c8:	ad8804c0 	stp	q0, q1, [x6,#256]!
  40b6cc:	adc80440 	ldp	q0, q1, [x2,#256]!
  40b6d0:	ad8804c0 	stp	q0, q1, [x6,#256]!
  40b6d4:	ad8804c0 	stp	q0, q1, [x6,#256]!
  40b6d8:	ad8804c0 	stp	q0, q1, [x6,#256]!
  40b6dc:	ad8804c0 	stp	q0, q1, [x6,#256]!
  40b6e0:	aa1e03eb 	mov	x11, x30
  40b6e4:	97fff7e8 	bl	409684 <nop_>
  40b6e8:	aa0b03fe 	mov	x30, x11
  40b6ec:	ad8804c0 	stp	q0, q1, [x6,#256]!
  40b6f0:	adc80440 	ldp	q0, q1, [x2,#256]!
  40b6f4:	ad8804c0 	stp	q0, q1, [x6,#256]!
  40b6f8:	ad8804c0 	stp	q0, q1, [x6,#256]!
  40b6fc:	ad8804c0 	stp	q0, q1, [x6,#256]!
  40b700:	ad8804c0 	stp	q0, q1, [x6,#256]!
  40b704:	aa1e03eb 	mov	x11, x30
  40b708:	97fff7df 	bl	409684 <nop_>
  40b70c:	aa0b03fe 	mov	x30, x11
  40b710:	ad8804c0 	stp	q0, q1, [x6,#256]!
  40b714:	ad8804c0 	stp	q0, q1, [x6,#256]!
  40b718:	adc80440 	ldp	q0, q1, [x2,#256]!
  40b71c:	ad8804c0 	stp	q0, q1, [x6,#256]!
  40b720:	ad8804c0 	stp	q0, q1, [x6,#256]!
  40b724:	ad8804c0 	stp	q0, q1, [x6,#256]!
  40b728:	aa1e03eb 	mov	x11, x30
  40b72c:	97fff7d6 	bl	409684 <nop_>
  40b730:	aa0b03fe 	mov	x30, x11
  40b734:	ad8804c0 	stp	q0, q1, [x6,#256]!
  40b738:	adc80440 	ldp	q0, q1, [x2,#256]!
  40b73c:	ad8804c0 	stp	q0, q1, [x6,#256]!
  40b740:	adc80440 	ldp	q0, q1, [x2,#256]!
  40b744:	ad8804c0 	stp	q0, q1, [x6,#256]!
  40b748:	ad8804c0 	stp	q0, q1, [x6,#256]!
  40b74c:	aa1e03eb 	mov	x11, x30
  40b750:	97fff7cd 	bl	409684 <nop_>
  40b754:	aa0b03fe 	mov	x30, x11
  40b758:	ad8804c0 	stp	q0, q1, [x6,#256]!
  40b75c:	ad8804c0 	stp	q0, q1, [x6,#256]!
  40b760:	adc80440 	ldp	q0, q1, [x2,#256]!
  40b764:	ad8804c0 	stp	q0, q1, [x6,#256]!
  40b768:	ad8804c0 	stp	q0, q1, [x6,#256]!
  40b76c:	ad8804c0 	stp	q0, q1, [x6,#256]!
  40b770:	aa1e03eb 	mov	x11, x30
  40b774:	97fff7c4 	bl	409684 <nop_>
  40b778:	aa0b03fe 	mov	x30, x11
  40b77c:	adc80440 	ldp	q0, q1, [x2,#256]!
  40b780:	ad8804c0 	stp	q0, q1, [x6,#256]!
  40b784:	ad8804c0 	stp	q0, q1, [x6,#256]!
  40b788:	ad8804c0 	stp	q0, q1, [x6,#256]!
  40b78c:	ad8804c0 	stp	q0, q1, [x6,#256]!
  40b790:	adc80440 	ldp	q0, q1, [x2,#256]!
  40b794:	aa1e03eb 	mov	x11, x30
  40b798:	97fff7bb 	bl	409684 <nop_>
  40b79c:	aa0b03fe 	mov	x30, x11
  40b7a0:	adc80440 	ldp	q0, q1, [x2,#256]!
  40b7a4:	ad8804c0 	stp	q0, q1, [x6,#256]!
  40b7a8:	ad8804c0 	stp	q0, q1, [x6,#256]!
  40b7ac:	ad8804c0 	stp	q0, q1, [x6,#256]!
  40b7b0:	ad8804c0 	stp	q0, q1, [x6,#256]!
  40b7b4:	ad8804c0 	stp	q0, q1, [x6,#256]!
  40b7b8:	aa1e03eb 	mov	x11, x30
  40b7bc:	97fff7b2 	bl	409684 <nop_>
  40b7c0:	aa0b03fe 	mov	x30, x11
  40b7c4:	ad8804c0 	stp	q0, q1, [x6,#256]!
  40b7c8:	adc80440 	ldp	q0, q1, [x2,#256]!
  40b7cc:	ad8804c0 	stp	q0, q1, [x6,#256]!
  40b7d0:	ad8804c0 	stp	q0, q1, [x6,#256]!
  40b7d4:	ad8804c0 	stp	q0, q1, [x6,#256]!
  40b7d8:	ad8804c0 	stp	q0, q1, [x6,#256]!
  40b7dc:	aa1e03eb 	mov	x11, x30
  40b7e0:	97fff7a9 	bl	409684 <nop_>
  40b7e4:	aa0b03fe 	mov	x30, x11
  40b7e8:	ad8804c0 	stp	q0, q1, [x6,#256]!
  40b7ec:	adc80440 	ldp	q0, q1, [x2,#256]!
  40b7f0:	ad8804c0 	stp	q0, q1, [x6,#256]!
  40b7f4:	ad8804c0 	stp	q0, q1, [x6,#256]!
  40b7f8:	ad8804c0 	stp	q0, q1, [x6,#256]!
  40b7fc:	ad8804c0 	stp	q0, q1, [x6,#256]!
  40b800:	aa1e03eb 	mov	x11, x30
  40b804:	97fff7a0 	bl	409684 <nop_>
  40b808:	aa0b03fe 	mov	x30, x11
  40b80c:	ad8804c0 	stp	q0, q1, [x6,#256]!
  40b810:	adc80440 	ldp	q0, q1, [x2,#256]!
  40b814:	ad8804c0 	stp	q0, q1, [x6,#256]!
  40b818:	ad8804c0 	stp	q0, q1, [x6,#256]!
  40b81c:	ad8804c0 	stp	q0, q1, [x6,#256]!
  40b820:	ad8804c0 	stp	q0, q1, [x6,#256]!
  40b824:	aa1e03eb 	mov	x11, x30
  40b828:	97fff797 	bl	409684 <nop_>
  40b82c:	aa0b03fe 	mov	x30, x11
  40b830:	ad8804c0 	stp	q0, q1, [x6,#256]!
  40b834:	adc80440 	ldp	q0, q1, [x2,#256]!
  40b838:	ad8804c0 	stp	q0, q1, [x6,#256]!
  40b83c:	ad8804c0 	stp	q0, q1, [x6,#256]!
  40b840:	adc80440 	ldp	q0, q1, [x2,#256]!
  40b844:	ad8804c0 	stp	q0, q1, [x6,#256]!
  40b848:	aa1e03eb 	mov	x11, x30
  40b84c:	97fff78e 	bl	409684 <nop_>
  40b850:	aa0b03fe 	mov	x30, x11
  40b854:	ad8804c0 	stp	q0, q1, [x6,#256]!
  40b858:	ad8804c0 	stp	q0, q1, [x6,#256]!
  40b85c:	ad8804c0 	stp	q0, q1, [x6,#256]!
  40b860:	ad8804c0 	stp	q0, q1, [x6,#256]!
  40b864:	adc80440 	ldp	q0, q1, [x2,#256]!
  40b868:	ad8804c0 	stp	q0, q1, [x6,#256]!
  40b86c:	aa1e03eb 	mov	x11, x30
  40b870:	97fff785 	bl	409684 <nop_>
  40b874:	aa0b03fe 	mov	x30, x11
  40b878:	adc80440 	ldp	q0, q1, [x2,#256]!
  40b87c:	ad8804c0 	stp	q0, q1, [x6,#256]!
  40b880:	ad8804c0 	stp	q0, q1, [x6,#256]!
  40b884:	ad8804c0 	stp	q0, q1, [x6,#256]!
  40b888:	ad8804c0 	stp	q0, q1, [x6,#256]!
  40b88c:	ad8804c0 	stp	q0, q1, [x6,#256]!
  40b890:	aa1e03eb 	mov	x11, x30
  40b894:	97fff77c 	bl	409684 <nop_>
  40b898:	aa0b03fe 	mov	x30, x11
  40b89c:	ad8804c0 	stp	q0, q1, [x6,#256]!
  40b8a0:	adc80440 	ldp	q0, q1, [x2,#256]!
  40b8a4:	ad8804c0 	stp	q0, q1, [x6,#256]!
  40b8a8:	ad8804c0 	stp	q0, q1, [x6,#256]!
  40b8ac:	aa1e03eb 	mov	x11, x30
  40b8b0:	97fff775 	bl	409684 <nop_>
  40b8b4:	aa0b03fe 	mov	x30, x11
  40b8b8:	91320021 	add	x1, x1, #0xc80
  40b8bc:	eb03003f 	cmp	x1, x3
  40b8c0:	5404174d 	b.le	413ba8 <_Z15STREAM_copy_100PdS_PlPKi+0xe0>
  40b8c4:	d503201f 	nop
  40b8c8:	a8c37bfd 	ldp	x29, x30, [sp],#48
  40b8cc:	d65f03c0 	ret

000000000040b8d0 <_Z14STREAM_copy_22PdS_PlPKi>:
  40b8d0:	a9bd7bfd 	stp	x29, x30, [sp,#-48]!
  40b8d4:	910003fd 	mov	x29, sp
  40b8d8:	f90017e0 	str	x0, [sp,#40]
  40b8dc:	f90013e1 	str	x1, [sp,#32]
  40b8e0:	f9000fe2 	str	x2, [sp,#24]
  40b8e4:	f9000be3 	str	x3, [sp,#16]
  40b8e8:	d2800000 	mov	x0, #0x0                   	// #0
  40b8ec:	d0000060 	adrp	x0, 419000 <_IO_stdin_used+0x8>
  40b8f0:	91008001 	add	x1, x0, #0x20
  40b8f4:	f0000100 	adrp	x0, 42e000 <_Znam@GLIBCXX_3.4>
  40b8f8:	91286000 	add	x0, x0, #0xa18
  40b8fc:	97fff57d 	bl	408ef0 <_ZStlsISt11char_traitsIcEERSt13basic_ostreamIcT_ES5_PKc@plt>
  40b900:	aa0003e2 	mov	x2, x0
  40b904:	f9400be0 	ldr	x0, [sp,#16]
  40b908:	b9400000 	ldr	w0, [x0]
  40b90c:	2a0003e1 	mov	w1, w0
  40b910:	aa0203e0 	mov	x0, x2
  40b914:	97fff6ab 	bl	4093c0 <_ZNSolsEi@plt>
  40b918:	aa0003e2 	mov	x2, x0
  40b91c:	d0000060 	adrp	x0, 419000 <_IO_stdin_used+0x8>
  40b920:	9100c001 	add	x1, x0, #0x30
  40b924:	aa0203e0 	mov	x0, x2
  40b928:	97fff572 	bl	408ef0 <_ZStlsISt11char_traitsIcEERSt13basic_ostreamIcT_ES5_PKc@plt>
  40b92c:	f94017e1 	ldr	x1, [sp,#40]
  40b930:	97fff514 	bl	408d80 <_ZNSolsEPKv@plt>
  40b934:	aa0003e2 	mov	x2, x0
  40b938:	d0000060 	adrp	x0, 419000 <_IO_stdin_used+0x8>
  40b93c:	91010001 	add	x1, x0, #0x40
  40b940:	aa0203e0 	mov	x0, x2
  40b944:	97fff56b 	bl	408ef0 <_ZStlsISt11char_traitsIcEERSt13basic_ostreamIcT_ES5_PKc@plt>
  40b948:	f94013e1 	ldr	x1, [sp,#32]
  40b94c:	97fff50d 	bl	408d80 <_ZNSolsEPKv@plt>
  40b950:	aa0003e2 	mov	x2, x0
  40b954:	d0000060 	adrp	x0, 419000 <_IO_stdin_used+0x8>
  40b958:	91014001 	add	x1, x0, #0x50
  40b95c:	aa0203e0 	mov	x0, x2
  40b960:	97fff564 	bl	408ef0 <_ZStlsISt11char_traitsIcEERSt13basic_ostreamIcT_ES5_PKc@plt>
  40b964:	aa0003e2 	mov	x2, x0
  40b968:	f9400fe0 	ldr	x0, [sp,#24]
  40b96c:	f9400000 	ldr	x0, [x0]
  40b970:	aa0003e1 	mov	x1, x0
  40b974:	aa0203e0 	mov	x0, x2
  40b978:	97fff6b2 	bl	409440 <_ZNSolsEl@plt>
  40b97c:	aa0003e2 	mov	x2, x0
  40b980:	b0ffffe0 	adrp	x0, 408000 <_init-0x970>
  40b984:	912ec001 	add	x1, x0, #0xbb0
  40b988:	aa0203e0 	mov	x0, x2
  40b98c:	97fff56d 	bl	408f40 <_ZNSolsEPFRSoS_E@plt>
  40b990:	f9400fe1 	ldr	x1, [sp,#24]
  40b994:	f9400023 	ldr	x3, [x1]
  40b998:	f9400be1 	ldr	x1, [sp,#16]
  40b99c:	b9400025 	ldr	w5, [x1]
  40b9a0:	f94017e2 	ldr	x2, [sp,#40]
  40b9a4:	f94013e6 	ldr	x6, [sp,#32]
  40b9a8:	d2800001 	mov	x1, #0x0                   	// #0
  40b9ac:	aa0503e4 	mov	x4, x5
  40b9b0:	ad8804c0 	stp	q0, q1, [x6,#256]!
  40b9b4:	ad8804c0 	stp	q0, q1, [x6,#256]!
  40b9b8:	adc80440 	ldp	q0, q1, [x2,#256]!
  40b9bc:	ad8804c0 	stp	q0, q1, [x6,#256]!
  40b9c0:	ad8804c0 	stp	q0, q1, [x6,#256]!
  40b9c4:	ad8804c0 	stp	q0, q1, [x6,#256]!
  40b9c8:	aa1e03eb 	mov	x11, x30
  40b9cc:	97fff72e 	bl	409684 <nop_>
  40b9d0:	aa0b03fe 	mov	x30, x11
  40b9d4:	ad8804c0 	stp	q0, q1, [x6,#256]!
  40b9d8:	adc80440 	ldp	q0, q1, [x2,#256]!
  40b9dc:	ad8804c0 	stp	q0, q1, [x6,#256]!
  40b9e0:	ad8804c0 	stp	q0, q1, [x6,#256]!
  40b9e4:	ad8804c0 	stp	q0, q1, [x6,#256]!
  40b9e8:	ad8804c0 	stp	q0, q1, [x6,#256]!
  40b9ec:	aa1e03eb 	mov	x11, x30
  40b9f0:	97fff725 	bl	409684 <nop_>
  40b9f4:	aa0b03fe 	mov	x30, x11
  40b9f8:	adc80440 	ldp	q0, q1, [x2,#256]!
  40b9fc:	ad8804c0 	stp	q0, q1, [x6,#256]!
  40ba00:	ad8804c0 	stp	q0, q1, [x6,#256]!
  40ba04:	ad8804c0 	stp	q0, q1, [x6,#256]!
  40ba08:	ad8804c0 	stp	q0, q1, [x6,#256]!
  40ba0c:	ad8804c0 	stp	q0, q1, [x6,#256]!
  40ba10:	aa1e03eb 	mov	x11, x30
  40ba14:	97fff71c 	bl	409684 <nop_>
  40ba18:	aa0b03fe 	mov	x30, x11
  40ba1c:	ad8804c0 	stp	q0, q1, [x6,#256]!
  40ba20:	adc80440 	ldp	q0, q1, [x2,#256]!
  40ba24:	ad8804c0 	stp	q0, q1, [x6,#256]!
  40ba28:	ad8804c0 	stp	q0, q1, [x6,#256]!
  40ba2c:	adc80440 	ldp	q0, q1, [x2,#256]!
  40ba30:	ad8804c0 	stp	q0, q1, [x6,#256]!
  40ba34:	aa1e03eb 	mov	x11, x30
  40ba38:	97fff713 	bl	409684 <nop_>
  40ba3c:	aa0b03fe 	mov	x30, x11
  40ba40:	ad8804c0 	stp	q0, q1, [x6,#256]!
  40ba44:	adc80440 	ldp	q0, q1, [x2,#256]!
  40ba48:	ad8804c0 	stp	q0, q1, [x6,#256]!
  40ba4c:	ad8804c0 	stp	q0, q1, [x6,#256]!
  40ba50:	ad8804c0 	stp	q0, q1, [x6,#256]!
  40ba54:	ad8804c0 	stp	q0, q1, [x6,#256]!
  40ba58:	aa1e03eb 	mov	x11, x30
  40ba5c:	97fff70a 	bl	409684 <nop_>
  40ba60:	aa0b03fe 	mov	x30, x11
  40ba64:	ad8804c0 	stp	q0, q1, [x6,#256]!
  40ba68:	ad8804c0 	stp	q0, q1, [x6,#256]!
  40ba6c:	adc80440 	ldp	q0, q1, [x2,#256]!
  40ba70:	ad8804c0 	stp	q0, q1, [x6,#256]!
  40ba74:	ad8804c0 	stp	q0, q1, [x6,#256]!
  40ba78:	ad8804c0 	stp	q0, q1, [x6,#256]!
  40ba7c:	aa1e03eb 	mov	x11, x30
  40ba80:	97fff701 	bl	409684 <nop_>
  40ba84:	aa0b03fe 	mov	x30, x11
  40ba88:	ad8804c0 	stp	q0, q1, [x6,#256]!
  40ba8c:	adc80440 	ldp	q0, q1, [x2,#256]!
  40ba90:	ad8804c0 	stp	q0, q1, [x6,#256]!
  40ba94:	adc80440 	ldp	q0, q1, [x2,#256]!
  40ba98:	ad8804c0 	stp	q0, q1, [x6,#256]!
  40ba9c:	ad8804c0 	stp	q0, q1, [x6,#256]!
  40baa0:	aa1e03eb 	mov	x11, x30
  40baa4:	97fff6f8 	bl	409684 <nop_>
  40baa8:	aa0b03fe 	mov	x30, x11
  40baac:	ad8804c0 	stp	q0, q1, [x6,#256]!
  40bab0:	ad8804c0 	stp	q0, q1, [x6,#256]!
  40bab4:	adc80440 	ldp	q0, q1, [x2,#256]!
  40bab8:	ad8804c0 	stp	q0, q1, [x6,#256]!
  40babc:	ad8804c0 	stp	q0, q1, [x6,#256]!
  40bac0:	ad8804c0 	stp	q0, q1, [x6,#256]!
  40bac4:	aa1e03eb 	mov	x11, x30
  40bac8:	97fff6ef 	bl	409684 <nop_>
  40bacc:	aa0b03fe 	mov	x30, x11
  40bad0:	adc80440 	ldp	q0, q1, [x2,#256]!
  40bad4:	ad8804c0 	stp	q0, q1, [x6,#256]!
  40bad8:	ad8804c0 	stp	q0, q1, [x6,#256]!
  40badc:	ad8804c0 	stp	q0, q1, [x6,#256]!
  40bae0:	ad8804c0 	stp	q0, q1, [x6,#256]!
  40bae4:	adc80440 	ldp	q0, q1, [x2,#256]!
  40bae8:	aa1e03eb 	mov	x11, x30
  40baec:	97fff6e6 	bl	409684 <nop_>
  40baf0:	aa0b03fe 	mov	x30, x11
  40baf4:	adc80440 	ldp	q0, q1, [x2,#256]!
  40baf8:	ad8804c0 	stp	q0, q1, [x6,#256]!
  40bafc:	ad8804c0 	stp	q0, q1, [x6,#256]!
  40bb00:	ad8804c0 	stp	q0, q1, [x6,#256]!
  40bb04:	adc80440 	ldp	q0, q1, [x2,#256]!
  40bb08:	ad8804c0 	stp	q0, q1, [x6,#256]!
  40bb0c:	aa1e03eb 	mov	x11, x30
  40bb10:	97fff6dd 	bl	409684 <nop_>
  40bb14:	aa0b03fe 	mov	x30, x11
  40bb18:	ad8804c0 	stp	q0, q1, [x6,#256]!
  40bb1c:	adc80440 	ldp	q0, q1, [x2,#256]!
  40bb20:	ad8804c0 	stp	q0, q1, [x6,#256]!
  40bb24:	ad8804c0 	stp	q0, q1, [x6,#256]!
  40bb28:	ad8804c0 	stp	q0, q1, [x6,#256]!
  40bb2c:	ad8804c0 	stp	q0, q1, [x6,#256]!
  40bb30:	aa1e03eb 	mov	x11, x30
  40bb34:	97fff6d4 	bl	409684 <nop_>
  40bb38:	aa0b03fe 	mov	x30, x11
  40bb3c:	ad8804c0 	stp	q0, q1, [x6,#256]!
  40bb40:	adc80440 	ldp	q0, q1, [x2,#256]!
  40bb44:	ad8804c0 	stp	q0, q1, [x6,#256]!
  40bb48:	ad8804c0 	stp	q0, q1, [x6,#256]!
  40bb4c:	ad8804c0 	stp	q0, q1, [x6,#256]!
  40bb50:	ad8804c0 	stp	q0, q1, [x6,#256]!
  40bb54:	aa1e03eb 	mov	x11, x30
  40bb58:	97fff6cb 	bl	409684 <nop_>
  40bb5c:	aa0b03fe 	mov	x30, x11
  40bb60:	ad8804c0 	stp	q0, q1, [x6,#256]!
  40bb64:	adc80440 	ldp	q0, q1, [x2,#256]!
  40bb68:	ad8804c0 	stp	q0, q1, [x6,#256]!
  40bb6c:	ad8804c0 	stp	q0, q1, [x6,#256]!
  40bb70:	ad8804c0 	stp	q0, q1, [x6,#256]!
  40bb74:	ad8804c0 	stp	q0, q1, [x6,#256]!
  40bb78:	aa1e03eb 	mov	x11, x30
  40bb7c:	97fff6c2 	bl	409684 <nop_>
  40bb80:	aa0b03fe 	mov	x30, x11
  40bb84:	ad8804c0 	stp	q0, q1, [x6,#256]!
  40bb88:	adc80440 	ldp	q0, q1, [x2,#256]!
  40bb8c:	ad8804c0 	stp	q0, q1, [x6,#256]!
  40bb90:	ad8804c0 	stp	q0, q1, [x6,#256]!
  40bb94:	adc80440 	ldp	q0, q1, [x2,#256]!
  40bb98:	ad8804c0 	stp	q0, q1, [x6,#256]!
  40bb9c:	aa1e03eb 	mov	x11, x30
  40bba0:	97fff6b9 	bl	409684 <nop_>
  40bba4:	aa0b03fe 	mov	x30, x11
  40bba8:	ad8804c0 	stp	q0, q1, [x6,#256]!
  40bbac:	ad8804c0 	stp	q0, q1, [x6,#256]!
  40bbb0:	ad8804c0 	stp	q0, q1, [x6,#256]!
  40bbb4:	ad8804c0 	stp	q0, q1, [x6,#256]!
  40bbb8:	adc80440 	ldp	q0, q1, [x2,#256]!
  40bbbc:	ad8804c0 	stp	q0, q1, [x6,#256]!
  40bbc0:	aa1e03eb 	mov	x11, x30
  40bbc4:	97fff6b0 	bl	409684 <nop_>
  40bbc8:	aa0b03fe 	mov	x30, x11
  40bbcc:	adc80440 	ldp	q0, q1, [x2,#256]!
  40bbd0:	ad8804c0 	stp	q0, q1, [x6,#256]!
  40bbd4:	ad8804c0 	stp	q0, q1, [x6,#256]!
  40bbd8:	ad8804c0 	stp	q0, q1, [x6,#256]!
  40bbdc:	ad8804c0 	stp	q0, q1, [x6,#256]!
  40bbe0:	ad8804c0 	stp	q0, q1, [x6,#256]!
  40bbe4:	aa1e03eb 	mov	x11, x30
  40bbe8:	97fff6a7 	bl	409684 <nop_>
  40bbec:	aa0b03fe 	mov	x30, x11
  40bbf0:	ad8804c0 	stp	q0, q1, [x6,#256]!
  40bbf4:	adc80440 	ldp	q0, q1, [x2,#256]!
  40bbf8:	ad8804c0 	stp	q0, q1, [x6,#256]!
  40bbfc:	ad8804c0 	stp	q0, q1, [x6,#256]!
  40bc00:	aa1e03eb 	mov	x11, x30
  40bc04:	97fff6a0 	bl	409684 <nop_>
  40bc08:	aa0b03fe 	mov	x30, x11
  40bc0c:	91320021 	add	x1, x1, #0xc80
  40bc10:	eb03003f 	cmp	x1, x3
  40bc14:	5403fcad 	b.le	413ba8 <_Z15STREAM_copy_100PdS_PlPKi+0xe0>
  40bc18:	d503201f 	nop
  40bc1c:	a8c37bfd 	ldp	x29, x30, [sp],#48
  40bc20:	d65f03c0 	ret

000000000040bc24 <_Z14STREAM_copy_24PdS_PlPKi>:
  40bc24:	a9bd7bfd 	stp	x29, x30, [sp,#-48]!
  40bc28:	910003fd 	mov	x29, sp
  40bc2c:	f90017e0 	str	x0, [sp,#40]
  40bc30:	f90013e1 	str	x1, [sp,#32]
  40bc34:	f9000fe2 	str	x2, [sp,#24]
  40bc38:	f9000be3 	str	x3, [sp,#16]
  40bc3c:	d2800000 	mov	x0, #0x0                   	// #0
  40bc40:	d0000060 	adrp	x0, 419000 <_IO_stdin_used+0x8>
  40bc44:	91008001 	add	x1, x0, #0x20
  40bc48:	f0000100 	adrp	x0, 42e000 <_Znam@GLIBCXX_3.4>
  40bc4c:	91286000 	add	x0, x0, #0xa18
  40bc50:	97fff4a8 	bl	408ef0 <_ZStlsISt11char_traitsIcEERSt13basic_ostreamIcT_ES5_PKc@plt>
  40bc54:	aa0003e2 	mov	x2, x0
  40bc58:	f9400be0 	ldr	x0, [sp,#16]
  40bc5c:	b9400000 	ldr	w0, [x0]
  40bc60:	2a0003e1 	mov	w1, w0
  40bc64:	aa0203e0 	mov	x0, x2
  40bc68:	97fff5d6 	bl	4093c0 <_ZNSolsEi@plt>
  40bc6c:	aa0003e2 	mov	x2, x0
  40bc70:	d0000060 	adrp	x0, 419000 <_IO_stdin_used+0x8>
  40bc74:	9100c001 	add	x1, x0, #0x30
  40bc78:	aa0203e0 	mov	x0, x2
  40bc7c:	97fff49d 	bl	408ef0 <_ZStlsISt11char_traitsIcEERSt13basic_ostreamIcT_ES5_PKc@plt>
  40bc80:	f94017e1 	ldr	x1, [sp,#40]
  40bc84:	97fff43f 	bl	408d80 <_ZNSolsEPKv@plt>
  40bc88:	aa0003e2 	mov	x2, x0
  40bc8c:	d0000060 	adrp	x0, 419000 <_IO_stdin_used+0x8>
  40bc90:	91010001 	add	x1, x0, #0x40
  40bc94:	aa0203e0 	mov	x0, x2
  40bc98:	97fff496 	bl	408ef0 <_ZStlsISt11char_traitsIcEERSt13basic_ostreamIcT_ES5_PKc@plt>
  40bc9c:	f94013e1 	ldr	x1, [sp,#32]
  40bca0:	97fff438 	bl	408d80 <_ZNSolsEPKv@plt>
  40bca4:	aa0003e2 	mov	x2, x0
  40bca8:	d0000060 	adrp	x0, 419000 <_IO_stdin_used+0x8>
  40bcac:	91014001 	add	x1, x0, #0x50
  40bcb0:	aa0203e0 	mov	x0, x2
  40bcb4:	97fff48f 	bl	408ef0 <_ZStlsISt11char_traitsIcEERSt13basic_ostreamIcT_ES5_PKc@plt>
  40bcb8:	aa0003e2 	mov	x2, x0
  40bcbc:	f9400fe0 	ldr	x0, [sp,#24]
  40bcc0:	f9400000 	ldr	x0, [x0]
  40bcc4:	aa0003e1 	mov	x1, x0
  40bcc8:	aa0203e0 	mov	x0, x2
  40bccc:	97fff5dd 	bl	409440 <_ZNSolsEl@plt>
  40bcd0:	aa0003e2 	mov	x2, x0
  40bcd4:	b0ffffe0 	adrp	x0, 408000 <_init-0x970>
  40bcd8:	912ec001 	add	x1, x0, #0xbb0
  40bcdc:	aa0203e0 	mov	x0, x2
  40bce0:	97fff498 	bl	408f40 <_ZNSolsEPFRSoS_E@plt>
  40bce4:	f9400fe1 	ldr	x1, [sp,#24]
  40bce8:	f9400023 	ldr	x3, [x1]
  40bcec:	f9400be1 	ldr	x1, [sp,#16]
  40bcf0:	b9400025 	ldr	w5, [x1]
  40bcf4:	f94017e2 	ldr	x2, [sp,#40]
  40bcf8:	f94013e6 	ldr	x6, [sp,#32]
  40bcfc:	d2800001 	mov	x1, #0x0                   	// #0
  40bd00:	aa0503e4 	mov	x4, x5
  40bd04:	ad8804c0 	stp	q0, q1, [x6,#256]!
  40bd08:	ad8804c0 	stp	q0, q1, [x6,#256]!
  40bd0c:	adc80440 	ldp	q0, q1, [x2,#256]!
  40bd10:	ad8804c0 	stp	q0, q1, [x6,#256]!
  40bd14:	ad8804c0 	stp	q0, q1, [x6,#256]!
  40bd18:	ad8804c0 	stp	q0, q1, [x6,#256]!
  40bd1c:	aa1e03eb 	mov	x11, x30
  40bd20:	97fff659 	bl	409684 <nop_>
  40bd24:	aa0b03fe 	mov	x30, x11
  40bd28:	ad8804c0 	stp	q0, q1, [x6,#256]!
  40bd2c:	adc80440 	ldp	q0, q1, [x2,#256]!
  40bd30:	ad8804c0 	stp	q0, q1, [x6,#256]!
  40bd34:	ad8804c0 	stp	q0, q1, [x6,#256]!
  40bd38:	ad8804c0 	stp	q0, q1, [x6,#256]!
  40bd3c:	ad8804c0 	stp	q0, q1, [x6,#256]!
  40bd40:	aa1e03eb 	mov	x11, x30
  40bd44:	97fff650 	bl	409684 <nop_>
  40bd48:	aa0b03fe 	mov	x30, x11
  40bd4c:	adc80440 	ldp	q0, q1, [x2,#256]!
  40bd50:	ad8804c0 	stp	q0, q1, [x6,#256]!
  40bd54:	ad8804c0 	stp	q0, q1, [x6,#256]!
  40bd58:	ad8804c0 	stp	q0, q1, [x6,#256]!
  40bd5c:	adc80440 	ldp	q0, q1, [x2,#256]!
  40bd60:	ad8804c0 	stp	q0, q1, [x6,#256]!
  40bd64:	aa1e03eb 	mov	x11, x30
  40bd68:	97fff647 	bl	409684 <nop_>
  40bd6c:	aa0b03fe 	mov	x30, x11
  40bd70:	ad8804c0 	stp	q0, q1, [x6,#256]!
  40bd74:	adc80440 	ldp	q0, q1, [x2,#256]!
  40bd78:	ad8804c0 	stp	q0, q1, [x6,#256]!
  40bd7c:	ad8804c0 	stp	q0, q1, [x6,#256]!
  40bd80:	adc80440 	ldp	q0, q1, [x2,#256]!
  40bd84:	ad8804c0 	stp	q0, q1, [x6,#256]!
  40bd88:	aa1e03eb 	mov	x11, x30
  40bd8c:	97fff63e 	bl	409684 <nop_>
  40bd90:	aa0b03fe 	mov	x30, x11
  40bd94:	ad8804c0 	stp	q0, q1, [x6,#256]!
  40bd98:	adc80440 	ldp	q0, q1, [x2,#256]!
  40bd9c:	ad8804c0 	stp	q0, q1, [x6,#256]!
  40bda0:	ad8804c0 	stp	q0, q1, [x6,#256]!
  40bda4:	ad8804c0 	stp	q0, q1, [x6,#256]!
  40bda8:	ad8804c0 	stp	q0, q1, [x6,#256]!
  40bdac:	aa1e03eb 	mov	x11, x30
  40bdb0:	97fff635 	bl	409684 <nop_>
  40bdb4:	aa0b03fe 	mov	x30, x11
  40bdb8:	ad8804c0 	stp	q0, q1, [x6,#256]!
  40bdbc:	ad8804c0 	stp	q0, q1, [x6,#256]!
  40bdc0:	adc80440 	ldp	q0, q1, [x2,#256]!
  40bdc4:	ad8804c0 	stp	q0, q1, [x6,#256]!
  40bdc8:	ad8804c0 	stp	q0, q1, [x6,#256]!
  40bdcc:	ad8804c0 	stp	q0, q1, [x6,#256]!
  40bdd0:	aa1e03eb 	mov	x11, x30
  40bdd4:	97fff62c 	bl	409684 <nop_>
  40bdd8:	aa0b03fe 	mov	x30, x11
  40bddc:	ad8804c0 	stp	q0, q1, [x6,#256]!
  40bde0:	adc80440 	ldp	q0, q1, [x2,#256]!
  40bde4:	ad8804c0 	stp	q0, q1, [x6,#256]!
  40bde8:	adc80440 	ldp	q0, q1, [x2,#256]!
  40bdec:	ad8804c0 	stp	q0, q1, [x6,#256]!
  40bdf0:	ad8804c0 	stp	q0, q1, [x6,#256]!
  40bdf4:	aa1e03eb 	mov	x11, x30
  40bdf8:	97fff623 	bl	409684 <nop_>
  40bdfc:	aa0b03fe 	mov	x30, x11
  40be00:	ad8804c0 	stp	q0, q1, [x6,#256]!
  40be04:	ad8804c0 	stp	q0, q1, [x6,#256]!
  40be08:	adc80440 	ldp	q0, q1, [x2,#256]!
  40be0c:	ad8804c0 	stp	q0, q1, [x6,#256]!
  40be10:	ad8804c0 	stp	q0, q1, [x6,#256]!
  40be14:	ad8804c0 	stp	q0, q1, [x6,#256]!
  40be18:	aa1e03eb 	mov	x11, x30
  40be1c:	97fff61a 	bl	409684 <nop_>
  40be20:	aa0b03fe 	mov	x30, x11
  40be24:	adc80440 	ldp	q0, q1, [x2,#256]!
  40be28:	ad8804c0 	stp	q0, q1, [x6,#256]!
  40be2c:	ad8804c0 	stp	q0, q1, [x6,#256]!
  40be30:	ad8804c0 	stp	q0, q1, [x6,#256]!
  40be34:	ad8804c0 	stp	q0, q1, [x6,#256]!
  40be38:	adc80440 	ldp	q0, q1, [x2,#256]!
  40be3c:	aa1e03eb 	mov	x11, x30
  40be40:	97fff611 	bl	409684 <nop_>
  40be44:	aa0b03fe 	mov	x30, x11
  40be48:	adc80440 	ldp	q0, q1, [x2,#256]!
  40be4c:	ad8804c0 	stp	q0, q1, [x6,#256]!
  40be50:	ad8804c0 	stp	q0, q1, [x6,#256]!
  40be54:	ad8804c0 	stp	q0, q1, [x6,#256]!
  40be58:	adc80440 	ldp	q0, q1, [x2,#256]!
  40be5c:	ad8804c0 	stp	q0, q1, [x6,#256]!
  40be60:	aa1e03eb 	mov	x11, x30
  40be64:	97fff608 	bl	409684 <nop_>
  40be68:	aa0b03fe 	mov	x30, x11
  40be6c:	ad8804c0 	stp	q0, q1, [x6,#256]!
  40be70:	adc80440 	ldp	q0, q1, [x2,#256]!
  40be74:	ad8804c0 	stp	q0, q1, [x6,#256]!
  40be78:	ad8804c0 	stp	q0, q1, [x6,#256]!
  40be7c:	ad8804c0 	stp	q0, q1, [x6,#256]!
  40be80:	ad8804c0 	stp	q0, q1, [x6,#256]!
  40be84:	aa1e03eb 	mov	x11, x30
  40be88:	97fff5ff 	bl	409684 <nop_>
  40be8c:	aa0b03fe 	mov	x30, x11
  40be90:	ad8804c0 	stp	q0, q1, [x6,#256]!
  40be94:	adc80440 	ldp	q0, q1, [x2,#256]!
  40be98:	ad8804c0 	stp	q0, q1, [x6,#256]!
  40be9c:	ad8804c0 	stp	q0, q1, [x6,#256]!
  40bea0:	ad8804c0 	stp	q0, q1, [x6,#256]!
  40bea4:	ad8804c0 	stp	q0, q1, [x6,#256]!
  40bea8:	aa1e03eb 	mov	x11, x30
  40beac:	97fff5f6 	bl	409684 <nop_>
  40beb0:	aa0b03fe 	mov	x30, x11
  40beb4:	ad8804c0 	stp	q0, q1, [x6,#256]!
  40beb8:	adc80440 	ldp	q0, q1, [x2,#256]!
  40bebc:	ad8804c0 	stp	q0, q1, [x6,#256]!
  40bec0:	ad8804c0 	stp	q0, q1, [x6,#256]!
  40bec4:	ad8804c0 	stp	q0, q1, [x6,#256]!
  40bec8:	ad8804c0 	stp	q0, q1, [x6,#256]!
  40becc:	aa1e03eb 	mov	x11, x30
  40bed0:	97fff5ed 	bl	409684 <nop_>
  40bed4:	aa0b03fe 	mov	x30, x11
  40bed8:	ad8804c0 	stp	q0, q1, [x6,#256]!
  40bedc:	adc80440 	ldp	q0, q1, [x2,#256]!
  40bee0:	ad8804c0 	stp	q0, q1, [x6,#256]!
  40bee4:	ad8804c0 	stp	q0, q1, [x6,#256]!
  40bee8:	adc80440 	ldp	q0, q1, [x2,#256]!
  40beec:	ad8804c0 	stp	q0, q1, [x6,#256]!
  40bef0:	aa1e03eb 	mov	x11, x30
  40bef4:	97fff5e4 	bl	409684 <nop_>
  40bef8:	aa0b03fe 	mov	x30, x11
  40befc:	ad8804c0 	stp	q0, q1, [x6,#256]!
  40bf00:	adc80440 	ldp	q0, q1, [x2,#256]!
  40bf04:	ad8804c0 	stp	q0, q1, [x6,#256]!
  40bf08:	ad8804c0 	stp	q0, q1, [x6,#256]!
  40bf0c:	adc80440 	ldp	q0, q1, [x2,#256]!
  40bf10:	ad8804c0 	stp	q0, q1, [x6,#256]!
  40bf14:	aa1e03eb 	mov	x11, x30
  40bf18:	97fff5db 	bl	409684 <nop_>
  40bf1c:	aa0b03fe 	mov	x30, x11
  40bf20:	adc80440 	ldp	q0, q1, [x2,#256]!
  40bf24:	ad8804c0 	stp	q0, q1, [x6,#256]!
  40bf28:	ad8804c0 	stp	q0, q1, [x6,#256]!
  40bf2c:	ad8804c0 	stp	q0, q1, [x6,#256]!
  40bf30:	ad8804c0 	stp	q0, q1, [x6,#256]!
  40bf34:	ad8804c0 	stp	q0, q1, [x6,#256]!
  40bf38:	aa1e03eb 	mov	x11, x30
  40bf3c:	97fff5d2 	bl	409684 <nop_>
  40bf40:	aa0b03fe 	mov	x30, x11
  40bf44:	ad8804c0 	stp	q0, q1, [x6,#256]!
  40bf48:	adc80440 	ldp	q0, q1, [x2,#256]!
  40bf4c:	ad8804c0 	stp	q0, q1, [x6,#256]!
  40bf50:	ad8804c0 	stp	q0, q1, [x6,#256]!
  40bf54:	aa1e03eb 	mov	x11, x30
  40bf58:	97fff5cb 	bl	409684 <nop_>
  40bf5c:	aa0b03fe 	mov	x30, x11
  40bf60:	91320021 	add	x1, x1, #0xc80
  40bf64:	eb03003f 	cmp	x1, x3
  40bf68:	5403e20d 	b.le	413ba8 <_Z15STREAM_copy_100PdS_PlPKi+0xe0>
  40bf6c:	d503201f 	nop
  40bf70:	a8c37bfd 	ldp	x29, x30, [sp],#48
  40bf74:	d65f03c0 	ret

000000000040bf78 <_Z14STREAM_copy_26PdS_PlPKi>:
  40bf78:	a9bd7bfd 	stp	x29, x30, [sp,#-48]!
  40bf7c:	910003fd 	mov	x29, sp
  40bf80:	f90017e0 	str	x0, [sp,#40]
  40bf84:	f90013e1 	str	x1, [sp,#32]
  40bf88:	f9000fe2 	str	x2, [sp,#24]
  40bf8c:	f9000be3 	str	x3, [sp,#16]
  40bf90:	d2800000 	mov	x0, #0x0                   	// #0
  40bf94:	d0000060 	adrp	x0, 419000 <_IO_stdin_used+0x8>
  40bf98:	91008001 	add	x1, x0, #0x20
  40bf9c:	f0000100 	adrp	x0, 42e000 <_Znam@GLIBCXX_3.4>
  40bfa0:	91286000 	add	x0, x0, #0xa18
  40bfa4:	97fff3d3 	bl	408ef0 <_ZStlsISt11char_traitsIcEERSt13basic_ostreamIcT_ES5_PKc@plt>
  40bfa8:	aa0003e2 	mov	x2, x0
  40bfac:	f9400be0 	ldr	x0, [sp,#16]
  40bfb0:	b9400000 	ldr	w0, [x0]
  40bfb4:	2a0003e1 	mov	w1, w0
  40bfb8:	aa0203e0 	mov	x0, x2
  40bfbc:	97fff501 	bl	4093c0 <_ZNSolsEi@plt>
  40bfc0:	aa0003e2 	mov	x2, x0
  40bfc4:	d0000060 	adrp	x0, 419000 <_IO_stdin_used+0x8>
  40bfc8:	9100c001 	add	x1, x0, #0x30
  40bfcc:	aa0203e0 	mov	x0, x2
  40bfd0:	97fff3c8 	bl	408ef0 <_ZStlsISt11char_traitsIcEERSt13basic_ostreamIcT_ES5_PKc@plt>
  40bfd4:	f94017e1 	ldr	x1, [sp,#40]
  40bfd8:	97fff36a 	bl	408d80 <_ZNSolsEPKv@plt>
  40bfdc:	aa0003e2 	mov	x2, x0
  40bfe0:	d0000060 	adrp	x0, 419000 <_IO_stdin_used+0x8>
  40bfe4:	91010001 	add	x1, x0, #0x40
  40bfe8:	aa0203e0 	mov	x0, x2
  40bfec:	97fff3c1 	bl	408ef0 <_ZStlsISt11char_traitsIcEERSt13basic_ostreamIcT_ES5_PKc@plt>
  40bff0:	f94013e1 	ldr	x1, [sp,#32]
  40bff4:	97fff363 	bl	408d80 <_ZNSolsEPKv@plt>
  40bff8:	aa0003e2 	mov	x2, x0
  40bffc:	d0000060 	adrp	x0, 419000 <_IO_stdin_used+0x8>
  40c000:	91014001 	add	x1, x0, #0x50
  40c004:	aa0203e0 	mov	x0, x2
  40c008:	97fff3ba 	bl	408ef0 <_ZStlsISt11char_traitsIcEERSt13basic_ostreamIcT_ES5_PKc@plt>
  40c00c:	aa0003e2 	mov	x2, x0
  40c010:	f9400fe0 	ldr	x0, [sp,#24]
  40c014:	f9400000 	ldr	x0, [x0]
  40c018:	aa0003e1 	mov	x1, x0
  40c01c:	aa0203e0 	mov	x0, x2
  40c020:	97fff508 	bl	409440 <_ZNSolsEl@plt>
  40c024:	aa0003e2 	mov	x2, x0
  40c028:	90ffffe0 	adrp	x0, 408000 <_init-0x970>
  40c02c:	912ec001 	add	x1, x0, #0xbb0
  40c030:	aa0203e0 	mov	x0, x2
  40c034:	97fff3c3 	bl	408f40 <_ZNSolsEPFRSoS_E@plt>
  40c038:	f9400fe1 	ldr	x1, [sp,#24]
  40c03c:	f9400023 	ldr	x3, [x1]
  40c040:	f9400be1 	ldr	x1, [sp,#16]
  40c044:	b9400025 	ldr	w5, [x1]
  40c048:	f94017e2 	ldr	x2, [sp,#40]
  40c04c:	f94013e6 	ldr	x6, [sp,#32]
  40c050:	d2800001 	mov	x1, #0x0                   	// #0
  40c054:	aa0503e4 	mov	x4, x5
  40c058:	ad8804c0 	stp	q0, q1, [x6,#256]!
  40c05c:	ad8804c0 	stp	q0, q1, [x6,#256]!
  40c060:	adc80440 	ldp	q0, q1, [x2,#256]!
  40c064:	ad8804c0 	stp	q0, q1, [x6,#256]!
  40c068:	ad8804c0 	stp	q0, q1, [x6,#256]!
  40c06c:	ad8804c0 	stp	q0, q1, [x6,#256]!
  40c070:	aa1e03eb 	mov	x11, x30
  40c074:	97fff584 	bl	409684 <nop_>
  40c078:	aa0b03fe 	mov	x30, x11
  40c07c:	ad8804c0 	stp	q0, q1, [x6,#256]!
  40c080:	adc80440 	ldp	q0, q1, [x2,#256]!
  40c084:	ad8804c0 	stp	q0, q1, [x6,#256]!
  40c088:	ad8804c0 	stp	q0, q1, [x6,#256]!
  40c08c:	ad8804c0 	stp	q0, q1, [x6,#256]!
  40c090:	ad8804c0 	stp	q0, q1, [x6,#256]!
  40c094:	aa1e03eb 	mov	x11, x30
  40c098:	97fff57b 	bl	409684 <nop_>
  40c09c:	aa0b03fe 	mov	x30, x11
  40c0a0:	adc80440 	ldp	q0, q1, [x2,#256]!
  40c0a4:	ad8804c0 	stp	q0, q1, [x6,#256]!
  40c0a8:	ad8804c0 	stp	q0, q1, [x6,#256]!
  40c0ac:	ad8804c0 	stp	q0, q1, [x6,#256]!
  40c0b0:	adc80440 	ldp	q0, q1, [x2,#256]!
  40c0b4:	ad8804c0 	stp	q0, q1, [x6,#256]!
  40c0b8:	aa1e03eb 	mov	x11, x30
  40c0bc:	97fff572 	bl	409684 <nop_>
  40c0c0:	aa0b03fe 	mov	x30, x11
  40c0c4:	ad8804c0 	stp	q0, q1, [x6,#256]!
  40c0c8:	adc80440 	ldp	q0, q1, [x2,#256]!
  40c0cc:	ad8804c0 	stp	q0, q1, [x6,#256]!
  40c0d0:	ad8804c0 	stp	q0, q1, [x6,#256]!
  40c0d4:	adc80440 	ldp	q0, q1, [x2,#256]!
  40c0d8:	ad8804c0 	stp	q0, q1, [x6,#256]!
  40c0dc:	aa1e03eb 	mov	x11, x30
  40c0e0:	97fff569 	bl	409684 <nop_>
  40c0e4:	aa0b03fe 	mov	x30, x11
  40c0e8:	ad8804c0 	stp	q0, q1, [x6,#256]!
  40c0ec:	adc80440 	ldp	q0, q1, [x2,#256]!
  40c0f0:	ad8804c0 	stp	q0, q1, [x6,#256]!
  40c0f4:	ad8804c0 	stp	q0, q1, [x6,#256]!
  40c0f8:	ad8804c0 	stp	q0, q1, [x6,#256]!
  40c0fc:	ad8804c0 	stp	q0, q1, [x6,#256]!
  40c100:	aa1e03eb 	mov	x11, x30
  40c104:	97fff560 	bl	409684 <nop_>
  40c108:	aa0b03fe 	mov	x30, x11
  40c10c:	ad8804c0 	stp	q0, q1, [x6,#256]!
  40c110:	ad8804c0 	stp	q0, q1, [x6,#256]!
  40c114:	adc80440 	ldp	q0, q1, [x2,#256]!
  40c118:	ad8804c0 	stp	q0, q1, [x6,#256]!
  40c11c:	ad8804c0 	stp	q0, q1, [x6,#256]!
  40c120:	ad8804c0 	stp	q0, q1, [x6,#256]!
  40c124:	aa1e03eb 	mov	x11, x30
  40c128:	97fff557 	bl	409684 <nop_>
  40c12c:	aa0b03fe 	mov	x30, x11
  40c130:	ad8804c0 	stp	q0, q1, [x6,#256]!
  40c134:	adc80440 	ldp	q0, q1, [x2,#256]!
  40c138:	ad8804c0 	stp	q0, q1, [x6,#256]!
  40c13c:	adc80440 	ldp	q0, q1, [x2,#256]!
  40c140:	ad8804c0 	stp	q0, q1, [x6,#256]!
  40c144:	ad8804c0 	stp	q0, q1, [x6,#256]!
  40c148:	aa1e03eb 	mov	x11, x30
  40c14c:	97fff54e 	bl	409684 <nop_>
  40c150:	aa0b03fe 	mov	x30, x11
  40c154:	ad8804c0 	stp	q0, q1, [x6,#256]!
  40c158:	ad8804c0 	stp	q0, q1, [x6,#256]!
  40c15c:	adc80440 	ldp	q0, q1, [x2,#256]!
  40c160:	ad8804c0 	stp	q0, q1, [x6,#256]!
  40c164:	adc80440 	ldp	q0, q1, [x2,#256]!
  40c168:	ad8804c0 	stp	q0, q1, [x6,#256]!
  40c16c:	aa1e03eb 	mov	x11, x30
  40c170:	97fff545 	bl	409684 <nop_>
  40c174:	aa0b03fe 	mov	x30, x11
  40c178:	adc80440 	ldp	q0, q1, [x2,#256]!
  40c17c:	ad8804c0 	stp	q0, q1, [x6,#256]!
  40c180:	ad8804c0 	stp	q0, q1, [x6,#256]!
  40c184:	ad8804c0 	stp	q0, q1, [x6,#256]!
  40c188:	ad8804c0 	stp	q0, q1, [x6,#256]!
  40c18c:	adc80440 	ldp	q0, q1, [x2,#256]!
  40c190:	aa1e03eb 	mov	x11, x30
  40c194:	97fff53c 	bl	409684 <nop_>
  40c198:	aa0b03fe 	mov	x30, x11
  40c19c:	adc80440 	ldp	q0, q1, [x2,#256]!
  40c1a0:	ad8804c0 	stp	q0, q1, [x6,#256]!
  40c1a4:	ad8804c0 	stp	q0, q1, [x6,#256]!
  40c1a8:	ad8804c0 	stp	q0, q1, [x6,#256]!
  40c1ac:	adc80440 	ldp	q0, q1, [x2,#256]!
  40c1b0:	ad8804c0 	stp	q0, q1, [x6,#256]!
  40c1b4:	aa1e03eb 	mov	x11, x30
  40c1b8:	97fff533 	bl	409684 <nop_>
  40c1bc:	aa0b03fe 	mov	x30, x11
  40c1c0:	ad8804c0 	stp	q0, q1, [x6,#256]!
  40c1c4:	adc80440 	ldp	q0, q1, [x2,#256]!
  40c1c8:	ad8804c0 	stp	q0, q1, [x6,#256]!
  40c1cc:	ad8804c0 	stp	q0, q1, [x6,#256]!
  40c1d0:	ad8804c0 	stp	q0, q1, [x6,#256]!
  40c1d4:	ad8804c0 	stp	q0, q1, [x6,#256]!
  40c1d8:	aa1e03eb 	mov	x11, x30
  40c1dc:	97fff52a 	bl	409684 <nop_>
  40c1e0:	aa0b03fe 	mov	x30, x11
  40c1e4:	ad8804c0 	stp	q0, q1, [x6,#256]!
  40c1e8:	adc80440 	ldp	q0, q1, [x2,#256]!
  40c1ec:	ad8804c0 	stp	q0, q1, [x6,#256]!
  40c1f0:	ad8804c0 	stp	q0, q1, [x6,#256]!
  40c1f4:	ad8804c0 	stp	q0, q1, [x6,#256]!
  40c1f8:	ad8804c0 	stp	q0, q1, [x6,#256]!
  40c1fc:	aa1e03eb 	mov	x11, x30
  40c200:	97fff521 	bl	409684 <nop_>
  40c204:	aa0b03fe 	mov	x30, x11
  40c208:	ad8804c0 	stp	q0, q1, [x6,#256]!
  40c20c:	adc80440 	ldp	q0, q1, [x2,#256]!
  40c210:	ad8804c0 	stp	q0, q1, [x6,#256]!
  40c214:	adc80440 	ldp	q0, q1, [x2,#256]!
  40c218:	ad8804c0 	stp	q0, q1, [x6,#256]!
  40c21c:	ad8804c0 	stp	q0, q1, [x6,#256]!
  40c220:	aa1e03eb 	mov	x11, x30
  40c224:	97fff518 	bl	409684 <nop_>
  40c228:	aa0b03fe 	mov	x30, x11
  40c22c:	ad8804c0 	stp	q0, q1, [x6,#256]!
  40c230:	adc80440 	ldp	q0, q1, [x2,#256]!
  40c234:	ad8804c0 	stp	q0, q1, [x6,#256]!
  40c238:	ad8804c0 	stp	q0, q1, [x6,#256]!
  40c23c:	adc80440 	ldp	q0, q1, [x2,#256]!
  40c240:	ad8804c0 	stp	q0, q1, [x6,#256]!
  40c244:	aa1e03eb 	mov	x11, x30
  40c248:	97fff50f 	bl	409684 <nop_>
  40c24c:	aa0b03fe 	mov	x30, x11
  40c250:	ad8804c0 	stp	q0, q1, [x6,#256]!
  40c254:	adc80440 	ldp	q0, q1, [x2,#256]!
  40c258:	ad8804c0 	stp	q0, q1, [x6,#256]!
  40c25c:	ad8804c0 	stp	q0, q1, [x6,#256]!
  40c260:	adc80440 	ldp	q0, q1, [x2,#256]!
  40c264:	ad8804c0 	stp	q0, q1, [x6,#256]!
  40c268:	aa1e03eb 	mov	x11, x30
  40c26c:	97fff506 	bl	409684 <nop_>
  40c270:	aa0b03fe 	mov	x30, x11
  40c274:	adc80440 	ldp	q0, q1, [x2,#256]!
  40c278:	ad8804c0 	stp	q0, q1, [x6,#256]!
  40c27c:	ad8804c0 	stp	q0, q1, [x6,#256]!
  40c280:	ad8804c0 	stp	q0, q1, [x6,#256]!
  40c284:	ad8804c0 	stp	q0, q1, [x6,#256]!
  40c288:	ad8804c0 	stp	q0, q1, [x6,#256]!
  40c28c:	aa1e03eb 	mov	x11, x30
  40c290:	97fff4fd 	bl	409684 <nop_>
  40c294:	aa0b03fe 	mov	x30, x11
  40c298:	ad8804c0 	stp	q0, q1, [x6,#256]!
  40c29c:	adc80440 	ldp	q0, q1, [x2,#256]!
  40c2a0:	ad8804c0 	stp	q0, q1, [x6,#256]!
  40c2a4:	ad8804c0 	stp	q0, q1, [x6,#256]!
  40c2a8:	aa1e03eb 	mov	x11, x30
  40c2ac:	97fff4f6 	bl	409684 <nop_>
  40c2b0:	aa0b03fe 	mov	x30, x11
  40c2b4:	91320021 	add	x1, x1, #0xc80
  40c2b8:	eb03003f 	cmp	x1, x3
  40c2bc:	5403c76d 	b.le	413ba8 <_Z15STREAM_copy_100PdS_PlPKi+0xe0>
  40c2c0:	d503201f 	nop
  40c2c4:	a8c37bfd 	ldp	x29, x30, [sp],#48
  40c2c8:	d65f03c0 	ret

000000000040c2cc <_Z14STREAM_copy_28PdS_PlPKi>:
  40c2cc:	a9bd7bfd 	stp	x29, x30, [sp,#-48]!
  40c2d0:	910003fd 	mov	x29, sp
  40c2d4:	f90017e0 	str	x0, [sp,#40]
  40c2d8:	f90013e1 	str	x1, [sp,#32]
  40c2dc:	f9000fe2 	str	x2, [sp,#24]
  40c2e0:	f9000be3 	str	x3, [sp,#16]
  40c2e4:	d2800000 	mov	x0, #0x0                   	// #0
  40c2e8:	b0000060 	adrp	x0, 419000 <_IO_stdin_used+0x8>
  40c2ec:	91008001 	add	x1, x0, #0x20
  40c2f0:	d0000100 	adrp	x0, 42e000 <_Znam@GLIBCXX_3.4>
  40c2f4:	91286000 	add	x0, x0, #0xa18
  40c2f8:	97fff2fe 	bl	408ef0 <_ZStlsISt11char_traitsIcEERSt13basic_ostreamIcT_ES5_PKc@plt>
  40c2fc:	aa0003e2 	mov	x2, x0
  40c300:	f9400be0 	ldr	x0, [sp,#16]
  40c304:	b9400000 	ldr	w0, [x0]
  40c308:	2a0003e1 	mov	w1, w0
  40c30c:	aa0203e0 	mov	x0, x2
  40c310:	97fff42c 	bl	4093c0 <_ZNSolsEi@plt>
  40c314:	aa0003e2 	mov	x2, x0
  40c318:	b0000060 	adrp	x0, 419000 <_IO_stdin_used+0x8>
  40c31c:	9100c001 	add	x1, x0, #0x30
  40c320:	aa0203e0 	mov	x0, x2
  40c324:	97fff2f3 	bl	408ef0 <_ZStlsISt11char_traitsIcEERSt13basic_ostreamIcT_ES5_PKc@plt>
  40c328:	f94017e1 	ldr	x1, [sp,#40]
  40c32c:	97fff295 	bl	408d80 <_ZNSolsEPKv@plt>
  40c330:	aa0003e2 	mov	x2, x0
  40c334:	b0000060 	adrp	x0, 419000 <_IO_stdin_used+0x8>
  40c338:	91010001 	add	x1, x0, #0x40
  40c33c:	aa0203e0 	mov	x0, x2
  40c340:	97fff2ec 	bl	408ef0 <_ZStlsISt11char_traitsIcEERSt13basic_ostreamIcT_ES5_PKc@plt>
  40c344:	f94013e1 	ldr	x1, [sp,#32]
  40c348:	97fff28e 	bl	408d80 <_ZNSolsEPKv@plt>
  40c34c:	aa0003e2 	mov	x2, x0
  40c350:	b0000060 	adrp	x0, 419000 <_IO_stdin_used+0x8>
  40c354:	91014001 	add	x1, x0, #0x50
  40c358:	aa0203e0 	mov	x0, x2
  40c35c:	97fff2e5 	bl	408ef0 <_ZStlsISt11char_traitsIcEERSt13basic_ostreamIcT_ES5_PKc@plt>
  40c360:	aa0003e2 	mov	x2, x0
  40c364:	f9400fe0 	ldr	x0, [sp,#24]
  40c368:	f9400000 	ldr	x0, [x0]
  40c36c:	aa0003e1 	mov	x1, x0
  40c370:	aa0203e0 	mov	x0, x2
  40c374:	97fff433 	bl	409440 <_ZNSolsEl@plt>
  40c378:	aa0003e2 	mov	x2, x0
  40c37c:	90ffffe0 	adrp	x0, 408000 <_init-0x970>
  40c380:	912ec001 	add	x1, x0, #0xbb0
  40c384:	aa0203e0 	mov	x0, x2
  40c388:	97fff2ee 	bl	408f40 <_ZNSolsEPFRSoS_E@plt>
  40c38c:	f9400fe1 	ldr	x1, [sp,#24]
  40c390:	f9400023 	ldr	x3, [x1]
  40c394:	f9400be1 	ldr	x1, [sp,#16]
  40c398:	b9400025 	ldr	w5, [x1]
  40c39c:	f94017e2 	ldr	x2, [sp,#40]
  40c3a0:	f94013e6 	ldr	x6, [sp,#32]
  40c3a4:	d2800001 	mov	x1, #0x0                   	// #0
  40c3a8:	aa0503e4 	mov	x4, x5
  40c3ac:	ad8804c0 	stp	q0, q1, [x6,#256]!
  40c3b0:	ad8804c0 	stp	q0, q1, [x6,#256]!
  40c3b4:	adc80440 	ldp	q0, q1, [x2,#256]!
  40c3b8:	ad8804c0 	stp	q0, q1, [x6,#256]!
  40c3bc:	ad8804c0 	stp	q0, q1, [x6,#256]!
  40c3c0:	ad8804c0 	stp	q0, q1, [x6,#256]!
  40c3c4:	aa1e03eb 	mov	x11, x30
  40c3c8:	97fff4af 	bl	409684 <nop_>
  40c3cc:	aa0b03fe 	mov	x30, x11
  40c3d0:	ad8804c0 	stp	q0, q1, [x6,#256]!
  40c3d4:	adc80440 	ldp	q0, q1, [x2,#256]!
  40c3d8:	ad8804c0 	stp	q0, q1, [x6,#256]!
  40c3dc:	ad8804c0 	stp	q0, q1, [x6,#256]!
  40c3e0:	ad8804c0 	stp	q0, q1, [x6,#256]!
  40c3e4:	ad8804c0 	stp	q0, q1, [x6,#256]!
  40c3e8:	aa1e03eb 	mov	x11, x30
  40c3ec:	97fff4a6 	bl	409684 <nop_>
  40c3f0:	aa0b03fe 	mov	x30, x11
  40c3f4:	adc80440 	ldp	q0, q1, [x2,#256]!
  40c3f8:	ad8804c0 	stp	q0, q1, [x6,#256]!
  40c3fc:	ad8804c0 	stp	q0, q1, [x6,#256]!
  40c400:	ad8804c0 	stp	q0, q1, [x6,#256]!
  40c404:	adc80440 	ldp	q0, q1, [x2,#256]!
  40c408:	ad8804c0 	stp	q0, q1, [x6,#256]!
  40c40c:	aa1e03eb 	mov	x11, x30
  40c410:	97fff49d 	bl	409684 <nop_>
  40c414:	aa0b03fe 	mov	x30, x11
  40c418:	ad8804c0 	stp	q0, q1, [x6,#256]!
  40c41c:	adc80440 	ldp	q0, q1, [x2,#256]!
  40c420:	ad8804c0 	stp	q0, q1, [x6,#256]!
  40c424:	ad8804c0 	stp	q0, q1, [x6,#256]!
  40c428:	adc80440 	ldp	q0, q1, [x2,#256]!
  40c42c:	ad8804c0 	stp	q0, q1, [x6,#256]!
  40c430:	aa1e03eb 	mov	x11, x30
  40c434:	97fff494 	bl	409684 <nop_>
  40c438:	aa0b03fe 	mov	x30, x11
  40c43c:	ad8804c0 	stp	q0, q1, [x6,#256]!
  40c440:	adc80440 	ldp	q0, q1, [x2,#256]!
  40c444:	ad8804c0 	stp	q0, q1, [x6,#256]!
  40c448:	ad8804c0 	stp	q0, q1, [x6,#256]!
  40c44c:	adc80440 	ldp	q0, q1, [x2,#256]!
  40c450:	ad8804c0 	stp	q0, q1, [x6,#256]!
  40c454:	aa1e03eb 	mov	x11, x30
  40c458:	97fff48b 	bl	409684 <nop_>
  40c45c:	aa0b03fe 	mov	x30, x11
  40c460:	ad8804c0 	stp	q0, q1, [x6,#256]!
  40c464:	ad8804c0 	stp	q0, q1, [x6,#256]!
  40c468:	adc80440 	ldp	q0, q1, [x2,#256]!
  40c46c:	ad8804c0 	stp	q0, q1, [x6,#256]!
  40c470:	ad8804c0 	stp	q0, q1, [x6,#256]!
  40c474:	ad8804c0 	stp	q0, q1, [x6,#256]!
  40c478:	aa1e03eb 	mov	x11, x30
  40c47c:	97fff482 	bl	409684 <nop_>
  40c480:	aa0b03fe 	mov	x30, x11
  40c484:	ad8804c0 	stp	q0, q1, [x6,#256]!
  40c488:	adc80440 	ldp	q0, q1, [x2,#256]!
  40c48c:	ad8804c0 	stp	q0, q1, [x6,#256]!
  40c490:	adc80440 	ldp	q0, q1, [x2,#256]!
  40c494:	ad8804c0 	stp	q0, q1, [x6,#256]!
  40c498:	ad8804c0 	stp	q0, q1, [x6,#256]!
  40c49c:	aa1e03eb 	mov	x11, x30
  40c4a0:	97fff479 	bl	409684 <nop_>
  40c4a4:	aa0b03fe 	mov	x30, x11
  40c4a8:	ad8804c0 	stp	q0, q1, [x6,#256]!
  40c4ac:	ad8804c0 	stp	q0, q1, [x6,#256]!
  40c4b0:	adc80440 	ldp	q0, q1, [x2,#256]!
  40c4b4:	ad8804c0 	stp	q0, q1, [x6,#256]!
  40c4b8:	adc80440 	ldp	q0, q1, [x2,#256]!
  40c4bc:	ad8804c0 	stp	q0, q1, [x6,#256]!
  40c4c0:	aa1e03eb 	mov	x11, x30
  40c4c4:	97fff470 	bl	409684 <nop_>
  40c4c8:	aa0b03fe 	mov	x30, x11
  40c4cc:	adc80440 	ldp	q0, q1, [x2,#256]!
  40c4d0:	ad8804c0 	stp	q0, q1, [x6,#256]!
  40c4d4:	ad8804c0 	stp	q0, q1, [x6,#256]!
  40c4d8:	ad8804c0 	stp	q0, q1, [x6,#256]!
  40c4dc:	ad8804c0 	stp	q0, q1, [x6,#256]!
  40c4e0:	adc80440 	ldp	q0, q1, [x2,#256]!
  40c4e4:	aa1e03eb 	mov	x11, x30
  40c4e8:	97fff467 	bl	409684 <nop_>
  40c4ec:	aa0b03fe 	mov	x30, x11
  40c4f0:	adc80440 	ldp	q0, q1, [x2,#256]!
  40c4f4:	ad8804c0 	stp	q0, q1, [x6,#256]!
  40c4f8:	ad8804c0 	stp	q0, q1, [x6,#256]!
  40c4fc:	ad8804c0 	stp	q0, q1, [x6,#256]!
  40c500:	adc80440 	ldp	q0, q1, [x2,#256]!
  40c504:	ad8804c0 	stp	q0, q1, [x6,#256]!
  40c508:	aa1e03eb 	mov	x11, x30
  40c50c:	97fff45e 	bl	409684 <nop_>
  40c510:	aa0b03fe 	mov	x30, x11
  40c514:	ad8804c0 	stp	q0, q1, [x6,#256]!
  40c518:	adc80440 	ldp	q0, q1, [x2,#256]!
  40c51c:	ad8804c0 	stp	q0, q1, [x6,#256]!
  40c520:	ad8804c0 	stp	q0, q1, [x6,#256]!
  40c524:	ad8804c0 	stp	q0, q1, [x6,#256]!
  40c528:	ad8804c0 	stp	q0, q1, [x6,#256]!
  40c52c:	aa1e03eb 	mov	x11, x30
  40c530:	97fff455 	bl	409684 <nop_>
  40c534:	aa0b03fe 	mov	x30, x11
  40c538:	ad8804c0 	stp	q0, q1, [x6,#256]!
  40c53c:	adc80440 	ldp	q0, q1, [x2,#256]!
  40c540:	ad8804c0 	stp	q0, q1, [x6,#256]!
  40c544:	ad8804c0 	stp	q0, q1, [x6,#256]!
  40c548:	adc80440 	ldp	q0, q1, [x2,#256]!
  40c54c:	ad8804c0 	stp	q0, q1, [x6,#256]!
  40c550:	aa1e03eb 	mov	x11, x30
  40c554:	97fff44c 	bl	409684 <nop_>
  40c558:	aa0b03fe 	mov	x30, x11
  40c55c:	ad8804c0 	stp	q0, q1, [x6,#256]!
  40c560:	adc80440 	ldp	q0, q1, [x2,#256]!
  40c564:	ad8804c0 	stp	q0, q1, [x6,#256]!
  40c568:	adc80440 	ldp	q0, q1, [x2,#256]!
  40c56c:	ad8804c0 	stp	q0, q1, [x6,#256]!
  40c570:	ad8804c0 	stp	q0, q1, [x6,#256]!
  40c574:	aa1e03eb 	mov	x11, x30
  40c578:	97fff443 	bl	409684 <nop_>
  40c57c:	aa0b03fe 	mov	x30, x11
  40c580:	ad8804c0 	stp	q0, q1, [x6,#256]!
  40c584:	adc80440 	ldp	q0, q1, [x2,#256]!
  40c588:	ad8804c0 	stp	q0, q1, [x6,#256]!
  40c58c:	ad8804c0 	stp	q0, q1, [x6,#256]!
  40c590:	adc80440 	ldp	q0, q1, [x2,#256]!
  40c594:	ad8804c0 	stp	q0, q1, [x6,#256]!
  40c598:	aa1e03eb 	mov	x11, x30
  40c59c:	97fff43a 	bl	409684 <nop_>
  40c5a0:	aa0b03fe 	mov	x30, x11
  40c5a4:	ad8804c0 	stp	q0, q1, [x6,#256]!
  40c5a8:	adc80440 	ldp	q0, q1, [x2,#256]!
  40c5ac:	ad8804c0 	stp	q0, q1, [x6,#256]!
  40c5b0:	ad8804c0 	stp	q0, q1, [x6,#256]!
  40c5b4:	adc80440 	ldp	q0, q1, [x2,#256]!
  40c5b8:	ad8804c0 	stp	q0, q1, [x6,#256]!
  40c5bc:	aa1e03eb 	mov	x11, x30
  40c5c0:	97fff431 	bl	409684 <nop_>
  40c5c4:	aa0b03fe 	mov	x30, x11
  40c5c8:	adc80440 	ldp	q0, q1, [x2,#256]!
  40c5cc:	ad8804c0 	stp	q0, q1, [x6,#256]!
  40c5d0:	ad8804c0 	stp	q0, q1, [x6,#256]!
  40c5d4:	ad8804c0 	stp	q0, q1, [x6,#256]!
  40c5d8:	ad8804c0 	stp	q0, q1, [x6,#256]!
  40c5dc:	ad8804c0 	stp	q0, q1, [x6,#256]!
  40c5e0:	aa1e03eb 	mov	x11, x30
  40c5e4:	97fff428 	bl	409684 <nop_>
  40c5e8:	aa0b03fe 	mov	x30, x11
  40c5ec:	ad8804c0 	stp	q0, q1, [x6,#256]!
  40c5f0:	adc80440 	ldp	q0, q1, [x2,#256]!
  40c5f4:	ad8804c0 	stp	q0, q1, [x6,#256]!
  40c5f8:	ad8804c0 	stp	q0, q1, [x6,#256]!
  40c5fc:	aa1e03eb 	mov	x11, x30
  40c600:	97fff421 	bl	409684 <nop_>
  40c604:	aa0b03fe 	mov	x30, x11
  40c608:	91320021 	add	x1, x1, #0xc80
  40c60c:	eb03003f 	cmp	x1, x3
  40c610:	5403accd 	b.le	413ba8 <_Z15STREAM_copy_100PdS_PlPKi+0xe0>
  40c614:	d503201f 	nop
  40c618:	a8c37bfd 	ldp	x29, x30, [sp],#48
  40c61c:	d65f03c0 	ret

000000000040c620 <_Z14STREAM_copy_30PdS_PlPKi>:
  40c620:	a9bd7bfd 	stp	x29, x30, [sp,#-48]!
  40c624:	910003fd 	mov	x29, sp
  40c628:	f90017e0 	str	x0, [sp,#40]
  40c62c:	f90013e1 	str	x1, [sp,#32]
  40c630:	f9000fe2 	str	x2, [sp,#24]
  40c634:	f9000be3 	str	x3, [sp,#16]
  40c638:	d2800000 	mov	x0, #0x0                   	// #0
  40c63c:	b0000060 	adrp	x0, 419000 <_IO_stdin_used+0x8>
  40c640:	91008001 	add	x1, x0, #0x20
  40c644:	d0000100 	adrp	x0, 42e000 <_Znam@GLIBCXX_3.4>
  40c648:	91286000 	add	x0, x0, #0xa18
  40c64c:	97fff229 	bl	408ef0 <_ZStlsISt11char_traitsIcEERSt13basic_ostreamIcT_ES5_PKc@plt>
  40c650:	aa0003e2 	mov	x2, x0
  40c654:	f9400be0 	ldr	x0, [sp,#16]
  40c658:	b9400000 	ldr	w0, [x0]
  40c65c:	2a0003e1 	mov	w1, w0
  40c660:	aa0203e0 	mov	x0, x2
  40c664:	97fff357 	bl	4093c0 <_ZNSolsEi@plt>
  40c668:	aa0003e2 	mov	x2, x0
  40c66c:	b0000060 	adrp	x0, 419000 <_IO_stdin_used+0x8>
  40c670:	9100c001 	add	x1, x0, #0x30
  40c674:	aa0203e0 	mov	x0, x2
  40c678:	97fff21e 	bl	408ef0 <_ZStlsISt11char_traitsIcEERSt13basic_ostreamIcT_ES5_PKc@plt>
  40c67c:	f94017e1 	ldr	x1, [sp,#40]
  40c680:	97fff1c0 	bl	408d80 <_ZNSolsEPKv@plt>
  40c684:	aa0003e2 	mov	x2, x0
  40c688:	b0000060 	adrp	x0, 419000 <_IO_stdin_used+0x8>
  40c68c:	91010001 	add	x1, x0, #0x40
  40c690:	aa0203e0 	mov	x0, x2
  40c694:	97fff217 	bl	408ef0 <_ZStlsISt11char_traitsIcEERSt13basic_ostreamIcT_ES5_PKc@plt>
  40c698:	f94013e1 	ldr	x1, [sp,#32]
  40c69c:	97fff1b9 	bl	408d80 <_ZNSolsEPKv@plt>
  40c6a0:	aa0003e2 	mov	x2, x0
  40c6a4:	b0000060 	adrp	x0, 419000 <_IO_stdin_used+0x8>
  40c6a8:	91014001 	add	x1, x0, #0x50
  40c6ac:	aa0203e0 	mov	x0, x2
  40c6b0:	97fff210 	bl	408ef0 <_ZStlsISt11char_traitsIcEERSt13basic_ostreamIcT_ES5_PKc@plt>
  40c6b4:	aa0003e2 	mov	x2, x0
  40c6b8:	f9400fe0 	ldr	x0, [sp,#24]
  40c6bc:	f9400000 	ldr	x0, [x0]
  40c6c0:	aa0003e1 	mov	x1, x0
  40c6c4:	aa0203e0 	mov	x0, x2
  40c6c8:	97fff35e 	bl	409440 <_ZNSolsEl@plt>
  40c6cc:	aa0003e2 	mov	x2, x0
  40c6d0:	90ffffe0 	adrp	x0, 408000 <_init-0x970>
  40c6d4:	912ec001 	add	x1, x0, #0xbb0
  40c6d8:	aa0203e0 	mov	x0, x2
  40c6dc:	97fff219 	bl	408f40 <_ZNSolsEPFRSoS_E@plt>
  40c6e0:	f9400fe1 	ldr	x1, [sp,#24]
  40c6e4:	f9400023 	ldr	x3, [x1]
  40c6e8:	f9400be1 	ldr	x1, [sp,#16]
  40c6ec:	b9400025 	ldr	w5, [x1]
  40c6f0:	f94017e2 	ldr	x2, [sp,#40]
  40c6f4:	f94013e6 	ldr	x6, [sp,#32]
  40c6f8:	d2800001 	mov	x1, #0x0                   	// #0
  40c6fc:	aa0503e4 	mov	x4, x5
  40c700:	ad8804c0 	stp	q0, q1, [x6,#256]!
  40c704:	ad8804c0 	stp	q0, q1, [x6,#256]!
  40c708:	adc80440 	ldp	q0, q1, [x2,#256]!
  40c70c:	ad8804c0 	stp	q0, q1, [x6,#256]!
  40c710:	adc80440 	ldp	q0, q1, [x2,#256]!
  40c714:	ad8804c0 	stp	q0, q1, [x6,#256]!
  40c718:	aa1e03eb 	mov	x11, x30
  40c71c:	97fff3da 	bl	409684 <nop_>
  40c720:	aa0b03fe 	mov	x30, x11
  40c724:	ad8804c0 	stp	q0, q1, [x6,#256]!
  40c728:	adc80440 	ldp	q0, q1, [x2,#256]!
  40c72c:	ad8804c0 	stp	q0, q1, [x6,#256]!
  40c730:	ad8804c0 	stp	q0, q1, [x6,#256]!
  40c734:	ad8804c0 	stp	q0, q1, [x6,#256]!
  40c738:	ad8804c0 	stp	q0, q1, [x6,#256]!
  40c73c:	aa1e03eb 	mov	x11, x30
  40c740:	97fff3d1 	bl	409684 <nop_>
  40c744:	aa0b03fe 	mov	x30, x11
  40c748:	adc80440 	ldp	q0, q1, [x2,#256]!
  40c74c:	ad8804c0 	stp	q0, q1, [x6,#256]!
  40c750:	ad8804c0 	stp	q0, q1, [x6,#256]!
  40c754:	ad8804c0 	stp	q0, q1, [x6,#256]!
  40c758:	adc80440 	ldp	q0, q1, [x2,#256]!
  40c75c:	ad8804c0 	stp	q0, q1, [x6,#256]!
  40c760:	aa1e03eb 	mov	x11, x30
  40c764:	97fff3c8 	bl	409684 <nop_>
  40c768:	aa0b03fe 	mov	x30, x11
  40c76c:	ad8804c0 	stp	q0, q1, [x6,#256]!
  40c770:	adc80440 	ldp	q0, q1, [x2,#256]!
  40c774:	ad8804c0 	stp	q0, q1, [x6,#256]!
  40c778:	ad8804c0 	stp	q0, q1, [x6,#256]!
  40c77c:	adc80440 	ldp	q0, q1, [x2,#256]!
  40c780:	ad8804c0 	stp	q0, q1, [x6,#256]!
  40c784:	aa1e03eb 	mov	x11, x30
  40c788:	97fff3bf 	bl	409684 <nop_>
  40c78c:	aa0b03fe 	mov	x30, x11
  40c790:	ad8804c0 	stp	q0, q1, [x6,#256]!
  40c794:	adc80440 	ldp	q0, q1, [x2,#256]!
  40c798:	ad8804c0 	stp	q0, q1, [x6,#256]!
  40c79c:	ad8804c0 	stp	q0, q1, [x6,#256]!
  40c7a0:	adc80440 	ldp	q0, q1, [x2,#256]!
  40c7a4:	ad8804c0 	stp	q0, q1, [x6,#256]!
  40c7a8:	aa1e03eb 	mov	x11, x30
  40c7ac:	97fff3b6 	bl	409684 <nop_>
  40c7b0:	aa0b03fe 	mov	x30, x11
  40c7b4:	ad8804c0 	stp	q0, q1, [x6,#256]!
  40c7b8:	ad8804c0 	stp	q0, q1, [x6,#256]!
  40c7bc:	adc80440 	ldp	q0, q1, [x2,#256]!
  40c7c0:	ad8804c0 	stp	q0, q1, [x6,#256]!
  40c7c4:	ad8804c0 	stp	q0, q1, [x6,#256]!
  40c7c8:	ad8804c0 	stp	q0, q1, [x6,#256]!
  40c7cc:	aa1e03eb 	mov	x11, x30
  40c7d0:	97fff3ad 	bl	409684 <nop_>
  40c7d4:	aa0b03fe 	mov	x30, x11
  40c7d8:	ad8804c0 	stp	q0, q1, [x6,#256]!
  40c7dc:	adc80440 	ldp	q0, q1, [x2,#256]!
  40c7e0:	ad8804c0 	stp	q0, q1, [x6,#256]!
  40c7e4:	adc80440 	ldp	q0, q1, [x2,#256]!
  40c7e8:	ad8804c0 	stp	q0, q1, [x6,#256]!
  40c7ec:	ad8804c0 	stp	q0, q1, [x6,#256]!
  40c7f0:	aa1e03eb 	mov	x11, x30
  40c7f4:	97fff3a4 	bl	409684 <nop_>
  40c7f8:	aa0b03fe 	mov	x30, x11
  40c7fc:	ad8804c0 	stp	q0, q1, [x6,#256]!
  40c800:	ad8804c0 	stp	q0, q1, [x6,#256]!
  40c804:	adc80440 	ldp	q0, q1, [x2,#256]!
  40c808:	ad8804c0 	stp	q0, q1, [x6,#256]!
  40c80c:	adc80440 	ldp	q0, q1, [x2,#256]!
  40c810:	ad8804c0 	stp	q0, q1, [x6,#256]!
  40c814:	aa1e03eb 	mov	x11, x30
  40c818:	97fff39b 	bl	409684 <nop_>
  40c81c:	aa0b03fe 	mov	x30, x11
  40c820:	adc80440 	ldp	q0, q1, [x2,#256]!
  40c824:	ad8804c0 	stp	q0, q1, [x6,#256]!
  40c828:	ad8804c0 	stp	q0, q1, [x6,#256]!
  40c82c:	ad8804c0 	stp	q0, q1, [x6,#256]!
  40c830:	ad8804c0 	stp	q0, q1, [x6,#256]!
  40c834:	adc80440 	ldp	q0, q1, [x2,#256]!
  40c838:	aa1e03eb 	mov	x11, x30
  40c83c:	97fff392 	bl	409684 <nop_>
  40c840:	aa0b03fe 	mov	x30, x11
  40c844:	adc80440 	ldp	q0, q1, [x2,#256]!
  40c848:	ad8804c0 	stp	q0, q1, [x6,#256]!
  40c84c:	ad8804c0 	stp	q0, q1, [x6,#256]!
  40c850:	ad8804c0 	stp	q0, q1, [x6,#256]!
  40c854:	adc80440 	ldp	q0, q1, [x2,#256]!
  40c858:	ad8804c0 	stp	q0, q1, [x6,#256]!
  40c85c:	aa1e03eb 	mov	x11, x30
  40c860:	97fff389 	bl	409684 <nop_>
  40c864:	aa0b03fe 	mov	x30, x11
  40c868:	ad8804c0 	stp	q0, q1, [x6,#256]!
  40c86c:	adc80440 	ldp	q0, q1, [x2,#256]!
  40c870:	ad8804c0 	stp	q0, q1, [x6,#256]!
  40c874:	adc80440 	ldp	q0, q1, [x2,#256]!
  40c878:	ad8804c0 	stp	q0, q1, [x6,#256]!
  40c87c:	ad8804c0 	stp	q0, q1, [x6,#256]!
  40c880:	aa1e03eb 	mov	x11, x30
  40c884:	97fff380 	bl	409684 <nop_>
  40c888:	aa0b03fe 	mov	x30, x11
  40c88c:	ad8804c0 	stp	q0, q1, [x6,#256]!
  40c890:	adc80440 	ldp	q0, q1, [x2,#256]!
  40c894:	ad8804c0 	stp	q0, q1, [x6,#256]!
  40c898:	ad8804c0 	stp	q0, q1, [x6,#256]!
  40c89c:	adc80440 	ldp	q0, q1, [x2,#256]!
  40c8a0:	ad8804c0 	stp	q0, q1, [x6,#256]!
  40c8a4:	aa1e03eb 	mov	x11, x30
  40c8a8:	97fff377 	bl	409684 <nop_>
  40c8ac:	aa0b03fe 	mov	x30, x11
  40c8b0:	ad8804c0 	stp	q0, q1, [x6,#256]!
  40c8b4:	adc80440 	ldp	q0, q1, [x2,#256]!
  40c8b8:	ad8804c0 	stp	q0, q1, [x6,#256]!
  40c8bc:	adc80440 	ldp	q0, q1, [x2,#256]!
  40c8c0:	ad8804c0 	stp	q0, q1, [x6,#256]!
  40c8c4:	ad8804c0 	stp	q0, q1, [x6,#256]!
  40c8c8:	aa1e03eb 	mov	x11, x30
  40c8cc:	97fff36e 	bl	409684 <nop_>
  40c8d0:	aa0b03fe 	mov	x30, x11
  40c8d4:	ad8804c0 	stp	q0, q1, [x6,#256]!
  40c8d8:	adc80440 	ldp	q0, q1, [x2,#256]!
  40c8dc:	ad8804c0 	stp	q0, q1, [x6,#256]!
  40c8e0:	ad8804c0 	stp	q0, q1, [x6,#256]!
  40c8e4:	adc80440 	ldp	q0, q1, [x2,#256]!
  40c8e8:	ad8804c0 	stp	q0, q1, [x6,#256]!
  40c8ec:	aa1e03eb 	mov	x11, x30
  40c8f0:	97fff365 	bl	409684 <nop_>
  40c8f4:	aa0b03fe 	mov	x30, x11
  40c8f8:	ad8804c0 	stp	q0, q1, [x6,#256]!
  40c8fc:	adc80440 	ldp	q0, q1, [x2,#256]!
  40c900:	ad8804c0 	stp	q0, q1, [x6,#256]!
  40c904:	ad8804c0 	stp	q0, q1, [x6,#256]!
  40c908:	adc80440 	ldp	q0, q1, [x2,#256]!
  40c90c:	ad8804c0 	stp	q0, q1, [x6,#256]!
  40c910:	aa1e03eb 	mov	x11, x30
  40c914:	97fff35c 	bl	409684 <nop_>
  40c918:	aa0b03fe 	mov	x30, x11
  40c91c:	adc80440 	ldp	q0, q1, [x2,#256]!
  40c920:	ad8804c0 	stp	q0, q1, [x6,#256]!
  40c924:	ad8804c0 	stp	q0, q1, [x6,#256]!
  40c928:	ad8804c0 	stp	q0, q1, [x6,#256]!
  40c92c:	ad8804c0 	stp	q0, q1, [x6,#256]!
  40c930:	ad8804c0 	stp	q0, q1, [x6,#256]!
  40c934:	aa1e03eb 	mov	x11, x30
  40c938:	97fff353 	bl	409684 <nop_>
  40c93c:	aa0b03fe 	mov	x30, x11
  40c940:	ad8804c0 	stp	q0, q1, [x6,#256]!
  40c944:	adc80440 	ldp	q0, q1, [x2,#256]!
  40c948:	ad8804c0 	stp	q0, q1, [x6,#256]!
  40c94c:	ad8804c0 	stp	q0, q1, [x6,#256]!
  40c950:	aa1e03eb 	mov	x11, x30
  40c954:	97fff34c 	bl	409684 <nop_>
  40c958:	aa0b03fe 	mov	x30, x11
  40c95c:	91320021 	add	x1, x1, #0xc80
  40c960:	eb03003f 	cmp	x1, x3
  40c964:	5403922d 	b.le	413ba8 <_Z15STREAM_copy_100PdS_PlPKi+0xe0>
  40c968:	d503201f 	nop
  40c96c:	a8c37bfd 	ldp	x29, x30, [sp],#48
  40c970:	d65f03c0 	ret

000000000040c974 <_Z14STREAM_copy_32PdS_PlPKi>:
  40c974:	a9bd7bfd 	stp	x29, x30, [sp,#-48]!
  40c978:	910003fd 	mov	x29, sp
  40c97c:	f90017e0 	str	x0, [sp,#40]
  40c980:	f90013e1 	str	x1, [sp,#32]
  40c984:	f9000fe2 	str	x2, [sp,#24]
  40c988:	f9000be3 	str	x3, [sp,#16]
  40c98c:	d2800000 	mov	x0, #0x0                   	// #0
  40c990:	b0000060 	adrp	x0, 419000 <_IO_stdin_used+0x8>
  40c994:	91008001 	add	x1, x0, #0x20
  40c998:	d0000100 	adrp	x0, 42e000 <_Znam@GLIBCXX_3.4>
  40c99c:	91286000 	add	x0, x0, #0xa18
  40c9a0:	97fff154 	bl	408ef0 <_ZStlsISt11char_traitsIcEERSt13basic_ostreamIcT_ES5_PKc@plt>
  40c9a4:	aa0003e2 	mov	x2, x0
  40c9a8:	f9400be0 	ldr	x0, [sp,#16]
  40c9ac:	b9400000 	ldr	w0, [x0]
  40c9b0:	2a0003e1 	mov	w1, w0
  40c9b4:	aa0203e0 	mov	x0, x2
  40c9b8:	97fff282 	bl	4093c0 <_ZNSolsEi@plt>
  40c9bc:	aa0003e2 	mov	x2, x0
  40c9c0:	b0000060 	adrp	x0, 419000 <_IO_stdin_used+0x8>
  40c9c4:	9100c001 	add	x1, x0, #0x30
  40c9c8:	aa0203e0 	mov	x0, x2
  40c9cc:	97fff149 	bl	408ef0 <_ZStlsISt11char_traitsIcEERSt13basic_ostreamIcT_ES5_PKc@plt>
  40c9d0:	f94017e1 	ldr	x1, [sp,#40]
  40c9d4:	97fff0eb 	bl	408d80 <_ZNSolsEPKv@plt>
  40c9d8:	aa0003e2 	mov	x2, x0
  40c9dc:	b0000060 	adrp	x0, 419000 <_IO_stdin_used+0x8>
  40c9e0:	91010001 	add	x1, x0, #0x40
  40c9e4:	aa0203e0 	mov	x0, x2
  40c9e8:	97fff142 	bl	408ef0 <_ZStlsISt11char_traitsIcEERSt13basic_ostreamIcT_ES5_PKc@plt>
  40c9ec:	f94013e1 	ldr	x1, [sp,#32]
  40c9f0:	97fff0e4 	bl	408d80 <_ZNSolsEPKv@plt>
  40c9f4:	aa0003e2 	mov	x2, x0
  40c9f8:	b0000060 	adrp	x0, 419000 <_IO_stdin_used+0x8>
  40c9fc:	91014001 	add	x1, x0, #0x50
  40ca00:	aa0203e0 	mov	x0, x2
  40ca04:	97fff13b 	bl	408ef0 <_ZStlsISt11char_traitsIcEERSt13basic_ostreamIcT_ES5_PKc@plt>
  40ca08:	aa0003e2 	mov	x2, x0
  40ca0c:	f9400fe0 	ldr	x0, [sp,#24]
  40ca10:	f9400000 	ldr	x0, [x0]
  40ca14:	aa0003e1 	mov	x1, x0
  40ca18:	aa0203e0 	mov	x0, x2
  40ca1c:	97fff289 	bl	409440 <_ZNSolsEl@plt>
  40ca20:	aa0003e2 	mov	x2, x0
  40ca24:	90ffffe0 	adrp	x0, 408000 <_init-0x970>
  40ca28:	912ec001 	add	x1, x0, #0xbb0
  40ca2c:	aa0203e0 	mov	x0, x2
  40ca30:	97fff144 	bl	408f40 <_ZNSolsEPFRSoS_E@plt>
  40ca34:	f9400fe1 	ldr	x1, [sp,#24]
  40ca38:	f9400023 	ldr	x3, [x1]
  40ca3c:	f9400be1 	ldr	x1, [sp,#16]
  40ca40:	b9400025 	ldr	w5, [x1]
  40ca44:	f94017e2 	ldr	x2, [sp,#40]
  40ca48:	f94013e6 	ldr	x6, [sp,#32]
  40ca4c:	d2800001 	mov	x1, #0x0                   	// #0
  40ca50:	aa0503e4 	mov	x4, x5
  40ca54:	ad8804c0 	stp	q0, q1, [x6,#256]!
  40ca58:	ad8804c0 	stp	q0, q1, [x6,#256]!
  40ca5c:	adc80440 	ldp	q0, q1, [x2,#256]!
  40ca60:	ad8804c0 	stp	q0, q1, [x6,#256]!
  40ca64:	adc80440 	ldp	q0, q1, [x2,#256]!
  40ca68:	ad8804c0 	stp	q0, q1, [x6,#256]!
  40ca6c:	aa1e03eb 	mov	x11, x30
  40ca70:	97fff305 	bl	409684 <nop_>
  40ca74:	aa0b03fe 	mov	x30, x11
  40ca78:	ad8804c0 	stp	q0, q1, [x6,#256]!
  40ca7c:	adc80440 	ldp	q0, q1, [x2,#256]!
  40ca80:	ad8804c0 	stp	q0, q1, [x6,#256]!
  40ca84:	ad8804c0 	stp	q0, q1, [x6,#256]!
  40ca88:	ad8804c0 	stp	q0, q1, [x6,#256]!
  40ca8c:	ad8804c0 	stp	q0, q1, [x6,#256]!
  40ca90:	aa1e03eb 	mov	x11, x30
  40ca94:	97fff2fc 	bl	409684 <nop_>
  40ca98:	aa0b03fe 	mov	x30, x11
  40ca9c:	adc80440 	ldp	q0, q1, [x2,#256]!
  40caa0:	ad8804c0 	stp	q0, q1, [x6,#256]!
  40caa4:	ad8804c0 	stp	q0, q1, [x6,#256]!
  40caa8:	ad8804c0 	stp	q0, q1, [x6,#256]!
  40caac:	adc80440 	ldp	q0, q1, [x2,#256]!
  40cab0:	ad8804c0 	stp	q0, q1, [x6,#256]!
  40cab4:	aa1e03eb 	mov	x11, x30
  40cab8:	97fff2f3 	bl	409684 <nop_>
  40cabc:	aa0b03fe 	mov	x30, x11
  40cac0:	ad8804c0 	stp	q0, q1, [x6,#256]!
  40cac4:	adc80440 	ldp	q0, q1, [x2,#256]!
  40cac8:	ad8804c0 	stp	q0, q1, [x6,#256]!
  40cacc:	ad8804c0 	stp	q0, q1, [x6,#256]!
  40cad0:	adc80440 	ldp	q0, q1, [x2,#256]!
  40cad4:	ad8804c0 	stp	q0, q1, [x6,#256]!
  40cad8:	aa1e03eb 	mov	x11, x30
  40cadc:	97fff2ea 	bl	409684 <nop_>
  40cae0:	aa0b03fe 	mov	x30, x11
  40cae4:	ad8804c0 	stp	q0, q1, [x6,#256]!
  40cae8:	adc80440 	ldp	q0, q1, [x2,#256]!
  40caec:	ad8804c0 	stp	q0, q1, [x6,#256]!
  40caf0:	ad8804c0 	stp	q0, q1, [x6,#256]!
  40caf4:	adc80440 	ldp	q0, q1, [x2,#256]!
  40caf8:	ad8804c0 	stp	q0, q1, [x6,#256]!
  40cafc:	aa1e03eb 	mov	x11, x30
  40cb00:	97fff2e1 	bl	409684 <nop_>
  40cb04:	aa0b03fe 	mov	x30, x11
  40cb08:	adc80440 	ldp	q0, q1, [x2,#256]!
  40cb0c:	ad8804c0 	stp	q0, q1, [x6,#256]!
  40cb10:	adc80440 	ldp	q0, q1, [x2,#256]!
  40cb14:	ad8804c0 	stp	q0, q1, [x6,#256]!
  40cb18:	ad8804c0 	stp	q0, q1, [x6,#256]!
  40cb1c:	ad8804c0 	stp	q0, q1, [x6,#256]!
  40cb20:	aa1e03eb 	mov	x11, x30
  40cb24:	97fff2d8 	bl	409684 <nop_>
  40cb28:	aa0b03fe 	mov	x30, x11
  40cb2c:	ad8804c0 	stp	q0, q1, [x6,#256]!
  40cb30:	adc80440 	ldp	q0, q1, [x2,#256]!
  40cb34:	ad8804c0 	stp	q0, q1, [x6,#256]!
  40cb38:	adc80440 	ldp	q0, q1, [x2,#256]!
  40cb3c:	ad8804c0 	stp	q0, q1, [x6,#256]!
  40cb40:	ad8804c0 	stp	q0, q1, [x6,#256]!
  40cb44:	aa1e03eb 	mov	x11, x30
  40cb48:	97fff2cf 	bl	409684 <nop_>
  40cb4c:	aa0b03fe 	mov	x30, x11
  40cb50:	ad8804c0 	stp	q0, q1, [x6,#256]!
  40cb54:	ad8804c0 	stp	q0, q1, [x6,#256]!
  40cb58:	adc80440 	ldp	q0, q1, [x2,#256]!
  40cb5c:	ad8804c0 	stp	q0, q1, [x6,#256]!
  40cb60:	adc80440 	ldp	q0, q1, [x2,#256]!
  40cb64:	ad8804c0 	stp	q0, q1, [x6,#256]!
  40cb68:	aa1e03eb 	mov	x11, x30
  40cb6c:	97fff2c6 	bl	409684 <nop_>
  40cb70:	aa0b03fe 	mov	x30, x11
  40cb74:	adc80440 	ldp	q0, q1, [x2,#256]!
  40cb78:	ad8804c0 	stp	q0, q1, [x6,#256]!
  40cb7c:	ad8804c0 	stp	q0, q1, [x6,#256]!
  40cb80:	ad8804c0 	stp	q0, q1, [x6,#256]!
  40cb84:	ad8804c0 	stp	q0, q1, [x6,#256]!
  40cb88:	adc80440 	ldp	q0, q1, [x2,#256]!
  40cb8c:	aa1e03eb 	mov	x11, x30
  40cb90:	97fff2bd 	bl	409684 <nop_>
  40cb94:	aa0b03fe 	mov	x30, x11
  40cb98:	adc80440 	ldp	q0, q1, [x2,#256]!
  40cb9c:	ad8804c0 	stp	q0, q1, [x6,#256]!
  40cba0:	ad8804c0 	stp	q0, q1, [x6,#256]!
  40cba4:	ad8804c0 	stp	q0, q1, [x6,#256]!
  40cba8:	adc80440 	ldp	q0, q1, [x2,#256]!
  40cbac:	ad8804c0 	stp	q0, q1, [x6,#256]!
  40cbb0:	aa1e03eb 	mov	x11, x30
  40cbb4:	97fff2b4 	bl	409684 <nop_>
  40cbb8:	aa0b03fe 	mov	x30, x11
  40cbbc:	ad8804c0 	stp	q0, q1, [x6,#256]!
  40cbc0:	adc80440 	ldp	q0, q1, [x2,#256]!
  40cbc4:	ad8804c0 	stp	q0, q1, [x6,#256]!
  40cbc8:	adc80440 	ldp	q0, q1, [x2,#256]!
  40cbcc:	ad8804c0 	stp	q0, q1, [x6,#256]!
  40cbd0:	ad8804c0 	stp	q0, q1, [x6,#256]!
  40cbd4:	aa1e03eb 	mov	x11, x30
  40cbd8:	97fff2ab 	bl	409684 <nop_>
  40cbdc:	aa0b03fe 	mov	x30, x11
  40cbe0:	ad8804c0 	stp	q0, q1, [x6,#256]!
  40cbe4:	adc80440 	ldp	q0, q1, [x2,#256]!
  40cbe8:	ad8804c0 	stp	q0, q1, [x6,#256]!
  40cbec:	ad8804c0 	stp	q0, q1, [x6,#256]!
  40cbf0:	adc80440 	ldp	q0, q1, [x2,#256]!
  40cbf4:	ad8804c0 	stp	q0, q1, [x6,#256]!
  40cbf8:	aa1e03eb 	mov	x11, x30
  40cbfc:	97fff2a2 	bl	409684 <nop_>
  40cc00:	aa0b03fe 	mov	x30, x11
  40cc04:	ad8804c0 	stp	q0, q1, [x6,#256]!
  40cc08:	adc80440 	ldp	q0, q1, [x2,#256]!
  40cc0c:	ad8804c0 	stp	q0, q1, [x6,#256]!
  40cc10:	adc80440 	ldp	q0, q1, [x2,#256]!
  40cc14:	ad8804c0 	stp	q0, q1, [x6,#256]!
  40cc18:	ad8804c0 	stp	q0, q1, [x6,#256]!
  40cc1c:	aa1e03eb 	mov	x11, x30
  40cc20:	97fff299 	bl	409684 <nop_>
  40cc24:	aa0b03fe 	mov	x30, x11
  40cc28:	ad8804c0 	stp	q0, q1, [x6,#256]!
  40cc2c:	adc80440 	ldp	q0, q1, [x2,#256]!
  40cc30:	ad8804c0 	stp	q0, q1, [x6,#256]!
  40cc34:	ad8804c0 	stp	q0, q1, [x6,#256]!
  40cc38:	adc80440 	ldp	q0, q1, [x2,#256]!
  40cc3c:	ad8804c0 	stp	q0, q1, [x6,#256]!
  40cc40:	aa1e03eb 	mov	x11, x30
  40cc44:	97fff290 	bl	409684 <nop_>
  40cc48:	aa0b03fe 	mov	x30, x11
  40cc4c:	ad8804c0 	stp	q0, q1, [x6,#256]!
  40cc50:	adc80440 	ldp	q0, q1, [x2,#256]!
  40cc54:	ad8804c0 	stp	q0, q1, [x6,#256]!
  40cc58:	ad8804c0 	stp	q0, q1, [x6,#256]!
  40cc5c:	adc80440 	ldp	q0, q1, [x2,#256]!
  40cc60:	ad8804c0 	stp	q0, q1, [x6,#256]!
  40cc64:	aa1e03eb 	mov	x11, x30
  40cc68:	97fff287 	bl	409684 <nop_>
  40cc6c:	aa0b03fe 	mov	x30, x11
  40cc70:	adc80440 	ldp	q0, q1, [x2,#256]!
  40cc74:	ad8804c0 	stp	q0, q1, [x6,#256]!
  40cc78:	adc80440 	ldp	q0, q1, [x2,#256]!
  40cc7c:	ad8804c0 	stp	q0, q1, [x6,#256]!
  40cc80:	ad8804c0 	stp	q0, q1, [x6,#256]!
  40cc84:	ad8804c0 	stp	q0, q1, [x6,#256]!
  40cc88:	aa1e03eb 	mov	x11, x30
  40cc8c:	97fff27e 	bl	409684 <nop_>
  40cc90:	aa0b03fe 	mov	x30, x11
  40cc94:	ad8804c0 	stp	q0, q1, [x6,#256]!
  40cc98:	adc80440 	ldp	q0, q1, [x2,#256]!
  40cc9c:	ad8804c0 	stp	q0, q1, [x6,#256]!
  40cca0:	ad8804c0 	stp	q0, q1, [x6,#256]!
  40cca4:	aa1e03eb 	mov	x11, x30
  40cca8:	97fff277 	bl	409684 <nop_>
  40ccac:	aa0b03fe 	mov	x30, x11
  40ccb0:	91320021 	add	x1, x1, #0xc80
  40ccb4:	eb03003f 	cmp	x1, x3
  40ccb8:	5403778d 	b.le	413ba8 <_Z15STREAM_copy_100PdS_PlPKi+0xe0>
  40ccbc:	d503201f 	nop
  40ccc0:	a8c37bfd 	ldp	x29, x30, [sp],#48
  40ccc4:	d65f03c0 	ret

000000000040ccc8 <_Z14STREAM_copy_34PdS_PlPKi>:
  40ccc8:	a9bd7bfd 	stp	x29, x30, [sp,#-48]!
  40cccc:	910003fd 	mov	x29, sp
  40ccd0:	f90017e0 	str	x0, [sp,#40]
  40ccd4:	f90013e1 	str	x1, [sp,#32]
  40ccd8:	f9000fe2 	str	x2, [sp,#24]
  40ccdc:	f9000be3 	str	x3, [sp,#16]
  40cce0:	d2800000 	mov	x0, #0x0                   	// #0
  40cce4:	b0000060 	adrp	x0, 419000 <_IO_stdin_used+0x8>
  40cce8:	91008001 	add	x1, x0, #0x20
  40ccec:	d0000100 	adrp	x0, 42e000 <_Znam@GLIBCXX_3.4>
  40ccf0:	91286000 	add	x0, x0, #0xa18
  40ccf4:	97fff07f 	bl	408ef0 <_ZStlsISt11char_traitsIcEERSt13basic_ostreamIcT_ES5_PKc@plt>
  40ccf8:	aa0003e2 	mov	x2, x0
  40ccfc:	f9400be0 	ldr	x0, [sp,#16]
  40cd00:	b9400000 	ldr	w0, [x0]
  40cd04:	2a0003e1 	mov	w1, w0
  40cd08:	aa0203e0 	mov	x0, x2
  40cd0c:	97fff1ad 	bl	4093c0 <_ZNSolsEi@plt>
  40cd10:	aa0003e2 	mov	x2, x0
  40cd14:	b0000060 	adrp	x0, 419000 <_IO_stdin_used+0x8>
  40cd18:	9100c001 	add	x1, x0, #0x30
  40cd1c:	aa0203e0 	mov	x0, x2
  40cd20:	97fff074 	bl	408ef0 <_ZStlsISt11char_traitsIcEERSt13basic_ostreamIcT_ES5_PKc@plt>
  40cd24:	f94017e1 	ldr	x1, [sp,#40]
  40cd28:	97fff016 	bl	408d80 <_ZNSolsEPKv@plt>
  40cd2c:	aa0003e2 	mov	x2, x0
  40cd30:	b0000060 	adrp	x0, 419000 <_IO_stdin_used+0x8>
  40cd34:	91010001 	add	x1, x0, #0x40
  40cd38:	aa0203e0 	mov	x0, x2
  40cd3c:	97fff06d 	bl	408ef0 <_ZStlsISt11char_traitsIcEERSt13basic_ostreamIcT_ES5_PKc@plt>
  40cd40:	f94013e1 	ldr	x1, [sp,#32]
  40cd44:	97fff00f 	bl	408d80 <_ZNSolsEPKv@plt>
  40cd48:	aa0003e2 	mov	x2, x0
  40cd4c:	b0000060 	adrp	x0, 419000 <_IO_stdin_used+0x8>
  40cd50:	91014001 	add	x1, x0, #0x50
  40cd54:	aa0203e0 	mov	x0, x2
  40cd58:	97fff066 	bl	408ef0 <_ZStlsISt11char_traitsIcEERSt13basic_ostreamIcT_ES5_PKc@plt>
  40cd5c:	aa0003e2 	mov	x2, x0
  40cd60:	f9400fe0 	ldr	x0, [sp,#24]
  40cd64:	f9400000 	ldr	x0, [x0]
  40cd68:	aa0003e1 	mov	x1, x0
  40cd6c:	aa0203e0 	mov	x0, x2
  40cd70:	97fff1b4 	bl	409440 <_ZNSolsEl@plt>
  40cd74:	aa0003e2 	mov	x2, x0
  40cd78:	90ffffe0 	adrp	x0, 408000 <_init-0x970>
  40cd7c:	912ec001 	add	x1, x0, #0xbb0
  40cd80:	aa0203e0 	mov	x0, x2
  40cd84:	97fff06f 	bl	408f40 <_ZNSolsEPFRSoS_E@plt>
  40cd88:	f9400fe1 	ldr	x1, [sp,#24]
  40cd8c:	f9400023 	ldr	x3, [x1]
  40cd90:	f9400be1 	ldr	x1, [sp,#16]
  40cd94:	b9400025 	ldr	w5, [x1]
  40cd98:	f94017e2 	ldr	x2, [sp,#40]
  40cd9c:	f94013e6 	ldr	x6, [sp,#32]
  40cda0:	d2800001 	mov	x1, #0x0                   	// #0
  40cda4:	aa0503e4 	mov	x4, x5
  40cda8:	ad8804c0 	stp	q0, q1, [x6,#256]!
  40cdac:	ad8804c0 	stp	q0, q1, [x6,#256]!
  40cdb0:	adc80440 	ldp	q0, q1, [x2,#256]!
  40cdb4:	ad8804c0 	stp	q0, q1, [x6,#256]!
  40cdb8:	adc80440 	ldp	q0, q1, [x2,#256]!
  40cdbc:	ad8804c0 	stp	q0, q1, [x6,#256]!
  40cdc0:	aa1e03eb 	mov	x11, x30
  40cdc4:	97fff230 	bl	409684 <nop_>
  40cdc8:	aa0b03fe 	mov	x30, x11
  40cdcc:	ad8804c0 	stp	q0, q1, [x6,#256]!
  40cdd0:	adc80440 	ldp	q0, q1, [x2,#256]!
  40cdd4:	ad8804c0 	stp	q0, q1, [x6,#256]!
  40cdd8:	adc80440 	ldp	q0, q1, [x2,#256]!
  40cddc:	ad8804c0 	stp	q0, q1, [x6,#256]!
  40cde0:	ad8804c0 	stp	q0, q1, [x6,#256]!
  40cde4:	aa1e03eb 	mov	x11, x30
  40cde8:	97fff227 	bl	409684 <nop_>
  40cdec:	aa0b03fe 	mov	x30, x11
  40cdf0:	adc80440 	ldp	q0, q1, [x2,#256]!
  40cdf4:	ad8804c0 	stp	q0, q1, [x6,#256]!
  40cdf8:	ad8804c0 	stp	q0, q1, [x6,#256]!
  40cdfc:	ad8804c0 	stp	q0, q1, [x6,#256]!
  40ce00:	adc80440 	ldp	q0, q1, [x2,#256]!
  40ce04:	ad8804c0 	stp	q0, q1, [x6,#256]!
  40ce08:	aa1e03eb 	mov	x11, x30
  40ce0c:	97fff21e 	bl	409684 <nop_>
  40ce10:	aa0b03fe 	mov	x30, x11
  40ce14:	ad8804c0 	stp	q0, q1, [x6,#256]!
  40ce18:	adc80440 	ldp	q0, q1, [x2,#256]!
  40ce1c:	ad8804c0 	stp	q0, q1, [x6,#256]!
  40ce20:	ad8804c0 	stp	q0, q1, [x6,#256]!
  40ce24:	adc80440 	ldp	q0, q1, [x2,#256]!
  40ce28:	ad8804c0 	stp	q0, q1, [x6,#256]!
  40ce2c:	aa1e03eb 	mov	x11, x30
  40ce30:	97fff215 	bl	409684 <nop_>
  40ce34:	aa0b03fe 	mov	x30, x11
  40ce38:	ad8804c0 	stp	q0, q1, [x6,#256]!
  40ce3c:	adc80440 	ldp	q0, q1, [x2,#256]!
  40ce40:	ad8804c0 	stp	q0, q1, [x6,#256]!
  40ce44:	ad8804c0 	stp	q0, q1, [x6,#256]!
  40ce48:	adc80440 	ldp	q0, q1, [x2,#256]!
  40ce4c:	ad8804c0 	stp	q0, q1, [x6,#256]!
  40ce50:	aa1e03eb 	mov	x11, x30
  40ce54:	97fff20c 	bl	409684 <nop_>
  40ce58:	aa0b03fe 	mov	x30, x11
  40ce5c:	adc80440 	ldp	q0, q1, [x2,#256]!
  40ce60:	ad8804c0 	stp	q0, q1, [x6,#256]!
  40ce64:	adc80440 	ldp	q0, q1, [x2,#256]!
  40ce68:	ad8804c0 	stp	q0, q1, [x6,#256]!
  40ce6c:	ad8804c0 	stp	q0, q1, [x6,#256]!
  40ce70:	ad8804c0 	stp	q0, q1, [x6,#256]!
  40ce74:	aa1e03eb 	mov	x11, x30
  40ce78:	97fff203 	bl	409684 <nop_>
  40ce7c:	aa0b03fe 	mov	x30, x11
  40ce80:	ad8804c0 	stp	q0, q1, [x6,#256]!
  40ce84:	adc80440 	ldp	q0, q1, [x2,#256]!
  40ce88:	ad8804c0 	stp	q0, q1, [x6,#256]!
  40ce8c:	adc80440 	ldp	q0, q1, [x2,#256]!
  40ce90:	adc80440 	ldp	q0, q1, [x2,#256]!
  40ce94:	ad8804c0 	stp	q0, q1, [x6,#256]!
  40ce98:	aa1e03eb 	mov	x11, x30
  40ce9c:	97fff1fa 	bl	409684 <nop_>
  40cea0:	aa0b03fe 	mov	x30, x11
  40cea4:	ad8804c0 	stp	q0, q1, [x6,#256]!
  40cea8:	ad8804c0 	stp	q0, q1, [x6,#256]!
  40ceac:	adc80440 	ldp	q0, q1, [x2,#256]!
  40ceb0:	ad8804c0 	stp	q0, q1, [x6,#256]!
  40ceb4:	adc80440 	ldp	q0, q1, [x2,#256]!
  40ceb8:	ad8804c0 	stp	q0, q1, [x6,#256]!
  40cebc:	aa1e03eb 	mov	x11, x30
  40cec0:	97fff1f1 	bl	409684 <nop_>
  40cec4:	aa0b03fe 	mov	x30, x11
  40cec8:	adc80440 	ldp	q0, q1, [x2,#256]!
  40cecc:	ad8804c0 	stp	q0, q1, [x6,#256]!
  40ced0:	ad8804c0 	stp	q0, q1, [x6,#256]!
  40ced4:	ad8804c0 	stp	q0, q1, [x6,#256]!
  40ced8:	ad8804c0 	stp	q0, q1, [x6,#256]!
  40cedc:	adc80440 	ldp	q0, q1, [x2,#256]!
  40cee0:	aa1e03eb 	mov	x11, x30
  40cee4:	97fff1e8 	bl	409684 <nop_>
  40cee8:	aa0b03fe 	mov	x30, x11
  40ceec:	adc80440 	ldp	q0, q1, [x2,#256]!
  40cef0:	ad8804c0 	stp	q0, q1, [x6,#256]!
  40cef4:	ad8804c0 	stp	q0, q1, [x6,#256]!
  40cef8:	ad8804c0 	stp	q0, q1, [x6,#256]!
  40cefc:	adc80440 	ldp	q0, q1, [x2,#256]!
  40cf00:	ad8804c0 	stp	q0, q1, [x6,#256]!
  40cf04:	aa1e03eb 	mov	x11, x30
  40cf08:	97fff1df 	bl	409684 <nop_>
  40cf0c:	aa0b03fe 	mov	x30, x11
  40cf10:	ad8804c0 	stp	q0, q1, [x6,#256]!
  40cf14:	adc80440 	ldp	q0, q1, [x2,#256]!
  40cf18:	ad8804c0 	stp	q0, q1, [x6,#256]!
  40cf1c:	adc80440 	ldp	q0, q1, [x2,#256]!
  40cf20:	ad8804c0 	stp	q0, q1, [x6,#256]!
  40cf24:	ad8804c0 	stp	q0, q1, [x6,#256]!
  40cf28:	aa1e03eb 	mov	x11, x30
  40cf2c:	97fff1d6 	bl	409684 <nop_>
  40cf30:	aa0b03fe 	mov	x30, x11
  40cf34:	ad8804c0 	stp	q0, q1, [x6,#256]!
  40cf38:	adc80440 	ldp	q0, q1, [x2,#256]!
  40cf3c:	ad8804c0 	stp	q0, q1, [x6,#256]!
  40cf40:	ad8804c0 	stp	q0, q1, [x6,#256]!
  40cf44:	adc80440 	ldp	q0, q1, [x2,#256]!
  40cf48:	ad8804c0 	stp	q0, q1, [x6,#256]!
  40cf4c:	aa1e03eb 	mov	x11, x30
  40cf50:	97fff1cd 	bl	409684 <nop_>
  40cf54:	aa0b03fe 	mov	x30, x11
  40cf58:	ad8804c0 	stp	q0, q1, [x6,#256]!
  40cf5c:	adc80440 	ldp	q0, q1, [x2,#256]!
  40cf60:	ad8804c0 	stp	q0, q1, [x6,#256]!
  40cf64:	adc80440 	ldp	q0, q1, [x2,#256]!
  40cf68:	ad8804c0 	stp	q0, q1, [x6,#256]!
  40cf6c:	ad8804c0 	stp	q0, q1, [x6,#256]!
  40cf70:	aa1e03eb 	mov	x11, x30
  40cf74:	97fff1c4 	bl	409684 <nop_>
  40cf78:	aa0b03fe 	mov	x30, x11
  40cf7c:	ad8804c0 	stp	q0, q1, [x6,#256]!
  40cf80:	adc80440 	ldp	q0, q1, [x2,#256]!
  40cf84:	ad8804c0 	stp	q0, q1, [x6,#256]!
  40cf88:	ad8804c0 	stp	q0, q1, [x6,#256]!
  40cf8c:	adc80440 	ldp	q0, q1, [x2,#256]!
  40cf90:	ad8804c0 	stp	q0, q1, [x6,#256]!
  40cf94:	aa1e03eb 	mov	x11, x30
  40cf98:	97fff1bb 	bl	409684 <nop_>
  40cf9c:	aa0b03fe 	mov	x30, x11
  40cfa0:	ad8804c0 	stp	q0, q1, [x6,#256]!
  40cfa4:	adc80440 	ldp	q0, q1, [x2,#256]!
  40cfa8:	ad8804c0 	stp	q0, q1, [x6,#256]!
  40cfac:	ad8804c0 	stp	q0, q1, [x6,#256]!
  40cfb0:	adc80440 	ldp	q0, q1, [x2,#256]!
  40cfb4:	ad8804c0 	stp	q0, q1, [x6,#256]!
  40cfb8:	aa1e03eb 	mov	x11, x30
  40cfbc:	97fff1b2 	bl	409684 <nop_>
  40cfc0:	aa0b03fe 	mov	x30, x11
  40cfc4:	adc80440 	ldp	q0, q1, [x2,#256]!
  40cfc8:	ad8804c0 	stp	q0, q1, [x6,#256]!
  40cfcc:	adc80440 	ldp	q0, q1, [x2,#256]!
  40cfd0:	ad8804c0 	stp	q0, q1, [x6,#256]!
  40cfd4:	ad8804c0 	stp	q0, q1, [x6,#256]!
  40cfd8:	ad8804c0 	stp	q0, q1, [x6,#256]!
  40cfdc:	aa1e03eb 	mov	x11, x30
  40cfe0:	97fff1a9 	bl	409684 <nop_>
  40cfe4:	aa0b03fe 	mov	x30, x11
  40cfe8:	ad8804c0 	stp	q0, q1, [x6,#256]!
  40cfec:	adc80440 	ldp	q0, q1, [x2,#256]!
  40cff0:	ad8804c0 	stp	q0, q1, [x6,#256]!
  40cff4:	ad8804c0 	stp	q0, q1, [x6,#256]!
  40cff8:	aa1e03eb 	mov	x11, x30
  40cffc:	97fff1a2 	bl	409684 <nop_>
  40d000:	aa0b03fe 	mov	x30, x11
  40d004:	91320021 	add	x1, x1, #0xc80
  40d008:	eb03003f 	cmp	x1, x3
  40d00c:	54035ced 	b.le	413ba8 <_Z15STREAM_copy_100PdS_PlPKi+0xe0>
  40d010:	d503201f 	nop
  40d014:	a8c37bfd 	ldp	x29, x30, [sp],#48
  40d018:	d65f03c0 	ret

000000000040d01c <_Z14STREAM_copy_36PdS_PlPKi>:
  40d01c:	a9bd7bfd 	stp	x29, x30, [sp,#-48]!
  40d020:	910003fd 	mov	x29, sp
  40d024:	f90017e0 	str	x0, [sp,#40]
  40d028:	f90013e1 	str	x1, [sp,#32]
  40d02c:	f9000fe2 	str	x2, [sp,#24]
  40d030:	f9000be3 	str	x3, [sp,#16]
  40d034:	d2800000 	mov	x0, #0x0                   	// #0
  40d038:	90000060 	adrp	x0, 419000 <_IO_stdin_used+0x8>
  40d03c:	91008001 	add	x1, x0, #0x20
  40d040:	b0000100 	adrp	x0, 42e000 <_Znam@GLIBCXX_3.4>
  40d044:	91286000 	add	x0, x0, #0xa18
  40d048:	97ffefaa 	bl	408ef0 <_ZStlsISt11char_traitsIcEERSt13basic_ostreamIcT_ES5_PKc@plt>
  40d04c:	aa0003e2 	mov	x2, x0
  40d050:	f9400be0 	ldr	x0, [sp,#16]
  40d054:	b9400000 	ldr	w0, [x0]
  40d058:	2a0003e1 	mov	w1, w0
  40d05c:	aa0203e0 	mov	x0, x2
  40d060:	97fff0d8 	bl	4093c0 <_ZNSolsEi@plt>
  40d064:	aa0003e2 	mov	x2, x0
  40d068:	90000060 	adrp	x0, 419000 <_IO_stdin_used+0x8>
  40d06c:	9100c001 	add	x1, x0, #0x30
  40d070:	aa0203e0 	mov	x0, x2
  40d074:	97ffef9f 	bl	408ef0 <_ZStlsISt11char_traitsIcEERSt13basic_ostreamIcT_ES5_PKc@plt>
  40d078:	f94017e1 	ldr	x1, [sp,#40]
  40d07c:	97ffef41 	bl	408d80 <_ZNSolsEPKv@plt>
  40d080:	aa0003e2 	mov	x2, x0
  40d084:	90000060 	adrp	x0, 419000 <_IO_stdin_used+0x8>
  40d088:	91010001 	add	x1, x0, #0x40
  40d08c:	aa0203e0 	mov	x0, x2
  40d090:	97ffef98 	bl	408ef0 <_ZStlsISt11char_traitsIcEERSt13basic_ostreamIcT_ES5_PKc@plt>
  40d094:	f94013e1 	ldr	x1, [sp,#32]
  40d098:	97ffef3a 	bl	408d80 <_ZNSolsEPKv@plt>
  40d09c:	aa0003e2 	mov	x2, x0
  40d0a0:	90000060 	adrp	x0, 419000 <_IO_stdin_used+0x8>
  40d0a4:	91014001 	add	x1, x0, #0x50
  40d0a8:	aa0203e0 	mov	x0, x2
  40d0ac:	97ffef91 	bl	408ef0 <_ZStlsISt11char_traitsIcEERSt13basic_ostreamIcT_ES5_PKc@plt>
  40d0b0:	aa0003e2 	mov	x2, x0
  40d0b4:	f9400fe0 	ldr	x0, [sp,#24]
  40d0b8:	f9400000 	ldr	x0, [x0]
  40d0bc:	aa0003e1 	mov	x1, x0
  40d0c0:	aa0203e0 	mov	x0, x2
  40d0c4:	97fff0df 	bl	409440 <_ZNSolsEl@plt>
  40d0c8:	aa0003e2 	mov	x2, x0
  40d0cc:	f0ffffc0 	adrp	x0, 408000 <_init-0x970>
  40d0d0:	912ec001 	add	x1, x0, #0xbb0
  40d0d4:	aa0203e0 	mov	x0, x2
  40d0d8:	97ffef9a 	bl	408f40 <_ZNSolsEPFRSoS_E@plt>
  40d0dc:	f9400fe1 	ldr	x1, [sp,#24]
  40d0e0:	f9400023 	ldr	x3, [x1]
  40d0e4:	f9400be1 	ldr	x1, [sp,#16]
  40d0e8:	b9400025 	ldr	w5, [x1]
  40d0ec:	f94017e2 	ldr	x2, [sp,#40]
  40d0f0:	f94013e6 	ldr	x6, [sp,#32]
  40d0f4:	d2800001 	mov	x1, #0x0                   	// #0
  40d0f8:	aa0503e4 	mov	x4, x5
  40d0fc:	ad8804c0 	stp	q0, q1, [x6,#256]!
  40d100:	ad8804c0 	stp	q0, q1, [x6,#256]!
  40d104:	adc80440 	ldp	q0, q1, [x2,#256]!
  40d108:	ad8804c0 	stp	q0, q1, [x6,#256]!
  40d10c:	adc80440 	ldp	q0, q1, [x2,#256]!
  40d110:	ad8804c0 	stp	q0, q1, [x6,#256]!
  40d114:	aa1e03eb 	mov	x11, x30
  40d118:	97fff15b 	bl	409684 <nop_>
  40d11c:	aa0b03fe 	mov	x30, x11
  40d120:	ad8804c0 	stp	q0, q1, [x6,#256]!
  40d124:	adc80440 	ldp	q0, q1, [x2,#256]!
  40d128:	ad8804c0 	stp	q0, q1, [x6,#256]!
  40d12c:	adc80440 	ldp	q0, q1, [x2,#256]!
  40d130:	ad8804c0 	stp	q0, q1, [x6,#256]!
  40d134:	ad8804c0 	stp	q0, q1, [x6,#256]!
  40d138:	aa1e03eb 	mov	x11, x30
  40d13c:	97fff152 	bl	409684 <nop_>
  40d140:	aa0b03fe 	mov	x30, x11
  40d144:	adc80440 	ldp	q0, q1, [x2,#256]!
  40d148:	ad8804c0 	stp	q0, q1, [x6,#256]!
  40d14c:	ad8804c0 	stp	q0, q1, [x6,#256]!
  40d150:	ad8804c0 	stp	q0, q1, [x6,#256]!
  40d154:	adc80440 	ldp	q0, q1, [x2,#256]!
  40d158:	ad8804c0 	stp	q0, q1, [x6,#256]!
  40d15c:	aa1e03eb 	mov	x11, x30
  40d160:	97fff149 	bl	409684 <nop_>
  40d164:	aa0b03fe 	mov	x30, x11
  40d168:	ad8804c0 	stp	q0, q1, [x6,#256]!
  40d16c:	adc80440 	ldp	q0, q1, [x2,#256]!
  40d170:	ad8804c0 	stp	q0, q1, [x6,#256]!
  40d174:	ad8804c0 	stp	q0, q1, [x6,#256]!
  40d178:	adc80440 	ldp	q0, q1, [x2,#256]!
  40d17c:	ad8804c0 	stp	q0, q1, [x6,#256]!
  40d180:	aa1e03eb 	mov	x11, x30
  40d184:	97fff140 	bl	409684 <nop_>
  40d188:	aa0b03fe 	mov	x30, x11
  40d18c:	ad8804c0 	stp	q0, q1, [x6,#256]!
  40d190:	adc80440 	ldp	q0, q1, [x2,#256]!
  40d194:	ad8804c0 	stp	q0, q1, [x6,#256]!
  40d198:	ad8804c0 	stp	q0, q1, [x6,#256]!
  40d19c:	adc80440 	ldp	q0, q1, [x2,#256]!
  40d1a0:	ad8804c0 	stp	q0, q1, [x6,#256]!
  40d1a4:	aa1e03eb 	mov	x11, x30
  40d1a8:	97fff137 	bl	409684 <nop_>
  40d1ac:	aa0b03fe 	mov	x30, x11
  40d1b0:	adc80440 	ldp	q0, q1, [x2,#256]!
  40d1b4:	ad8804c0 	stp	q0, q1, [x6,#256]!
  40d1b8:	adc80440 	ldp	q0, q1, [x2,#256]!
  40d1bc:	ad8804c0 	stp	q0, q1, [x6,#256]!
  40d1c0:	adc80440 	ldp	q0, q1, [x2,#256]!
  40d1c4:	ad8804c0 	stp	q0, q1, [x6,#256]!
  40d1c8:	aa1e03eb 	mov	x11, x30
  40d1cc:	97fff12e 	bl	409684 <nop_>
  40d1d0:	aa0b03fe 	mov	x30, x11
  40d1d4:	ad8804c0 	stp	q0, q1, [x6,#256]!
  40d1d8:	adc80440 	ldp	q0, q1, [x2,#256]!
  40d1dc:	ad8804c0 	stp	q0, q1, [x6,#256]!
  40d1e0:	adc80440 	ldp	q0, q1, [x2,#256]!
  40d1e4:	adc80440 	ldp	q0, q1, [x2,#256]!
  40d1e8:	ad8804c0 	stp	q0, q1, [x6,#256]!
  40d1ec:	aa1e03eb 	mov	x11, x30
  40d1f0:	97fff125 	bl	409684 <nop_>
  40d1f4:	aa0b03fe 	mov	x30, x11
  40d1f8:	ad8804c0 	stp	q0, q1, [x6,#256]!
  40d1fc:	ad8804c0 	stp	q0, q1, [x6,#256]!
  40d200:	adc80440 	ldp	q0, q1, [x2,#256]!
  40d204:	ad8804c0 	stp	q0, q1, [x6,#256]!
  40d208:	adc80440 	ldp	q0, q1, [x2,#256]!
  40d20c:	ad8804c0 	stp	q0, q1, [x6,#256]!
  40d210:	aa1e03eb 	mov	x11, x30
  40d214:	97fff11c 	bl	409684 <nop_>
  40d218:	aa0b03fe 	mov	x30, x11
  40d21c:	adc80440 	ldp	q0, q1, [x2,#256]!
  40d220:	ad8804c0 	stp	q0, q1, [x6,#256]!
  40d224:	ad8804c0 	stp	q0, q1, [x6,#256]!
  40d228:	ad8804c0 	stp	q0, q1, [x6,#256]!
  40d22c:	ad8804c0 	stp	q0, q1, [x6,#256]!
  40d230:	adc80440 	ldp	q0, q1, [x2,#256]!
  40d234:	aa1e03eb 	mov	x11, x30
  40d238:	97fff113 	bl	409684 <nop_>
  40d23c:	aa0b03fe 	mov	x30, x11
  40d240:	adc80440 	ldp	q0, q1, [x2,#256]!
  40d244:	ad8804c0 	stp	q0, q1, [x6,#256]!
  40d248:	ad8804c0 	stp	q0, q1, [x6,#256]!
  40d24c:	ad8804c0 	stp	q0, q1, [x6,#256]!
  40d250:	adc80440 	ldp	q0, q1, [x2,#256]!
  40d254:	ad8804c0 	stp	q0, q1, [x6,#256]!
  40d258:	aa1e03eb 	mov	x11, x30
  40d25c:	97fff10a 	bl	409684 <nop_>
  40d260:	aa0b03fe 	mov	x30, x11
  40d264:	ad8804c0 	stp	q0, q1, [x6,#256]!
  40d268:	adc80440 	ldp	q0, q1, [x2,#256]!
  40d26c:	ad8804c0 	stp	q0, q1, [x6,#256]!
  40d270:	adc80440 	ldp	q0, q1, [x2,#256]!
  40d274:	ad8804c0 	stp	q0, q1, [x6,#256]!
  40d278:	ad8804c0 	stp	q0, q1, [x6,#256]!
  40d27c:	aa1e03eb 	mov	x11, x30
  40d280:	97fff101 	bl	409684 <nop_>
  40d284:	aa0b03fe 	mov	x30, x11
  40d288:	ad8804c0 	stp	q0, q1, [x6,#256]!
  40d28c:	adc80440 	ldp	q0, q1, [x2,#256]!
  40d290:	ad8804c0 	stp	q0, q1, [x6,#256]!
  40d294:	ad8804c0 	stp	q0, q1, [x6,#256]!
  40d298:	adc80440 	ldp	q0, q1, [x2,#256]!
  40d29c:	ad8804c0 	stp	q0, q1, [x6,#256]!
  40d2a0:	aa1e03eb 	mov	x11, x30
  40d2a4:	97fff0f8 	bl	409684 <nop_>
  40d2a8:	aa0b03fe 	mov	x30, x11
  40d2ac:	ad8804c0 	stp	q0, q1, [x6,#256]!
  40d2b0:	adc80440 	ldp	q0, q1, [x2,#256]!
  40d2b4:	ad8804c0 	stp	q0, q1, [x6,#256]!
  40d2b8:	adc80440 	ldp	q0, q1, [x2,#256]!
  40d2bc:	adc80440 	ldp	q0, q1, [x2,#256]!
  40d2c0:	ad8804c0 	stp	q0, q1, [x6,#256]!
  40d2c4:	aa1e03eb 	mov	x11, x30
  40d2c8:	97fff0ef 	bl	409684 <nop_>
  40d2cc:	aa0b03fe 	mov	x30, x11
  40d2d0:	ad8804c0 	stp	q0, q1, [x6,#256]!
  40d2d4:	adc80440 	ldp	q0, q1, [x2,#256]!
  40d2d8:	ad8804c0 	stp	q0, q1, [x6,#256]!
  40d2dc:	ad8804c0 	stp	q0, q1, [x6,#256]!
  40d2e0:	adc80440 	ldp	q0, q1, [x2,#256]!
  40d2e4:	ad8804c0 	stp	q0, q1, [x6,#256]!
  40d2e8:	aa1e03eb 	mov	x11, x30
  40d2ec:	97fff0e6 	bl	409684 <nop_>
  40d2f0:	aa0b03fe 	mov	x30, x11
  40d2f4:	ad8804c0 	stp	q0, q1, [x6,#256]!
  40d2f8:	adc80440 	ldp	q0, q1, [x2,#256]!
  40d2fc:	ad8804c0 	stp	q0, q1, [x6,#256]!
  40d300:	ad8804c0 	stp	q0, q1, [x6,#256]!
  40d304:	adc80440 	ldp	q0, q1, [x2,#256]!
  40d308:	ad8804c0 	stp	q0, q1, [x6,#256]!
  40d30c:	aa1e03eb 	mov	x11, x30
  40d310:	97fff0dd 	bl	409684 <nop_>
  40d314:	aa0b03fe 	mov	x30, x11
  40d318:	adc80440 	ldp	q0, q1, [x2,#256]!
  40d31c:	ad8804c0 	stp	q0, q1, [x6,#256]!
  40d320:	adc80440 	ldp	q0, q1, [x2,#256]!
  40d324:	ad8804c0 	stp	q0, q1, [x6,#256]!
  40d328:	ad8804c0 	stp	q0, q1, [x6,#256]!
  40d32c:	ad8804c0 	stp	q0, q1, [x6,#256]!
  40d330:	aa1e03eb 	mov	x11, x30
  40d334:	97fff0d4 	bl	409684 <nop_>
  40d338:	aa0b03fe 	mov	x30, x11
  40d33c:	ad8804c0 	stp	q0, q1, [x6,#256]!
  40d340:	adc80440 	ldp	q0, q1, [x2,#256]!
  40d344:	ad8804c0 	stp	q0, q1, [x6,#256]!
  40d348:	ad8804c0 	stp	q0, q1, [x6,#256]!
  40d34c:	aa1e03eb 	mov	x11, x30
  40d350:	97fff0cd 	bl	409684 <nop_>
  40d354:	aa0b03fe 	mov	x30, x11
  40d358:	91320021 	add	x1, x1, #0xc80
  40d35c:	eb03003f 	cmp	x1, x3
  40d360:	5403424d 	b.le	413ba8 <_Z15STREAM_copy_100PdS_PlPKi+0xe0>
  40d364:	d503201f 	nop
  40d368:	a8c37bfd 	ldp	x29, x30, [sp],#48
  40d36c:	d65f03c0 	ret

000000000040d370 <_Z14STREAM_copy_38PdS_PlPKi>:
  40d370:	a9bd7bfd 	stp	x29, x30, [sp,#-48]!
  40d374:	910003fd 	mov	x29, sp
  40d378:	f90017e0 	str	x0, [sp,#40]
  40d37c:	f90013e1 	str	x1, [sp,#32]
  40d380:	f9000fe2 	str	x2, [sp,#24]
  40d384:	f9000be3 	str	x3, [sp,#16]
  40d388:	d2800000 	mov	x0, #0x0                   	// #0
  40d38c:	90000060 	adrp	x0, 419000 <_IO_stdin_used+0x8>
  40d390:	91008001 	add	x1, x0, #0x20
  40d394:	b0000100 	adrp	x0, 42e000 <_Znam@GLIBCXX_3.4>
  40d398:	91286000 	add	x0, x0, #0xa18
  40d39c:	97ffeed5 	bl	408ef0 <_ZStlsISt11char_traitsIcEERSt13basic_ostreamIcT_ES5_PKc@plt>
  40d3a0:	aa0003e2 	mov	x2, x0
  40d3a4:	f9400be0 	ldr	x0, [sp,#16]
  40d3a8:	b9400000 	ldr	w0, [x0]
  40d3ac:	2a0003e1 	mov	w1, w0
  40d3b0:	aa0203e0 	mov	x0, x2
  40d3b4:	97fff003 	bl	4093c0 <_ZNSolsEi@plt>
  40d3b8:	aa0003e2 	mov	x2, x0
  40d3bc:	90000060 	adrp	x0, 419000 <_IO_stdin_used+0x8>
  40d3c0:	9100c001 	add	x1, x0, #0x30
  40d3c4:	aa0203e0 	mov	x0, x2
  40d3c8:	97ffeeca 	bl	408ef0 <_ZStlsISt11char_traitsIcEERSt13basic_ostreamIcT_ES5_PKc@plt>
  40d3cc:	f94017e1 	ldr	x1, [sp,#40]
  40d3d0:	97ffee6c 	bl	408d80 <_ZNSolsEPKv@plt>
  40d3d4:	aa0003e2 	mov	x2, x0
  40d3d8:	90000060 	adrp	x0, 419000 <_IO_stdin_used+0x8>
  40d3dc:	91010001 	add	x1, x0, #0x40
  40d3e0:	aa0203e0 	mov	x0, x2
  40d3e4:	97ffeec3 	bl	408ef0 <_ZStlsISt11char_traitsIcEERSt13basic_ostreamIcT_ES5_PKc@plt>
  40d3e8:	f94013e1 	ldr	x1, [sp,#32]
  40d3ec:	97ffee65 	bl	408d80 <_ZNSolsEPKv@plt>
  40d3f0:	aa0003e2 	mov	x2, x0
  40d3f4:	90000060 	adrp	x0, 419000 <_IO_stdin_used+0x8>
  40d3f8:	91014001 	add	x1, x0, #0x50
  40d3fc:	aa0203e0 	mov	x0, x2
  40d400:	97ffeebc 	bl	408ef0 <_ZStlsISt11char_traitsIcEERSt13basic_ostreamIcT_ES5_PKc@plt>
  40d404:	aa0003e2 	mov	x2, x0
  40d408:	f9400fe0 	ldr	x0, [sp,#24]
  40d40c:	f9400000 	ldr	x0, [x0]
  40d410:	aa0003e1 	mov	x1, x0
  40d414:	aa0203e0 	mov	x0, x2
  40d418:	97fff00a 	bl	409440 <_ZNSolsEl@plt>
  40d41c:	aa0003e2 	mov	x2, x0
  40d420:	f0ffffc0 	adrp	x0, 408000 <_init-0x970>
  40d424:	912ec001 	add	x1, x0, #0xbb0
  40d428:	aa0203e0 	mov	x0, x2
  40d42c:	97ffeec5 	bl	408f40 <_ZNSolsEPFRSoS_E@plt>
  40d430:	f9400fe1 	ldr	x1, [sp,#24]
  40d434:	f9400023 	ldr	x3, [x1]
  40d438:	f9400be1 	ldr	x1, [sp,#16]
  40d43c:	b9400025 	ldr	w5, [x1]
  40d440:	f94017e2 	ldr	x2, [sp,#40]
  40d444:	f94013e6 	ldr	x6, [sp,#32]
  40d448:	d2800001 	mov	x1, #0x0                   	// #0
  40d44c:	aa0503e4 	mov	x4, x5
  40d450:	ad8804c0 	stp	q0, q1, [x6,#256]!
  40d454:	ad8804c0 	stp	q0, q1, [x6,#256]!
  40d458:	adc80440 	ldp	q0, q1, [x2,#256]!
  40d45c:	ad8804c0 	stp	q0, q1, [x6,#256]!
  40d460:	adc80440 	ldp	q0, q1, [x2,#256]!
  40d464:	ad8804c0 	stp	q0, q1, [x6,#256]!
  40d468:	aa1e03eb 	mov	x11, x30
  40d46c:	97fff086 	bl	409684 <nop_>
  40d470:	aa0b03fe 	mov	x30, x11
  40d474:	ad8804c0 	stp	q0, q1, [x6,#256]!
  40d478:	adc80440 	ldp	q0, q1, [x2,#256]!
  40d47c:	ad8804c0 	stp	q0, q1, [x6,#256]!
  40d480:	adc80440 	ldp	q0, q1, [x2,#256]!
  40d484:	ad8804c0 	stp	q0, q1, [x6,#256]!
  40d488:	ad8804c0 	stp	q0, q1, [x6,#256]!
  40d48c:	aa1e03eb 	mov	x11, x30
  40d490:	97fff07d 	bl	409684 <nop_>
  40d494:	aa0b03fe 	mov	x30, x11
  40d498:	adc80440 	ldp	q0, q1, [x2,#256]!
  40d49c:	ad8804c0 	stp	q0, q1, [x6,#256]!
  40d4a0:	adc80440 	ldp	q0, q1, [x2,#256]!
  40d4a4:	ad8804c0 	stp	q0, q1, [x6,#256]!
  40d4a8:	adc80440 	ldp	q0, q1, [x2,#256]!
  40d4ac:	ad8804c0 	stp	q0, q1, [x6,#256]!
  40d4b0:	aa1e03eb 	mov	x11, x30
  40d4b4:	97fff074 	bl	409684 <nop_>
  40d4b8:	aa0b03fe 	mov	x30, x11
  40d4bc:	ad8804c0 	stp	q0, q1, [x6,#256]!
  40d4c0:	adc80440 	ldp	q0, q1, [x2,#256]!
  40d4c4:	ad8804c0 	stp	q0, q1, [x6,#256]!
  40d4c8:	ad8804c0 	stp	q0, q1, [x6,#256]!
  40d4cc:	adc80440 	ldp	q0, q1, [x2,#256]!
  40d4d0:	ad8804c0 	stp	q0, q1, [x6,#256]!
  40d4d4:	aa1e03eb 	mov	x11, x30
  40d4d8:	97fff06b 	bl	409684 <nop_>
  40d4dc:	aa0b03fe 	mov	x30, x11
  40d4e0:	ad8804c0 	stp	q0, q1, [x6,#256]!
  40d4e4:	adc80440 	ldp	q0, q1, [x2,#256]!
  40d4e8:	ad8804c0 	stp	q0, q1, [x6,#256]!
  40d4ec:	ad8804c0 	stp	q0, q1, [x6,#256]!
  40d4f0:	adc80440 	ldp	q0, q1, [x2,#256]!
  40d4f4:	ad8804c0 	stp	q0, q1, [x6,#256]!
  40d4f8:	aa1e03eb 	mov	x11, x30
  40d4fc:	97fff062 	bl	409684 <nop_>
  40d500:	aa0b03fe 	mov	x30, x11
  40d504:	adc80440 	ldp	q0, q1, [x2,#256]!
  40d508:	ad8804c0 	stp	q0, q1, [x6,#256]!
  40d50c:	adc80440 	ldp	q0, q1, [x2,#256]!
  40d510:	ad8804c0 	stp	q0, q1, [x6,#256]!
  40d514:	adc80440 	ldp	q0, q1, [x2,#256]!
  40d518:	ad8804c0 	stp	q0, q1, [x6,#256]!
  40d51c:	aa1e03eb 	mov	x11, x30
  40d520:	97fff059 	bl	409684 <nop_>
  40d524:	aa0b03fe 	mov	x30, x11
  40d528:	ad8804c0 	stp	q0, q1, [x6,#256]!
  40d52c:	adc80440 	ldp	q0, q1, [x2,#256]!
  40d530:	ad8804c0 	stp	q0, q1, [x6,#256]!
  40d534:	adc80440 	ldp	q0, q1, [x2,#256]!
  40d538:	adc80440 	ldp	q0, q1, [x2,#256]!
  40d53c:	ad8804c0 	stp	q0, q1, [x6,#256]!
  40d540:	aa1e03eb 	mov	x11, x30
  40d544:	97fff050 	bl	409684 <nop_>
  40d548:	aa0b03fe 	mov	x30, x11
  40d54c:	ad8804c0 	stp	q0, q1, [x6,#256]!
  40d550:	ad8804c0 	stp	q0, q1, [x6,#256]!
  40d554:	adc80440 	ldp	q0, q1, [x2,#256]!
  40d558:	ad8804c0 	stp	q0, q1, [x6,#256]!
  40d55c:	adc80440 	ldp	q0, q1, [x2,#256]!
  40d560:	ad8804c0 	stp	q0, q1, [x6,#256]!
  40d564:	aa1e03eb 	mov	x11, x30
  40d568:	97fff047 	bl	409684 <nop_>
  40d56c:	aa0b03fe 	mov	x30, x11
  40d570:	adc80440 	ldp	q0, q1, [x2,#256]!
  40d574:	ad8804c0 	stp	q0, q1, [x6,#256]!
  40d578:	ad8804c0 	stp	q0, q1, [x6,#256]!
  40d57c:	ad8804c0 	stp	q0, q1, [x6,#256]!
  40d580:	ad8804c0 	stp	q0, q1, [x6,#256]!
  40d584:	adc80440 	ldp	q0, q1, [x2,#256]!
  40d588:	aa1e03eb 	mov	x11, x30
  40d58c:	97fff03e 	bl	409684 <nop_>
  40d590:	aa0b03fe 	mov	x30, x11
  40d594:	adc80440 	ldp	q0, q1, [x2,#256]!
  40d598:	ad8804c0 	stp	q0, q1, [x6,#256]!
  40d59c:	adc80440 	ldp	q0, q1, [x2,#256]!
  40d5a0:	ad8804c0 	stp	q0, q1, [x6,#256]!
  40d5a4:	adc80440 	ldp	q0, q1, [x2,#256]!
  40d5a8:	ad8804c0 	stp	q0, q1, [x6,#256]!
  40d5ac:	aa1e03eb 	mov	x11, x30
  40d5b0:	97fff035 	bl	409684 <nop_>
  40d5b4:	aa0b03fe 	mov	x30, x11
  40d5b8:	ad8804c0 	stp	q0, q1, [x6,#256]!
  40d5bc:	adc80440 	ldp	q0, q1, [x2,#256]!
  40d5c0:	ad8804c0 	stp	q0, q1, [x6,#256]!
  40d5c4:	adc80440 	ldp	q0, q1, [x2,#256]!
  40d5c8:	ad8804c0 	stp	q0, q1, [x6,#256]!
  40d5cc:	ad8804c0 	stp	q0, q1, [x6,#256]!
  40d5d0:	aa1e03eb 	mov	x11, x30
  40d5d4:	97fff02c 	bl	409684 <nop_>
  40d5d8:	aa0b03fe 	mov	x30, x11
  40d5dc:	ad8804c0 	stp	q0, q1, [x6,#256]!
  40d5e0:	adc80440 	ldp	q0, q1, [x2,#256]!
  40d5e4:	ad8804c0 	stp	q0, q1, [x6,#256]!
  40d5e8:	ad8804c0 	stp	q0, q1, [x6,#256]!
  40d5ec:	adc80440 	ldp	q0, q1, [x2,#256]!
  40d5f0:	ad8804c0 	stp	q0, q1, [x6,#256]!
  40d5f4:	aa1e03eb 	mov	x11, x30
  40d5f8:	97fff023 	bl	409684 <nop_>
  40d5fc:	aa0b03fe 	mov	x30, x11
  40d600:	ad8804c0 	stp	q0, q1, [x6,#256]!
  40d604:	adc80440 	ldp	q0, q1, [x2,#256]!
  40d608:	ad8804c0 	stp	q0, q1, [x6,#256]!
  40d60c:	adc80440 	ldp	q0, q1, [x2,#256]!
  40d610:	adc80440 	ldp	q0, q1, [x2,#256]!
  40d614:	ad8804c0 	stp	q0, q1, [x6,#256]!
  40d618:	aa1e03eb 	mov	x11, x30
  40d61c:	97fff01a 	bl	409684 <nop_>
  40d620:	aa0b03fe 	mov	x30, x11
  40d624:	ad8804c0 	stp	q0, q1, [x6,#256]!
  40d628:	adc80440 	ldp	q0, q1, [x2,#256]!
  40d62c:	ad8804c0 	stp	q0, q1, [x6,#256]!
  40d630:	ad8804c0 	stp	q0, q1, [x6,#256]!
  40d634:	adc80440 	ldp	q0, q1, [x2,#256]!
  40d638:	ad8804c0 	stp	q0, q1, [x6,#256]!
  40d63c:	aa1e03eb 	mov	x11, x30
  40d640:	97fff011 	bl	409684 <nop_>
  40d644:	aa0b03fe 	mov	x30, x11
  40d648:	ad8804c0 	stp	q0, q1, [x6,#256]!
  40d64c:	adc80440 	ldp	q0, q1, [x2,#256]!
  40d650:	ad8804c0 	stp	q0, q1, [x6,#256]!
  40d654:	ad8804c0 	stp	q0, q1, [x6,#256]!
  40d658:	adc80440 	ldp	q0, q1, [x2,#256]!
  40d65c:	ad8804c0 	stp	q0, q1, [x6,#256]!
  40d660:	aa1e03eb 	mov	x11, x30
  40d664:	97fff008 	bl	409684 <nop_>
  40d668:	aa0b03fe 	mov	x30, x11
  40d66c:	adc80440 	ldp	q0, q1, [x2,#256]!
  40d670:	ad8804c0 	stp	q0, q1, [x6,#256]!
  40d674:	adc80440 	ldp	q0, q1, [x2,#256]!
  40d678:	ad8804c0 	stp	q0, q1, [x6,#256]!
  40d67c:	ad8804c0 	stp	q0, q1, [x6,#256]!
  40d680:	ad8804c0 	stp	q0, q1, [x6,#256]!
  40d684:	aa1e03eb 	mov	x11, x30
  40d688:	97ffefff 	bl	409684 <nop_>
  40d68c:	aa0b03fe 	mov	x30, x11
  40d690:	ad8804c0 	stp	q0, q1, [x6,#256]!
  40d694:	adc80440 	ldp	q0, q1, [x2,#256]!
  40d698:	ad8804c0 	stp	q0, q1, [x6,#256]!
  40d69c:	ad8804c0 	stp	q0, q1, [x6,#256]!
  40d6a0:	aa1e03eb 	mov	x11, x30
  40d6a4:	97ffeff8 	bl	409684 <nop_>
  40d6a8:	aa0b03fe 	mov	x30, x11
  40d6ac:	91320021 	add	x1, x1, #0xc80
  40d6b0:	eb03003f 	cmp	x1, x3
  40d6b4:	540327ad 	b.le	413ba8 <_Z15STREAM_copy_100PdS_PlPKi+0xe0>
  40d6b8:	d503201f 	nop
  40d6bc:	a8c37bfd 	ldp	x29, x30, [sp],#48
  40d6c0:	d65f03c0 	ret

000000000040d6c4 <_Z14STREAM_copy_40PdS_PlPKi>:
  40d6c4:	a9bd7bfd 	stp	x29, x30, [sp,#-48]!
  40d6c8:	910003fd 	mov	x29, sp
  40d6cc:	f90017e0 	str	x0, [sp,#40]
  40d6d0:	f90013e1 	str	x1, [sp,#32]
  40d6d4:	f9000fe2 	str	x2, [sp,#24]
  40d6d8:	f9000be3 	str	x3, [sp,#16]
  40d6dc:	d2800000 	mov	x0, #0x0                   	// #0
  40d6e0:	90000060 	adrp	x0, 419000 <_IO_stdin_used+0x8>
  40d6e4:	91008001 	add	x1, x0, #0x20
  40d6e8:	b0000100 	adrp	x0, 42e000 <_Znam@GLIBCXX_3.4>
  40d6ec:	91286000 	add	x0, x0, #0xa18
  40d6f0:	97ffee00 	bl	408ef0 <_ZStlsISt11char_traitsIcEERSt13basic_ostreamIcT_ES5_PKc@plt>
  40d6f4:	aa0003e2 	mov	x2, x0
  40d6f8:	f9400be0 	ldr	x0, [sp,#16]
  40d6fc:	b9400000 	ldr	w0, [x0]
  40d700:	2a0003e1 	mov	w1, w0
  40d704:	aa0203e0 	mov	x0, x2
  40d708:	97ffef2e 	bl	4093c0 <_ZNSolsEi@plt>
  40d70c:	aa0003e2 	mov	x2, x0
  40d710:	90000060 	adrp	x0, 419000 <_IO_stdin_used+0x8>
  40d714:	9100c001 	add	x1, x0, #0x30
  40d718:	aa0203e0 	mov	x0, x2
  40d71c:	97ffedf5 	bl	408ef0 <_ZStlsISt11char_traitsIcEERSt13basic_ostreamIcT_ES5_PKc@plt>
  40d720:	f94017e1 	ldr	x1, [sp,#40]
  40d724:	97ffed97 	bl	408d80 <_ZNSolsEPKv@plt>
  40d728:	aa0003e2 	mov	x2, x0
  40d72c:	90000060 	adrp	x0, 419000 <_IO_stdin_used+0x8>
  40d730:	91010001 	add	x1, x0, #0x40
  40d734:	aa0203e0 	mov	x0, x2
  40d738:	97ffedee 	bl	408ef0 <_ZStlsISt11char_traitsIcEERSt13basic_ostreamIcT_ES5_PKc@plt>
  40d73c:	f94013e1 	ldr	x1, [sp,#32]
  40d740:	97ffed90 	bl	408d80 <_ZNSolsEPKv@plt>
  40d744:	aa0003e2 	mov	x2, x0
  40d748:	90000060 	adrp	x0, 419000 <_IO_stdin_used+0x8>
  40d74c:	91014001 	add	x1, x0, #0x50
  40d750:	aa0203e0 	mov	x0, x2
  40d754:	97ffede7 	bl	408ef0 <_ZStlsISt11char_traitsIcEERSt13basic_ostreamIcT_ES5_PKc@plt>
  40d758:	aa0003e2 	mov	x2, x0
  40d75c:	f9400fe0 	ldr	x0, [sp,#24]
  40d760:	f9400000 	ldr	x0, [x0]
  40d764:	aa0003e1 	mov	x1, x0
  40d768:	aa0203e0 	mov	x0, x2
  40d76c:	97ffef35 	bl	409440 <_ZNSolsEl@plt>
  40d770:	aa0003e2 	mov	x2, x0
  40d774:	f0ffffc0 	adrp	x0, 408000 <_init-0x970>
  40d778:	912ec001 	add	x1, x0, #0xbb0
  40d77c:	aa0203e0 	mov	x0, x2
  40d780:	97ffedf0 	bl	408f40 <_ZNSolsEPFRSoS_E@plt>
  40d784:	f9400fe1 	ldr	x1, [sp,#24]
  40d788:	f9400023 	ldr	x3, [x1]
  40d78c:	f9400be1 	ldr	x1, [sp,#16]
  40d790:	b9400025 	ldr	w5, [x1]
  40d794:	f94017e2 	ldr	x2, [sp,#40]
  40d798:	f94013e6 	ldr	x6, [sp,#32]
  40d79c:	d2800001 	mov	x1, #0x0                   	// #0
  40d7a0:	aa0503e4 	mov	x4, x5
  40d7a4:	ad8804c0 	stp	q0, q1, [x6,#256]!
  40d7a8:	ad8804c0 	stp	q0, q1, [x6,#256]!
  40d7ac:	adc80440 	ldp	q0, q1, [x2,#256]!
  40d7b0:	ad8804c0 	stp	q0, q1, [x6,#256]!
  40d7b4:	adc80440 	ldp	q0, q1, [x2,#256]!
  40d7b8:	ad8804c0 	stp	q0, q1, [x6,#256]!
  40d7bc:	aa1e03eb 	mov	x11, x30
  40d7c0:	97ffefb1 	bl	409684 <nop_>
  40d7c4:	aa0b03fe 	mov	x30, x11
  40d7c8:	ad8804c0 	stp	q0, q1, [x6,#256]!
  40d7cc:	adc80440 	ldp	q0, q1, [x2,#256]!
  40d7d0:	ad8804c0 	stp	q0, q1, [x6,#256]!
  40d7d4:	adc80440 	ldp	q0, q1, [x2,#256]!
  40d7d8:	ad8804c0 	stp	q0, q1, [x6,#256]!
  40d7dc:	ad8804c0 	stp	q0, q1, [x6,#256]!
  40d7e0:	aa1e03eb 	mov	x11, x30
  40d7e4:	97ffefa8 	bl	409684 <nop_>
  40d7e8:	aa0b03fe 	mov	x30, x11
  40d7ec:	adc80440 	ldp	q0, q1, [x2,#256]!
  40d7f0:	ad8804c0 	stp	q0, q1, [x6,#256]!
  40d7f4:	adc80440 	ldp	q0, q1, [x2,#256]!
  40d7f8:	ad8804c0 	stp	q0, q1, [x6,#256]!
  40d7fc:	adc80440 	ldp	q0, q1, [x2,#256]!
  40d800:	ad8804c0 	stp	q0, q1, [x6,#256]!
  40d804:	aa1e03eb 	mov	x11, x30
  40d808:	97ffef9f 	bl	409684 <nop_>
  40d80c:	aa0b03fe 	mov	x30, x11
  40d810:	ad8804c0 	stp	q0, q1, [x6,#256]!
  40d814:	adc80440 	ldp	q0, q1, [x2,#256]!
  40d818:	adc80440 	ldp	q0, q1, [x2,#256]!
  40d81c:	ad8804c0 	stp	q0, q1, [x6,#256]!
  40d820:	adc80440 	ldp	q0, q1, [x2,#256]!
  40d824:	ad8804c0 	stp	q0, q1, [x6,#256]!
  40d828:	aa1e03eb 	mov	x11, x30
  40d82c:	97ffef96 	bl	409684 <nop_>
  40d830:	aa0b03fe 	mov	x30, x11
  40d834:	ad8804c0 	stp	q0, q1, [x6,#256]!
  40d838:	adc80440 	ldp	q0, q1, [x2,#256]!
  40d83c:	ad8804c0 	stp	q0, q1, [x6,#256]!
  40d840:	ad8804c0 	stp	q0, q1, [x6,#256]!
  40d844:	adc80440 	ldp	q0, q1, [x2,#256]!
  40d848:	ad8804c0 	stp	q0, q1, [x6,#256]!
  40d84c:	aa1e03eb 	mov	x11, x30
  40d850:	97ffef8d 	bl	409684 <nop_>
  40d854:	aa0b03fe 	mov	x30, x11
  40d858:	adc80440 	ldp	q0, q1, [x2,#256]!
  40d85c:	ad8804c0 	stp	q0, q1, [x6,#256]!
  40d860:	adc80440 	ldp	q0, q1, [x2,#256]!
  40d864:	ad8804c0 	stp	q0, q1, [x6,#256]!
  40d868:	adc80440 	ldp	q0, q1, [x2,#256]!
  40d86c:	ad8804c0 	stp	q0, q1, [x6,#256]!
  40d870:	aa1e03eb 	mov	x11, x30
  40d874:	97ffef84 	bl	409684 <nop_>
  40d878:	aa0b03fe 	mov	x30, x11
  40d87c:	ad8804c0 	stp	q0, q1, [x6,#256]!
  40d880:	adc80440 	ldp	q0, q1, [x2,#256]!
  40d884:	ad8804c0 	stp	q0, q1, [x6,#256]!
  40d888:	adc80440 	ldp	q0, q1, [x2,#256]!
  40d88c:	adc80440 	ldp	q0, q1, [x2,#256]!
  40d890:	ad8804c0 	stp	q0, q1, [x6,#256]!
  40d894:	aa1e03eb 	mov	x11, x30
  40d898:	97ffef7b 	bl	409684 <nop_>
  40d89c:	aa0b03fe 	mov	x30, x11
  40d8a0:	ad8804c0 	stp	q0, q1, [x6,#256]!
  40d8a4:	ad8804c0 	stp	q0, q1, [x6,#256]!
  40d8a8:	adc80440 	ldp	q0, q1, [x2,#256]!
  40d8ac:	ad8804c0 	stp	q0, q1, [x6,#256]!
  40d8b0:	adc80440 	ldp	q0, q1, [x2,#256]!
  40d8b4:	ad8804c0 	stp	q0, q1, [x6,#256]!
  40d8b8:	aa1e03eb 	mov	x11, x30
  40d8bc:	97ffef72 	bl	409684 <nop_>
  40d8c0:	aa0b03fe 	mov	x30, x11
  40d8c4:	adc80440 	ldp	q0, q1, [x2,#256]!
  40d8c8:	ad8804c0 	stp	q0, q1, [x6,#256]!
  40d8cc:	ad8804c0 	stp	q0, q1, [x6,#256]!
  40d8d0:	ad8804c0 	stp	q0, q1, [x6,#256]!
  40d8d4:	ad8804c0 	stp	q0, q1, [x6,#256]!
  40d8d8:	adc80440 	ldp	q0, q1, [x2,#256]!
  40d8dc:	aa1e03eb 	mov	x11, x30
  40d8e0:	97ffef69 	bl	409684 <nop_>
  40d8e4:	aa0b03fe 	mov	x30, x11
  40d8e8:	adc80440 	ldp	q0, q1, [x2,#256]!
  40d8ec:	ad8804c0 	stp	q0, q1, [x6,#256]!
  40d8f0:	adc80440 	ldp	q0, q1, [x2,#256]!
  40d8f4:	ad8804c0 	stp	q0, q1, [x6,#256]!
  40d8f8:	adc80440 	ldp	q0, q1, [x2,#256]!
  40d8fc:	ad8804c0 	stp	q0, q1, [x6,#256]!
  40d900:	aa1e03eb 	mov	x11, x30
  40d904:	97ffef60 	bl	409684 <nop_>
  40d908:	aa0b03fe 	mov	x30, x11
  40d90c:	ad8804c0 	stp	q0, q1, [x6,#256]!
  40d910:	adc80440 	ldp	q0, q1, [x2,#256]!
  40d914:	ad8804c0 	stp	q0, q1, [x6,#256]!
  40d918:	adc80440 	ldp	q0, q1, [x2,#256]!
  40d91c:	ad8804c0 	stp	q0, q1, [x6,#256]!
  40d920:	ad8804c0 	stp	q0, q1, [x6,#256]!
  40d924:	aa1e03eb 	mov	x11, x30
  40d928:	97ffef57 	bl	409684 <nop_>
  40d92c:	aa0b03fe 	mov	x30, x11
  40d930:	ad8804c0 	stp	q0, q1, [x6,#256]!
  40d934:	adc80440 	ldp	q0, q1, [x2,#256]!
  40d938:	ad8804c0 	stp	q0, q1, [x6,#256]!
  40d93c:	ad8804c0 	stp	q0, q1, [x6,#256]!
  40d940:	adc80440 	ldp	q0, q1, [x2,#256]!
  40d944:	ad8804c0 	stp	q0, q1, [x6,#256]!
  40d948:	aa1e03eb 	mov	x11, x30
  40d94c:	97ffef4e 	bl	409684 <nop_>
  40d950:	aa0b03fe 	mov	x30, x11
  40d954:	ad8804c0 	stp	q0, q1, [x6,#256]!
  40d958:	adc80440 	ldp	q0, q1, [x2,#256]!
  40d95c:	ad8804c0 	stp	q0, q1, [x6,#256]!
  40d960:	adc80440 	ldp	q0, q1, [x2,#256]!
  40d964:	adc80440 	ldp	q0, q1, [x2,#256]!
  40d968:	ad8804c0 	stp	q0, q1, [x6,#256]!
  40d96c:	aa1e03eb 	mov	x11, x30
  40d970:	97ffef45 	bl	409684 <nop_>
  40d974:	aa0b03fe 	mov	x30, x11
  40d978:	ad8804c0 	stp	q0, q1, [x6,#256]!
  40d97c:	adc80440 	ldp	q0, q1, [x2,#256]!
  40d980:	ad8804c0 	stp	q0, q1, [x6,#256]!
  40d984:	ad8804c0 	stp	q0, q1, [x6,#256]!
  40d988:	adc80440 	ldp	q0, q1, [x2,#256]!
  40d98c:	ad8804c0 	stp	q0, q1, [x6,#256]!
  40d990:	aa1e03eb 	mov	x11, x30
  40d994:	97ffef3c 	bl	409684 <nop_>
  40d998:	aa0b03fe 	mov	x30, x11
  40d99c:	ad8804c0 	stp	q0, q1, [x6,#256]!
  40d9a0:	adc80440 	ldp	q0, q1, [x2,#256]!
  40d9a4:	ad8804c0 	stp	q0, q1, [x6,#256]!
  40d9a8:	ad8804c0 	stp	q0, q1, [x6,#256]!
  40d9ac:	adc80440 	ldp	q0, q1, [x2,#256]!
  40d9b0:	ad8804c0 	stp	q0, q1, [x6,#256]!
  40d9b4:	aa1e03eb 	mov	x11, x30
  40d9b8:	97ffef33 	bl	409684 <nop_>
  40d9bc:	aa0b03fe 	mov	x30, x11
  40d9c0:	adc80440 	ldp	q0, q1, [x2,#256]!
  40d9c4:	ad8804c0 	stp	q0, q1, [x6,#256]!
  40d9c8:	adc80440 	ldp	q0, q1, [x2,#256]!
  40d9cc:	ad8804c0 	stp	q0, q1, [x6,#256]!
  40d9d0:	adc80440 	ldp	q0, q1, [x2,#256]!
  40d9d4:	ad8804c0 	stp	q0, q1, [x6,#256]!
  40d9d8:	aa1e03eb 	mov	x11, x30
  40d9dc:	97ffef2a 	bl	409684 <nop_>
  40d9e0:	aa0b03fe 	mov	x30, x11
  40d9e4:	ad8804c0 	stp	q0, q1, [x6,#256]!
  40d9e8:	adc80440 	ldp	q0, q1, [x2,#256]!
  40d9ec:	ad8804c0 	stp	q0, q1, [x6,#256]!
  40d9f0:	ad8804c0 	stp	q0, q1, [x6,#256]!
  40d9f4:	aa1e03eb 	mov	x11, x30
  40d9f8:	97ffef23 	bl	409684 <nop_>
  40d9fc:	aa0b03fe 	mov	x30, x11
  40da00:	91320021 	add	x1, x1, #0xc80
  40da04:	eb03003f 	cmp	x1, x3
  40da08:	54030d0d 	b.le	413ba8 <_Z15STREAM_copy_100PdS_PlPKi+0xe0>
  40da0c:	d503201f 	nop
  40da10:	a8c37bfd 	ldp	x29, x30, [sp],#48
  40da14:	d65f03c0 	ret

000000000040da18 <_Z14STREAM_copy_42PdS_PlPKi>:
  40da18:	a9bd7bfd 	stp	x29, x30, [sp,#-48]!
  40da1c:	910003fd 	mov	x29, sp
  40da20:	f90017e0 	str	x0, [sp,#40]
  40da24:	f90013e1 	str	x1, [sp,#32]
  40da28:	f9000fe2 	str	x2, [sp,#24]
  40da2c:	f9000be3 	str	x3, [sp,#16]
  40da30:	d2800000 	mov	x0, #0x0                   	// #0
  40da34:	90000060 	adrp	x0, 419000 <_IO_stdin_used+0x8>
  40da38:	91008001 	add	x1, x0, #0x20
  40da3c:	b0000100 	adrp	x0, 42e000 <_Znam@GLIBCXX_3.4>
  40da40:	91286000 	add	x0, x0, #0xa18
  40da44:	97ffed2b 	bl	408ef0 <_ZStlsISt11char_traitsIcEERSt13basic_ostreamIcT_ES5_PKc@plt>
  40da48:	aa0003e2 	mov	x2, x0
  40da4c:	f9400be0 	ldr	x0, [sp,#16]
  40da50:	b9400000 	ldr	w0, [x0]
  40da54:	2a0003e1 	mov	w1, w0
  40da58:	aa0203e0 	mov	x0, x2
  40da5c:	97ffee59 	bl	4093c0 <_ZNSolsEi@plt>
  40da60:	aa0003e2 	mov	x2, x0
  40da64:	90000060 	adrp	x0, 419000 <_IO_stdin_used+0x8>
  40da68:	9100c001 	add	x1, x0, #0x30
  40da6c:	aa0203e0 	mov	x0, x2
  40da70:	97ffed20 	bl	408ef0 <_ZStlsISt11char_traitsIcEERSt13basic_ostreamIcT_ES5_PKc@plt>
  40da74:	f94017e1 	ldr	x1, [sp,#40]
  40da78:	97ffecc2 	bl	408d80 <_ZNSolsEPKv@plt>
  40da7c:	aa0003e2 	mov	x2, x0
  40da80:	90000060 	adrp	x0, 419000 <_IO_stdin_used+0x8>
  40da84:	91010001 	add	x1, x0, #0x40
  40da88:	aa0203e0 	mov	x0, x2
  40da8c:	97ffed19 	bl	408ef0 <_ZStlsISt11char_traitsIcEERSt13basic_ostreamIcT_ES5_PKc@plt>
  40da90:	f94013e1 	ldr	x1, [sp,#32]
  40da94:	97ffecbb 	bl	408d80 <_ZNSolsEPKv@plt>
  40da98:	aa0003e2 	mov	x2, x0
  40da9c:	90000060 	adrp	x0, 419000 <_IO_stdin_used+0x8>
  40daa0:	91014001 	add	x1, x0, #0x50
  40daa4:	aa0203e0 	mov	x0, x2
  40daa8:	97ffed12 	bl	408ef0 <_ZStlsISt11char_traitsIcEERSt13basic_ostreamIcT_ES5_PKc@plt>
  40daac:	aa0003e2 	mov	x2, x0
  40dab0:	f9400fe0 	ldr	x0, [sp,#24]
  40dab4:	f9400000 	ldr	x0, [x0]
  40dab8:	aa0003e1 	mov	x1, x0
  40dabc:	aa0203e0 	mov	x0, x2
  40dac0:	97ffee60 	bl	409440 <_ZNSolsEl@plt>
  40dac4:	aa0003e2 	mov	x2, x0
  40dac8:	f0ffffc0 	adrp	x0, 408000 <_init-0x970>
  40dacc:	912ec001 	add	x1, x0, #0xbb0
  40dad0:	aa0203e0 	mov	x0, x2
  40dad4:	97ffed1b 	bl	408f40 <_ZNSolsEPFRSoS_E@plt>
  40dad8:	f9400fe1 	ldr	x1, [sp,#24]
  40dadc:	f9400023 	ldr	x3, [x1]
  40dae0:	f9400be1 	ldr	x1, [sp,#16]
  40dae4:	b9400025 	ldr	w5, [x1]
  40dae8:	f94017e2 	ldr	x2, [sp,#40]
  40daec:	f94013e6 	ldr	x6, [sp,#32]
  40daf0:	d2800001 	mov	x1, #0x0                   	// #0
  40daf4:	aa0503e4 	mov	x4, x5
  40daf8:	ad8804c0 	stp	q0, q1, [x6,#256]!
  40dafc:	ad8804c0 	stp	q0, q1, [x6,#256]!
  40db00:	adc80440 	ldp	q0, q1, [x2,#256]!
  40db04:	ad8804c0 	stp	q0, q1, [x6,#256]!
  40db08:	adc80440 	ldp	q0, q1, [x2,#256]!
  40db0c:	ad8804c0 	stp	q0, q1, [x6,#256]!
  40db10:	aa1e03eb 	mov	x11, x30
  40db14:	97ffeedc 	bl	409684 <nop_>
  40db18:	aa0b03fe 	mov	x30, x11
  40db1c:	ad8804c0 	stp	q0, q1, [x6,#256]!
  40db20:	adc80440 	ldp	q0, q1, [x2,#256]!
  40db24:	ad8804c0 	stp	q0, q1, [x6,#256]!
  40db28:	adc80440 	ldp	q0, q1, [x2,#256]!
  40db2c:	ad8804c0 	stp	q0, q1, [x6,#256]!
  40db30:	adc80440 	ldp	q0, q1, [x2,#256]!
  40db34:	aa1e03eb 	mov	x11, x30
  40db38:	97ffeed3 	bl	409684 <nop_>
  40db3c:	aa0b03fe 	mov	x30, x11
  40db40:	adc80440 	ldp	q0, q1, [x2,#256]!
  40db44:	ad8804c0 	stp	q0, q1, [x6,#256]!
  40db48:	adc80440 	ldp	q0, q1, [x2,#256]!
  40db4c:	ad8804c0 	stp	q0, q1, [x6,#256]!
  40db50:	adc80440 	ldp	q0, q1, [x2,#256]!
  40db54:	ad8804c0 	stp	q0, q1, [x6,#256]!
  40db58:	aa1e03eb 	mov	x11, x30
  40db5c:	97ffeeca 	bl	409684 <nop_>
  40db60:	aa0b03fe 	mov	x30, x11
  40db64:	ad8804c0 	stp	q0, q1, [x6,#256]!
  40db68:	adc80440 	ldp	q0, q1, [x2,#256]!
  40db6c:	adc80440 	ldp	q0, q1, [x2,#256]!
  40db70:	ad8804c0 	stp	q0, q1, [x6,#256]!
  40db74:	adc80440 	ldp	q0, q1, [x2,#256]!
  40db78:	ad8804c0 	stp	q0, q1, [x6,#256]!
  40db7c:	aa1e03eb 	mov	x11, x30
  40db80:	97ffeec1 	bl	409684 <nop_>
  40db84:	aa0b03fe 	mov	x30, x11
  40db88:	ad8804c0 	stp	q0, q1, [x6,#256]!
  40db8c:	adc80440 	ldp	q0, q1, [x2,#256]!
  40db90:	ad8804c0 	stp	q0, q1, [x6,#256]!
  40db94:	ad8804c0 	stp	q0, q1, [x6,#256]!
  40db98:	adc80440 	ldp	q0, q1, [x2,#256]!
  40db9c:	ad8804c0 	stp	q0, q1, [x6,#256]!
  40dba0:	aa1e03eb 	mov	x11, x30
  40dba4:	97ffeeb8 	bl	409684 <nop_>
  40dba8:	aa0b03fe 	mov	x30, x11
  40dbac:	adc80440 	ldp	q0, q1, [x2,#256]!
  40dbb0:	ad8804c0 	stp	q0, q1, [x6,#256]!
  40dbb4:	adc80440 	ldp	q0, q1, [x2,#256]!
  40dbb8:	ad8804c0 	stp	q0, q1, [x6,#256]!
  40dbbc:	adc80440 	ldp	q0, q1, [x2,#256]!
  40dbc0:	ad8804c0 	stp	q0, q1, [x6,#256]!
  40dbc4:	aa1e03eb 	mov	x11, x30
  40dbc8:	97ffeeaf 	bl	409684 <nop_>
  40dbcc:	aa0b03fe 	mov	x30, x11
  40dbd0:	ad8804c0 	stp	q0, q1, [x6,#256]!
  40dbd4:	adc80440 	ldp	q0, q1, [x2,#256]!
  40dbd8:	ad8804c0 	stp	q0, q1, [x6,#256]!
  40dbdc:	adc80440 	ldp	q0, q1, [x2,#256]!
  40dbe0:	adc80440 	ldp	q0, q1, [x2,#256]!
  40dbe4:	ad8804c0 	stp	q0, q1, [x6,#256]!
  40dbe8:	aa1e03eb 	mov	x11, x30
  40dbec:	97ffeea6 	bl	409684 <nop_>
  40dbf0:	aa0b03fe 	mov	x30, x11
  40dbf4:	ad8804c0 	stp	q0, q1, [x6,#256]!
  40dbf8:	ad8804c0 	stp	q0, q1, [x6,#256]!
  40dbfc:	adc80440 	ldp	q0, q1, [x2,#256]!
  40dc00:	ad8804c0 	stp	q0, q1, [x6,#256]!
  40dc04:	adc80440 	ldp	q0, q1, [x2,#256]!
  40dc08:	ad8804c0 	stp	q0, q1, [x6,#256]!
  40dc0c:	aa1e03eb 	mov	x11, x30
  40dc10:	97ffee9d 	bl	409684 <nop_>
  40dc14:	aa0b03fe 	mov	x30, x11
  40dc18:	adc80440 	ldp	q0, q1, [x2,#256]!
  40dc1c:	ad8804c0 	stp	q0, q1, [x6,#256]!
  40dc20:	ad8804c0 	stp	q0, q1, [x6,#256]!
  40dc24:	ad8804c0 	stp	q0, q1, [x6,#256]!
  40dc28:	ad8804c0 	stp	q0, q1, [x6,#256]!
  40dc2c:	adc80440 	ldp	q0, q1, [x2,#256]!
  40dc30:	aa1e03eb 	mov	x11, x30
  40dc34:	97ffee94 	bl	409684 <nop_>
  40dc38:	aa0b03fe 	mov	x30, x11
  40dc3c:	adc80440 	ldp	q0, q1, [x2,#256]!
  40dc40:	ad8804c0 	stp	q0, q1, [x6,#256]!
  40dc44:	adc80440 	ldp	q0, q1, [x2,#256]!
  40dc48:	ad8804c0 	stp	q0, q1, [x6,#256]!
  40dc4c:	adc80440 	ldp	q0, q1, [x2,#256]!
  40dc50:	ad8804c0 	stp	q0, q1, [x6,#256]!
  40dc54:	aa1e03eb 	mov	x11, x30
  40dc58:	97ffee8b 	bl	409684 <nop_>
  40dc5c:	aa0b03fe 	mov	x30, x11
  40dc60:	ad8804c0 	stp	q0, q1, [x6,#256]!
  40dc64:	adc80440 	ldp	q0, q1, [x2,#256]!
  40dc68:	ad8804c0 	stp	q0, q1, [x6,#256]!
  40dc6c:	adc80440 	ldp	q0, q1, [x2,#256]!
  40dc70:	ad8804c0 	stp	q0, q1, [x6,#256]!
  40dc74:	ad8804c0 	stp	q0, q1, [x6,#256]!
  40dc78:	aa1e03eb 	mov	x11, x30
  40dc7c:	97ffee82 	bl	409684 <nop_>
  40dc80:	aa0b03fe 	mov	x30, x11
  40dc84:	ad8804c0 	stp	q0, q1, [x6,#256]!
  40dc88:	adc80440 	ldp	q0, q1, [x2,#256]!
  40dc8c:	adc80440 	ldp	q0, q1, [x2,#256]!
  40dc90:	ad8804c0 	stp	q0, q1, [x6,#256]!
  40dc94:	adc80440 	ldp	q0, q1, [x2,#256]!
  40dc98:	ad8804c0 	stp	q0, q1, [x6,#256]!
  40dc9c:	aa1e03eb 	mov	x11, x30
  40dca0:	97ffee79 	bl	409684 <nop_>
  40dca4:	aa0b03fe 	mov	x30, x11
  40dca8:	ad8804c0 	stp	q0, q1, [x6,#256]!
  40dcac:	adc80440 	ldp	q0, q1, [x2,#256]!
  40dcb0:	ad8804c0 	stp	q0, q1, [x6,#256]!
  40dcb4:	adc80440 	ldp	q0, q1, [x2,#256]!
  40dcb8:	adc80440 	ldp	q0, q1, [x2,#256]!
  40dcbc:	ad8804c0 	stp	q0, q1, [x6,#256]!
  40dcc0:	aa1e03eb 	mov	x11, x30
  40dcc4:	97ffee70 	bl	409684 <nop_>
  40dcc8:	aa0b03fe 	mov	x30, x11
  40dccc:	ad8804c0 	stp	q0, q1, [x6,#256]!
  40dcd0:	adc80440 	ldp	q0, q1, [x2,#256]!
  40dcd4:	ad8804c0 	stp	q0, q1, [x6,#256]!
  40dcd8:	ad8804c0 	stp	q0, q1, [x6,#256]!
  40dcdc:	adc80440 	ldp	q0, q1, [x2,#256]!
  40dce0:	ad8804c0 	stp	q0, q1, [x6,#256]!
  40dce4:	aa1e03eb 	mov	x11, x30
  40dce8:	97ffee67 	bl	409684 <nop_>
  40dcec:	aa0b03fe 	mov	x30, x11
  40dcf0:	ad8804c0 	stp	q0, q1, [x6,#256]!
  40dcf4:	adc80440 	ldp	q0, q1, [x2,#256]!
  40dcf8:	ad8804c0 	stp	q0, q1, [x6,#256]!
  40dcfc:	ad8804c0 	stp	q0, q1, [x6,#256]!
  40dd00:	adc80440 	ldp	q0, q1, [x2,#256]!
  40dd04:	ad8804c0 	stp	q0, q1, [x6,#256]!
  40dd08:	aa1e03eb 	mov	x11, x30
  40dd0c:	97ffee5e 	bl	409684 <nop_>
  40dd10:	aa0b03fe 	mov	x30, x11
  40dd14:	adc80440 	ldp	q0, q1, [x2,#256]!
  40dd18:	ad8804c0 	stp	q0, q1, [x6,#256]!
  40dd1c:	adc80440 	ldp	q0, q1, [x2,#256]!
  40dd20:	ad8804c0 	stp	q0, q1, [x6,#256]!
  40dd24:	adc80440 	ldp	q0, q1, [x2,#256]!
  40dd28:	ad8804c0 	stp	q0, q1, [x6,#256]!
  40dd2c:	aa1e03eb 	mov	x11, x30
  40dd30:	97ffee55 	bl	409684 <nop_>
  40dd34:	aa0b03fe 	mov	x30, x11
  40dd38:	ad8804c0 	stp	q0, q1, [x6,#256]!
  40dd3c:	adc80440 	ldp	q0, q1, [x2,#256]!
  40dd40:	ad8804c0 	stp	q0, q1, [x6,#256]!
  40dd44:	ad8804c0 	stp	q0, q1, [x6,#256]!
  40dd48:	aa1e03eb 	mov	x11, x30
  40dd4c:	97ffee4e 	bl	409684 <nop_>
  40dd50:	aa0b03fe 	mov	x30, x11
  40dd54:	91320021 	add	x1, x1, #0xc80
  40dd58:	eb03003f 	cmp	x1, x3
  40dd5c:	5402f26d 	b.le	413ba8 <_Z15STREAM_copy_100PdS_PlPKi+0xe0>
  40dd60:	d503201f 	nop
  40dd64:	a8c37bfd 	ldp	x29, x30, [sp],#48
  40dd68:	d65f03c0 	ret

000000000040dd6c <_Z14STREAM_copy_44PdS_PlPKi>:
  40dd6c:	a9bd7bfd 	stp	x29, x30, [sp,#-48]!
  40dd70:	910003fd 	mov	x29, sp
  40dd74:	f90017e0 	str	x0, [sp,#40]
  40dd78:	f90013e1 	str	x1, [sp,#32]
  40dd7c:	f9000fe2 	str	x2, [sp,#24]
  40dd80:	f9000be3 	str	x3, [sp,#16]
  40dd84:	d2800000 	mov	x0, #0x0                   	// #0
  40dd88:	90000060 	adrp	x0, 419000 <_IO_stdin_used+0x8>
  40dd8c:	91008001 	add	x1, x0, #0x20
  40dd90:	b0000100 	adrp	x0, 42e000 <_Znam@GLIBCXX_3.4>
  40dd94:	91286000 	add	x0, x0, #0xa18
  40dd98:	97ffec56 	bl	408ef0 <_ZStlsISt11char_traitsIcEERSt13basic_ostreamIcT_ES5_PKc@plt>
  40dd9c:	aa0003e2 	mov	x2, x0
  40dda0:	f9400be0 	ldr	x0, [sp,#16]
  40dda4:	b9400000 	ldr	w0, [x0]
  40dda8:	2a0003e1 	mov	w1, w0
  40ddac:	aa0203e0 	mov	x0, x2
  40ddb0:	97ffed84 	bl	4093c0 <_ZNSolsEi@plt>
  40ddb4:	aa0003e2 	mov	x2, x0
  40ddb8:	90000060 	adrp	x0, 419000 <_IO_stdin_used+0x8>
  40ddbc:	9100c001 	add	x1, x0, #0x30
  40ddc0:	aa0203e0 	mov	x0, x2
  40ddc4:	97ffec4b 	bl	408ef0 <_ZStlsISt11char_traitsIcEERSt13basic_ostreamIcT_ES5_PKc@plt>
  40ddc8:	f94017e1 	ldr	x1, [sp,#40]
  40ddcc:	97ffebed 	bl	408d80 <_ZNSolsEPKv@plt>
  40ddd0:	aa0003e2 	mov	x2, x0
  40ddd4:	90000060 	adrp	x0, 419000 <_IO_stdin_used+0x8>
  40ddd8:	91010001 	add	x1, x0, #0x40
  40dddc:	aa0203e0 	mov	x0, x2
  40dde0:	97ffec44 	bl	408ef0 <_ZStlsISt11char_traitsIcEERSt13basic_ostreamIcT_ES5_PKc@plt>
  40dde4:	f94013e1 	ldr	x1, [sp,#32]
  40dde8:	97ffebe6 	bl	408d80 <_ZNSolsEPKv@plt>
  40ddec:	aa0003e2 	mov	x2, x0
  40ddf0:	90000060 	adrp	x0, 419000 <_IO_stdin_used+0x8>
  40ddf4:	91014001 	add	x1, x0, #0x50
  40ddf8:	aa0203e0 	mov	x0, x2
  40ddfc:	97ffec3d 	bl	408ef0 <_ZStlsISt11char_traitsIcEERSt13basic_ostreamIcT_ES5_PKc@plt>
  40de00:	aa0003e2 	mov	x2, x0
  40de04:	f9400fe0 	ldr	x0, [sp,#24]
  40de08:	f9400000 	ldr	x0, [x0]
  40de0c:	aa0003e1 	mov	x1, x0
  40de10:	aa0203e0 	mov	x0, x2
  40de14:	97ffed8b 	bl	409440 <_ZNSolsEl@plt>
  40de18:	aa0003e2 	mov	x2, x0
  40de1c:	f0ffffc0 	adrp	x0, 408000 <_init-0x970>
  40de20:	912ec001 	add	x1, x0, #0xbb0
  40de24:	aa0203e0 	mov	x0, x2
  40de28:	97ffec46 	bl	408f40 <_ZNSolsEPFRSoS_E@plt>
  40de2c:	f9400fe1 	ldr	x1, [sp,#24]
  40de30:	f9400023 	ldr	x3, [x1]
  40de34:	f9400be1 	ldr	x1, [sp,#16]
  40de38:	b9400025 	ldr	w5, [x1]
  40de3c:	f94017e2 	ldr	x2, [sp,#40]
  40de40:	f94013e6 	ldr	x6, [sp,#32]
  40de44:	d2800001 	mov	x1, #0x0                   	// #0
  40de48:	aa0503e4 	mov	x4, x5
  40de4c:	ad8804c0 	stp	q0, q1, [x6,#256]!
  40de50:	ad8804c0 	stp	q0, q1, [x6,#256]!
  40de54:	adc80440 	ldp	q0, q1, [x2,#256]!
  40de58:	ad8804c0 	stp	q0, q1, [x6,#256]!
  40de5c:	adc80440 	ldp	q0, q1, [x2,#256]!
  40de60:	ad8804c0 	stp	q0, q1, [x6,#256]!
  40de64:	aa1e03eb 	mov	x11, x30
  40de68:	97ffee07 	bl	409684 <nop_>
  40de6c:	aa0b03fe 	mov	x30, x11
  40de70:	ad8804c0 	stp	q0, q1, [x6,#256]!
  40de74:	adc80440 	ldp	q0, q1, [x2,#256]!
  40de78:	ad8804c0 	stp	q0, q1, [x6,#256]!
  40de7c:	adc80440 	ldp	q0, q1, [x2,#256]!
  40de80:	ad8804c0 	stp	q0, q1, [x6,#256]!
  40de84:	adc80440 	ldp	q0, q1, [x2,#256]!
  40de88:	aa1e03eb 	mov	x11, x30
  40de8c:	97ffedfe 	bl	409684 <nop_>
  40de90:	aa0b03fe 	mov	x30, x11
  40de94:	adc80440 	ldp	q0, q1, [x2,#256]!
  40de98:	ad8804c0 	stp	q0, q1, [x6,#256]!
  40de9c:	adc80440 	ldp	q0, q1, [x2,#256]!
  40dea0:	ad8804c0 	stp	q0, q1, [x6,#256]!
  40dea4:	adc80440 	ldp	q0, q1, [x2,#256]!
  40dea8:	ad8804c0 	stp	q0, q1, [x6,#256]!
  40deac:	aa1e03eb 	mov	x11, x30
  40deb0:	97ffedf5 	bl	409684 <nop_>
  40deb4:	aa0b03fe 	mov	x30, x11
  40deb8:	ad8804c0 	stp	q0, q1, [x6,#256]!
  40debc:	adc80440 	ldp	q0, q1, [x2,#256]!
  40dec0:	adc80440 	ldp	q0, q1, [x2,#256]!
  40dec4:	ad8804c0 	stp	q0, q1, [x6,#256]!
  40dec8:	adc80440 	ldp	q0, q1, [x2,#256]!
  40decc:	ad8804c0 	stp	q0, q1, [x6,#256]!
  40ded0:	aa1e03eb 	mov	x11, x30
  40ded4:	97ffedec 	bl	409684 <nop_>
  40ded8:	aa0b03fe 	mov	x30, x11
  40dedc:	ad8804c0 	stp	q0, q1, [x6,#256]!
  40dee0:	adc80440 	ldp	q0, q1, [x2,#256]!
  40dee4:	ad8804c0 	stp	q0, q1, [x6,#256]!
  40dee8:	ad8804c0 	stp	q0, q1, [x6,#256]!
  40deec:	adc80440 	ldp	q0, q1, [x2,#256]!
  40def0:	ad8804c0 	stp	q0, q1, [x6,#256]!
  40def4:	aa1e03eb 	mov	x11, x30
  40def8:	97ffede3 	bl	409684 <nop_>
  40defc:	aa0b03fe 	mov	x30, x11
  40df00:	adc80440 	ldp	q0, q1, [x2,#256]!
  40df04:	ad8804c0 	stp	q0, q1, [x6,#256]!
  40df08:	adc80440 	ldp	q0, q1, [x2,#256]!
  40df0c:	ad8804c0 	stp	q0, q1, [x6,#256]!
  40df10:	adc80440 	ldp	q0, q1, [x2,#256]!
  40df14:	ad8804c0 	stp	q0, q1, [x6,#256]!
  40df18:	aa1e03eb 	mov	x11, x30
  40df1c:	97ffedda 	bl	409684 <nop_>
  40df20:	aa0b03fe 	mov	x30, x11
  40df24:	ad8804c0 	stp	q0, q1, [x6,#256]!
  40df28:	adc80440 	ldp	q0, q1, [x2,#256]!
  40df2c:	ad8804c0 	stp	q0, q1, [x6,#256]!
  40df30:	adc80440 	ldp	q0, q1, [x2,#256]!
  40df34:	adc80440 	ldp	q0, q1, [x2,#256]!
  40df38:	ad8804c0 	stp	q0, q1, [x6,#256]!
  40df3c:	aa1e03eb 	mov	x11, x30
  40df40:	97ffedd1 	bl	409684 <nop_>
  40df44:	aa0b03fe 	mov	x30, x11
  40df48:	ad8804c0 	stp	q0, q1, [x6,#256]!
  40df4c:	ad8804c0 	stp	q0, q1, [x6,#256]!
  40df50:	adc80440 	ldp	q0, q1, [x2,#256]!
  40df54:	ad8804c0 	stp	q0, q1, [x6,#256]!
  40df58:	adc80440 	ldp	q0, q1, [x2,#256]!
  40df5c:	ad8804c0 	stp	q0, q1, [x6,#256]!
  40df60:	aa1e03eb 	mov	x11, x30
  40df64:	97ffedc8 	bl	409684 <nop_>
  40df68:	aa0b03fe 	mov	x30, x11
  40df6c:	adc80440 	ldp	q0, q1, [x2,#256]!
  40df70:	ad8804c0 	stp	q0, q1, [x6,#256]!
  40df74:	adc80440 	ldp	q0, q1, [x2,#256]!
  40df78:	ad8804c0 	stp	q0, q1, [x6,#256]!
  40df7c:	ad8804c0 	stp	q0, q1, [x6,#256]!
  40df80:	adc80440 	ldp	q0, q1, [x2,#256]!
  40df84:	aa1e03eb 	mov	x11, x30
  40df88:	97ffedbf 	bl	409684 <nop_>
  40df8c:	aa0b03fe 	mov	x30, x11
  40df90:	adc80440 	ldp	q0, q1, [x2,#256]!
  40df94:	ad8804c0 	stp	q0, q1, [x6,#256]!
  40df98:	adc80440 	ldp	q0, q1, [x2,#256]!
  40df9c:	ad8804c0 	stp	q0, q1, [x6,#256]!
  40dfa0:	adc80440 	ldp	q0, q1, [x2,#256]!
  40dfa4:	ad8804c0 	stp	q0, q1, [x6,#256]!
  40dfa8:	aa1e03eb 	mov	x11, x30
  40dfac:	97ffedb6 	bl	409684 <nop_>
  40dfb0:	aa0b03fe 	mov	x30, x11
  40dfb4:	ad8804c0 	stp	q0, q1, [x6,#256]!
  40dfb8:	adc80440 	ldp	q0, q1, [x2,#256]!
  40dfbc:	ad8804c0 	stp	q0, q1, [x6,#256]!
  40dfc0:	adc80440 	ldp	q0, q1, [x2,#256]!
  40dfc4:	ad8804c0 	stp	q0, q1, [x6,#256]!
  40dfc8:	ad8804c0 	stp	q0, q1, [x6,#256]!
  40dfcc:	aa1e03eb 	mov	x11, x30
  40dfd0:	97ffedad 	bl	409684 <nop_>
  40dfd4:	aa0b03fe 	mov	x30, x11
  40dfd8:	ad8804c0 	stp	q0, q1, [x6,#256]!
  40dfdc:	adc80440 	ldp	q0, q1, [x2,#256]!
  40dfe0:	adc80440 	ldp	q0, q1, [x2,#256]!
  40dfe4:	ad8804c0 	stp	q0, q1, [x6,#256]!
  40dfe8:	adc80440 	ldp	q0, q1, [x2,#256]!
  40dfec:	ad8804c0 	stp	q0, q1, [x6,#256]!
  40dff0:	aa1e03eb 	mov	x11, x30
  40dff4:	97ffeda4 	bl	409684 <nop_>
  40dff8:	aa0b03fe 	mov	x30, x11
  40dffc:	ad8804c0 	stp	q0, q1, [x6,#256]!
  40e000:	adc80440 	ldp	q0, q1, [x2,#256]!
  40e004:	ad8804c0 	stp	q0, q1, [x6,#256]!
  40e008:	adc80440 	ldp	q0, q1, [x2,#256]!
  40e00c:	adc80440 	ldp	q0, q1, [x2,#256]!
  40e010:	ad8804c0 	stp	q0, q1, [x6,#256]!
  40e014:	aa1e03eb 	mov	x11, x30
  40e018:	97ffed9b 	bl	409684 <nop_>
  40e01c:	aa0b03fe 	mov	x30, x11
  40e020:	ad8804c0 	stp	q0, q1, [x6,#256]!
  40e024:	adc80440 	ldp	q0, q1, [x2,#256]!
  40e028:	ad8804c0 	stp	q0, q1, [x6,#256]!
  40e02c:	ad8804c0 	stp	q0, q1, [x6,#256]!
  40e030:	adc80440 	ldp	q0, q1, [x2,#256]!
  40e034:	ad8804c0 	stp	q0, q1, [x6,#256]!
  40e038:	aa1e03eb 	mov	x11, x30
  40e03c:	97ffed92 	bl	409684 <nop_>
  40e040:	aa0b03fe 	mov	x30, x11
  40e044:	ad8804c0 	stp	q0, q1, [x6,#256]!
  40e048:	adc80440 	ldp	q0, q1, [x2,#256]!
  40e04c:	ad8804c0 	stp	q0, q1, [x6,#256]!
  40e050:	ad8804c0 	stp	q0, q1, [x6,#256]!
  40e054:	adc80440 	ldp	q0, q1, [x2,#256]!
  40e058:	ad8804c0 	stp	q0, q1, [x6,#256]!
  40e05c:	aa1e03eb 	mov	x11, x30
  40e060:	97ffed89 	bl	409684 <nop_>
  40e064:	aa0b03fe 	mov	x30, x11
  40e068:	adc80440 	ldp	q0, q1, [x2,#256]!
  40e06c:	ad8804c0 	stp	q0, q1, [x6,#256]!
  40e070:	adc80440 	ldp	q0, q1, [x2,#256]!
  40e074:	ad8804c0 	stp	q0, q1, [x6,#256]!
  40e078:	adc80440 	ldp	q0, q1, [x2,#256]!
  40e07c:	ad8804c0 	stp	q0, q1, [x6,#256]!
  40e080:	aa1e03eb 	mov	x11, x30
  40e084:	97ffed80 	bl	409684 <nop_>
  40e088:	aa0b03fe 	mov	x30, x11
  40e08c:	ad8804c0 	stp	q0, q1, [x6,#256]!
  40e090:	adc80440 	ldp	q0, q1, [x2,#256]!
  40e094:	adc80440 	ldp	q0, q1, [x2,#256]!
  40e098:	ad8804c0 	stp	q0, q1, [x6,#256]!
  40e09c:	aa1e03eb 	mov	x11, x30
  40e0a0:	97ffed79 	bl	409684 <nop_>
  40e0a4:	aa0b03fe 	mov	x30, x11
  40e0a8:	91320021 	add	x1, x1, #0xc80
  40e0ac:	eb03003f 	cmp	x1, x3
  40e0b0:	5402d7cd 	b.le	413ba8 <_Z15STREAM_copy_100PdS_PlPKi+0xe0>
  40e0b4:	d503201f 	nop
  40e0b8:	a8c37bfd 	ldp	x29, x30, [sp],#48
  40e0bc:	d65f03c0 	ret

000000000040e0c0 <_Z14STREAM_copy_46PdS_PlPKi>:
  40e0c0:	a9bd7bfd 	stp	x29, x30, [sp,#-48]!
  40e0c4:	910003fd 	mov	x29, sp
  40e0c8:	f90017e0 	str	x0, [sp,#40]
  40e0cc:	f90013e1 	str	x1, [sp,#32]
  40e0d0:	f9000fe2 	str	x2, [sp,#24]
  40e0d4:	f9000be3 	str	x3, [sp,#16]
  40e0d8:	d2800000 	mov	x0, #0x0                   	// #0
  40e0dc:	f0000040 	adrp	x0, 419000 <_IO_stdin_used+0x8>
  40e0e0:	91008001 	add	x1, x0, #0x20
  40e0e4:	90000100 	adrp	x0, 42e000 <_Znam@GLIBCXX_3.4>
  40e0e8:	91286000 	add	x0, x0, #0xa18
  40e0ec:	97ffeb81 	bl	408ef0 <_ZStlsISt11char_traitsIcEERSt13basic_ostreamIcT_ES5_PKc@plt>
  40e0f0:	aa0003e2 	mov	x2, x0
  40e0f4:	f9400be0 	ldr	x0, [sp,#16]
  40e0f8:	b9400000 	ldr	w0, [x0]
  40e0fc:	2a0003e1 	mov	w1, w0
  40e100:	aa0203e0 	mov	x0, x2
  40e104:	97ffecaf 	bl	4093c0 <_ZNSolsEi@plt>
  40e108:	aa0003e2 	mov	x2, x0
  40e10c:	f0000040 	adrp	x0, 419000 <_IO_stdin_used+0x8>
  40e110:	9100c001 	add	x1, x0, #0x30
  40e114:	aa0203e0 	mov	x0, x2
  40e118:	97ffeb76 	bl	408ef0 <_ZStlsISt11char_traitsIcEERSt13basic_ostreamIcT_ES5_PKc@plt>
  40e11c:	f94017e1 	ldr	x1, [sp,#40]
  40e120:	97ffeb18 	bl	408d80 <_ZNSolsEPKv@plt>
  40e124:	aa0003e2 	mov	x2, x0
  40e128:	f0000040 	adrp	x0, 419000 <_IO_stdin_used+0x8>
  40e12c:	91010001 	add	x1, x0, #0x40
  40e130:	aa0203e0 	mov	x0, x2
  40e134:	97ffeb6f 	bl	408ef0 <_ZStlsISt11char_traitsIcEERSt13basic_ostreamIcT_ES5_PKc@plt>
  40e138:	f94013e1 	ldr	x1, [sp,#32]
  40e13c:	97ffeb11 	bl	408d80 <_ZNSolsEPKv@plt>
  40e140:	aa0003e2 	mov	x2, x0
  40e144:	f0000040 	adrp	x0, 419000 <_IO_stdin_used+0x8>
  40e148:	91014001 	add	x1, x0, #0x50
  40e14c:	aa0203e0 	mov	x0, x2
  40e150:	97ffeb68 	bl	408ef0 <_ZStlsISt11char_traitsIcEERSt13basic_ostreamIcT_ES5_PKc@plt>
  40e154:	aa0003e2 	mov	x2, x0
  40e158:	f9400fe0 	ldr	x0, [sp,#24]
  40e15c:	f9400000 	ldr	x0, [x0]
  40e160:	aa0003e1 	mov	x1, x0
  40e164:	aa0203e0 	mov	x0, x2
  40e168:	97ffecb6 	bl	409440 <_ZNSolsEl@plt>
  40e16c:	aa0003e2 	mov	x2, x0
  40e170:	d0ffffc0 	adrp	x0, 408000 <_init-0x970>
  40e174:	912ec001 	add	x1, x0, #0xbb0
  40e178:	aa0203e0 	mov	x0, x2
  40e17c:	97ffeb71 	bl	408f40 <_ZNSolsEPFRSoS_E@plt>
  40e180:	f9400fe1 	ldr	x1, [sp,#24]
  40e184:	f9400023 	ldr	x3, [x1]
  40e188:	f9400be1 	ldr	x1, [sp,#16]
  40e18c:	b9400025 	ldr	w5, [x1]
  40e190:	f94017e2 	ldr	x2, [sp,#40]
  40e194:	f94013e6 	ldr	x6, [sp,#32]
  40e198:	d2800001 	mov	x1, #0x0                   	// #0
  40e19c:	aa0503e4 	mov	x4, x5
  40e1a0:	ad8804c0 	stp	q0, q1, [x6,#256]!
  40e1a4:	ad8804c0 	stp	q0, q1, [x6,#256]!
  40e1a8:	adc80440 	ldp	q0, q1, [x2,#256]!
  40e1ac:	ad8804c0 	stp	q0, q1, [x6,#256]!
  40e1b0:	adc80440 	ldp	q0, q1, [x2,#256]!
  40e1b4:	ad8804c0 	stp	q0, q1, [x6,#256]!
  40e1b8:	aa1e03eb 	mov	x11, x30
  40e1bc:	97ffed32 	bl	409684 <nop_>
  40e1c0:	aa0b03fe 	mov	x30, x11
  40e1c4:	ad8804c0 	stp	q0, q1, [x6,#256]!
  40e1c8:	adc80440 	ldp	q0, q1, [x2,#256]!
  40e1cc:	ad8804c0 	stp	q0, q1, [x6,#256]!
  40e1d0:	adc80440 	ldp	q0, q1, [x2,#256]!
  40e1d4:	ad8804c0 	stp	q0, q1, [x6,#256]!
  40e1d8:	adc80440 	ldp	q0, q1, [x2,#256]!
  40e1dc:	aa1e03eb 	mov	x11, x30
  40e1e0:	97ffed29 	bl	409684 <nop_>
  40e1e4:	aa0b03fe 	mov	x30, x11
  40e1e8:	adc80440 	ldp	q0, q1, [x2,#256]!
  40e1ec:	ad8804c0 	stp	q0, q1, [x6,#256]!
  40e1f0:	adc80440 	ldp	q0, q1, [x2,#256]!
  40e1f4:	ad8804c0 	stp	q0, q1, [x6,#256]!
  40e1f8:	adc80440 	ldp	q0, q1, [x2,#256]!
  40e1fc:	ad8804c0 	stp	q0, q1, [x6,#256]!
  40e200:	aa1e03eb 	mov	x11, x30
  40e204:	97ffed20 	bl	409684 <nop_>
  40e208:	aa0b03fe 	mov	x30, x11
  40e20c:	ad8804c0 	stp	q0, q1, [x6,#256]!
  40e210:	adc80440 	ldp	q0, q1, [x2,#256]!
  40e214:	adc80440 	ldp	q0, q1, [x2,#256]!
  40e218:	ad8804c0 	stp	q0, q1, [x6,#256]!
  40e21c:	adc80440 	ldp	q0, q1, [x2,#256]!
  40e220:	ad8804c0 	stp	q0, q1, [x6,#256]!
  40e224:	aa1e03eb 	mov	x11, x30
  40e228:	97ffed17 	bl	409684 <nop_>
  40e22c:	aa0b03fe 	mov	x30, x11
  40e230:	ad8804c0 	stp	q0, q1, [x6,#256]!
  40e234:	adc80440 	ldp	q0, q1, [x2,#256]!
  40e238:	ad8804c0 	stp	q0, q1, [x6,#256]!
  40e23c:	ad8804c0 	stp	q0, q1, [x6,#256]!
  40e240:	adc80440 	ldp	q0, q1, [x2,#256]!
  40e244:	ad8804c0 	stp	q0, q1, [x6,#256]!
  40e248:	aa1e03eb 	mov	x11, x30
  40e24c:	97ffed0e 	bl	409684 <nop_>
  40e250:	aa0b03fe 	mov	x30, x11
  40e254:	adc80440 	ldp	q0, q1, [x2,#256]!
  40e258:	ad8804c0 	stp	q0, q1, [x6,#256]!
  40e25c:	adc80440 	ldp	q0, q1, [x2,#256]!
  40e260:	ad8804c0 	stp	q0, q1, [x6,#256]!
  40e264:	adc80440 	ldp	q0, q1, [x2,#256]!
  40e268:	ad8804c0 	stp	q0, q1, [x6,#256]!
  40e26c:	aa1e03eb 	mov	x11, x30
  40e270:	97ffed05 	bl	409684 <nop_>
  40e274:	aa0b03fe 	mov	x30, x11
  40e278:	ad8804c0 	stp	q0, q1, [x6,#256]!
  40e27c:	adc80440 	ldp	q0, q1, [x2,#256]!
  40e280:	ad8804c0 	stp	q0, q1, [x6,#256]!
  40e284:	adc80440 	ldp	q0, q1, [x2,#256]!
  40e288:	adc80440 	ldp	q0, q1, [x2,#256]!
  40e28c:	ad8804c0 	stp	q0, q1, [x6,#256]!
  40e290:	aa1e03eb 	mov	x11, x30
  40e294:	97ffecfc 	bl	409684 <nop_>
  40e298:	aa0b03fe 	mov	x30, x11
  40e29c:	adc80440 	ldp	q0, q1, [x2,#256]!
  40e2a0:	ad8804c0 	stp	q0, q1, [x6,#256]!
  40e2a4:	adc80440 	ldp	q0, q1, [x2,#256]!
  40e2a8:	ad8804c0 	stp	q0, q1, [x6,#256]!
  40e2ac:	adc80440 	ldp	q0, q1, [x2,#256]!
  40e2b0:	ad8804c0 	stp	q0, q1, [x6,#256]!
  40e2b4:	aa1e03eb 	mov	x11, x30
  40e2b8:	97ffecf3 	bl	409684 <nop_>
  40e2bc:	aa0b03fe 	mov	x30, x11
  40e2c0:	adc80440 	ldp	q0, q1, [x2,#256]!
  40e2c4:	ad8804c0 	stp	q0, q1, [x6,#256]!
  40e2c8:	adc80440 	ldp	q0, q1, [x2,#256]!
  40e2cc:	ad8804c0 	stp	q0, q1, [x6,#256]!
  40e2d0:	ad8804c0 	stp	q0, q1, [x6,#256]!
  40e2d4:	adc80440 	ldp	q0, q1, [x2,#256]!
  40e2d8:	aa1e03eb 	mov	x11, x30
  40e2dc:	97ffecea 	bl	409684 <nop_>
  40e2e0:	aa0b03fe 	mov	x30, x11
  40e2e4:	adc80440 	ldp	q0, q1, [x2,#256]!
  40e2e8:	ad8804c0 	stp	q0, q1, [x6,#256]!
  40e2ec:	adc80440 	ldp	q0, q1, [x2,#256]!
  40e2f0:	ad8804c0 	stp	q0, q1, [x6,#256]!
  40e2f4:	adc80440 	ldp	q0, q1, [x2,#256]!
  40e2f8:	ad8804c0 	stp	q0, q1, [x6,#256]!
  40e2fc:	aa1e03eb 	mov	x11, x30
  40e300:	97ffece1 	bl	409684 <nop_>
  40e304:	aa0b03fe 	mov	x30, x11
  40e308:	ad8804c0 	stp	q0, q1, [x6,#256]!
  40e30c:	adc80440 	ldp	q0, q1, [x2,#256]!
  40e310:	ad8804c0 	stp	q0, q1, [x6,#256]!
  40e314:	adc80440 	ldp	q0, q1, [x2,#256]!
  40e318:	ad8804c0 	stp	q0, q1, [x6,#256]!
  40e31c:	ad8804c0 	stp	q0, q1, [x6,#256]!
  40e320:	aa1e03eb 	mov	x11, x30
  40e324:	97ffecd8 	bl	409684 <nop_>
  40e328:	aa0b03fe 	mov	x30, x11
  40e32c:	ad8804c0 	stp	q0, q1, [x6,#256]!
  40e330:	adc80440 	ldp	q0, q1, [x2,#256]!
  40e334:	adc80440 	ldp	q0, q1, [x2,#256]!
  40e338:	ad8804c0 	stp	q0, q1, [x6,#256]!
  40e33c:	adc80440 	ldp	q0, q1, [x2,#256]!
  40e340:	ad8804c0 	stp	q0, q1, [x6,#256]!
  40e344:	aa1e03eb 	mov	x11, x30
  40e348:	97ffeccf 	bl	409684 <nop_>
  40e34c:	aa0b03fe 	mov	x30, x11
  40e350:	ad8804c0 	stp	q0, q1, [x6,#256]!
  40e354:	adc80440 	ldp	q0, q1, [x2,#256]!
  40e358:	ad8804c0 	stp	q0, q1, [x6,#256]!
  40e35c:	adc80440 	ldp	q0, q1, [x2,#256]!
  40e360:	adc80440 	ldp	q0, q1, [x2,#256]!
  40e364:	ad8804c0 	stp	q0, q1, [x6,#256]!
  40e368:	aa1e03eb 	mov	x11, x30
  40e36c:	97ffecc6 	bl	409684 <nop_>
  40e370:	aa0b03fe 	mov	x30, x11
  40e374:	ad8804c0 	stp	q0, q1, [x6,#256]!
  40e378:	adc80440 	ldp	q0, q1, [x2,#256]!
  40e37c:	adc80440 	ldp	q0, q1, [x2,#256]!
  40e380:	ad8804c0 	stp	q0, q1, [x6,#256]!
  40e384:	adc80440 	ldp	q0, q1, [x2,#256]!
  40e388:	ad8804c0 	stp	q0, q1, [x6,#256]!
  40e38c:	aa1e03eb 	mov	x11, x30
  40e390:	97ffecbd 	bl	409684 <nop_>
  40e394:	aa0b03fe 	mov	x30, x11
  40e398:	ad8804c0 	stp	q0, q1, [x6,#256]!
  40e39c:	adc80440 	ldp	q0, q1, [x2,#256]!
  40e3a0:	ad8804c0 	stp	q0, q1, [x6,#256]!
  40e3a4:	ad8804c0 	stp	q0, q1, [x6,#256]!
  40e3a8:	adc80440 	ldp	q0, q1, [x2,#256]!
  40e3ac:	ad8804c0 	stp	q0, q1, [x6,#256]!
  40e3b0:	aa1e03eb 	mov	x11, x30
  40e3b4:	97ffecb4 	bl	409684 <nop_>
  40e3b8:	aa0b03fe 	mov	x30, x11
  40e3bc:	adc80440 	ldp	q0, q1, [x2,#256]!
  40e3c0:	ad8804c0 	stp	q0, q1, [x6,#256]!
  40e3c4:	adc80440 	ldp	q0, q1, [x2,#256]!
  40e3c8:	ad8804c0 	stp	q0, q1, [x6,#256]!
  40e3cc:	adc80440 	ldp	q0, q1, [x2,#256]!
  40e3d0:	ad8804c0 	stp	q0, q1, [x6,#256]!
  40e3d4:	aa1e03eb 	mov	x11, x30
  40e3d8:	97ffecab 	bl	409684 <nop_>
  40e3dc:	aa0b03fe 	mov	x30, x11
  40e3e0:	ad8804c0 	stp	q0, q1, [x6,#256]!
  40e3e4:	adc80440 	ldp	q0, q1, [x2,#256]!
  40e3e8:	adc80440 	ldp	q0, q1, [x2,#256]!
  40e3ec:	ad8804c0 	stp	q0, q1, [x6,#256]!
  40e3f0:	aa1e03eb 	mov	x11, x30
  40e3f4:	97ffeca4 	bl	409684 <nop_>
  40e3f8:	aa0b03fe 	mov	x30, x11
  40e3fc:	91320021 	add	x1, x1, #0xc80
  40e400:	eb03003f 	cmp	x1, x3
  40e404:	5402bd2d 	b.le	413ba8 <_Z15STREAM_copy_100PdS_PlPKi+0xe0>
  40e408:	d503201f 	nop
  40e40c:	a8c37bfd 	ldp	x29, x30, [sp],#48
  40e410:	d65f03c0 	ret

000000000040e414 <_Z14STREAM_copy_48PdS_PlPKi>:
  40e414:	a9bd7bfd 	stp	x29, x30, [sp,#-48]!
  40e418:	910003fd 	mov	x29, sp
  40e41c:	f90017e0 	str	x0, [sp,#40]
  40e420:	f90013e1 	str	x1, [sp,#32]
  40e424:	f9000fe2 	str	x2, [sp,#24]
  40e428:	f9000be3 	str	x3, [sp,#16]
  40e42c:	d2800000 	mov	x0, #0x0                   	// #0
  40e430:	f0000040 	adrp	x0, 419000 <_IO_stdin_used+0x8>
  40e434:	91008001 	add	x1, x0, #0x20
  40e438:	90000100 	adrp	x0, 42e000 <_Znam@GLIBCXX_3.4>
  40e43c:	91286000 	add	x0, x0, #0xa18
  40e440:	97ffeaac 	bl	408ef0 <_ZStlsISt11char_traitsIcEERSt13basic_ostreamIcT_ES5_PKc@plt>
  40e444:	aa0003e2 	mov	x2, x0
  40e448:	f9400be0 	ldr	x0, [sp,#16]
  40e44c:	b9400000 	ldr	w0, [x0]
  40e450:	2a0003e1 	mov	w1, w0
  40e454:	aa0203e0 	mov	x0, x2
  40e458:	97ffebda 	bl	4093c0 <_ZNSolsEi@plt>
  40e45c:	aa0003e2 	mov	x2, x0
  40e460:	f0000040 	adrp	x0, 419000 <_IO_stdin_used+0x8>
  40e464:	9100c001 	add	x1, x0, #0x30
  40e468:	aa0203e0 	mov	x0, x2
  40e46c:	97ffeaa1 	bl	408ef0 <_ZStlsISt11char_traitsIcEERSt13basic_ostreamIcT_ES5_PKc@plt>
  40e470:	f94017e1 	ldr	x1, [sp,#40]
  40e474:	97ffea43 	bl	408d80 <_ZNSolsEPKv@plt>
  40e478:	aa0003e2 	mov	x2, x0
  40e47c:	f0000040 	adrp	x0, 419000 <_IO_stdin_used+0x8>
  40e480:	91010001 	add	x1, x0, #0x40
  40e484:	aa0203e0 	mov	x0, x2
  40e488:	97ffea9a 	bl	408ef0 <_ZStlsISt11char_traitsIcEERSt13basic_ostreamIcT_ES5_PKc@plt>
  40e48c:	f94013e1 	ldr	x1, [sp,#32]
  40e490:	97ffea3c 	bl	408d80 <_ZNSolsEPKv@plt>
  40e494:	aa0003e2 	mov	x2, x0
  40e498:	f0000040 	adrp	x0, 419000 <_IO_stdin_used+0x8>
  40e49c:	91014001 	add	x1, x0, #0x50
  40e4a0:	aa0203e0 	mov	x0, x2
  40e4a4:	97ffea93 	bl	408ef0 <_ZStlsISt11char_traitsIcEERSt13basic_ostreamIcT_ES5_PKc@plt>
  40e4a8:	aa0003e2 	mov	x2, x0
  40e4ac:	f9400fe0 	ldr	x0, [sp,#24]
  40e4b0:	f9400000 	ldr	x0, [x0]
  40e4b4:	aa0003e1 	mov	x1, x0
  40e4b8:	aa0203e0 	mov	x0, x2
  40e4bc:	97ffebe1 	bl	409440 <_ZNSolsEl@plt>
  40e4c0:	aa0003e2 	mov	x2, x0
  40e4c4:	d0ffffc0 	adrp	x0, 408000 <_init-0x970>
  40e4c8:	912ec001 	add	x1, x0, #0xbb0
  40e4cc:	aa0203e0 	mov	x0, x2
  40e4d0:	97ffea9c 	bl	408f40 <_ZNSolsEPFRSoS_E@plt>
  40e4d4:	f9400fe1 	ldr	x1, [sp,#24]
  40e4d8:	f9400023 	ldr	x3, [x1]
  40e4dc:	f9400be1 	ldr	x1, [sp,#16]
  40e4e0:	b9400025 	ldr	w5, [x1]
  40e4e4:	f94017e2 	ldr	x2, [sp,#40]
  40e4e8:	f94013e6 	ldr	x6, [sp,#32]
  40e4ec:	d2800001 	mov	x1, #0x0                   	// #0
  40e4f0:	aa0503e4 	mov	x4, x5
  40e4f4:	ad8804c0 	stp	q0, q1, [x6,#256]!
  40e4f8:	ad8804c0 	stp	q0, q1, [x6,#256]!
  40e4fc:	adc80440 	ldp	q0, q1, [x2,#256]!
  40e500:	ad8804c0 	stp	q0, q1, [x6,#256]!
  40e504:	adc80440 	ldp	q0, q1, [x2,#256]!
  40e508:	ad8804c0 	stp	q0, q1, [x6,#256]!
  40e50c:	aa1e03eb 	mov	x11, x30
  40e510:	97ffec5d 	bl	409684 <nop_>
  40e514:	aa0b03fe 	mov	x30, x11
  40e518:	ad8804c0 	stp	q0, q1, [x6,#256]!
  40e51c:	adc80440 	ldp	q0, q1, [x2,#256]!
  40e520:	ad8804c0 	stp	q0, q1, [x6,#256]!
  40e524:	adc80440 	ldp	q0, q1, [x2,#256]!
  40e528:	ad8804c0 	stp	q0, q1, [x6,#256]!
  40e52c:	adc80440 	ldp	q0, q1, [x2,#256]!
  40e530:	aa1e03eb 	mov	x11, x30
  40e534:	97ffec54 	bl	409684 <nop_>
  40e538:	aa0b03fe 	mov	x30, x11
  40e53c:	adc80440 	ldp	q0, q1, [x2,#256]!
  40e540:	ad8804c0 	stp	q0, q1, [x6,#256]!
  40e544:	adc80440 	ldp	q0, q1, [x2,#256]!
  40e548:	ad8804c0 	stp	q0, q1, [x6,#256]!
  40e54c:	adc80440 	ldp	q0, q1, [x2,#256]!
  40e550:	ad8804c0 	stp	q0, q1, [x6,#256]!
  40e554:	aa1e03eb 	mov	x11, x30
  40e558:	97ffec4b 	bl	409684 <nop_>
  40e55c:	aa0b03fe 	mov	x30, x11
  40e560:	ad8804c0 	stp	q0, q1, [x6,#256]!
  40e564:	adc80440 	ldp	q0, q1, [x2,#256]!
  40e568:	adc80440 	ldp	q0, q1, [x2,#256]!
  40e56c:	ad8804c0 	stp	q0, q1, [x6,#256]!
  40e570:	adc80440 	ldp	q0, q1, [x2,#256]!
  40e574:	ad8804c0 	stp	q0, q1, [x6,#256]!
  40e578:	aa1e03eb 	mov	x11, x30
  40e57c:	97ffec42 	bl	409684 <nop_>
  40e580:	aa0b03fe 	mov	x30, x11
  40e584:	ad8804c0 	stp	q0, q1, [x6,#256]!
  40e588:	adc80440 	ldp	q0, q1, [x2,#256]!
  40e58c:	adc80440 	ldp	q0, q1, [x2,#256]!
  40e590:	ad8804c0 	stp	q0, q1, [x6,#256]!
  40e594:	adc80440 	ldp	q0, q1, [x2,#256]!
  40e598:	ad8804c0 	stp	q0, q1, [x6,#256]!
  40e59c:	aa1e03eb 	mov	x11, x30
  40e5a0:	97ffec39 	bl	409684 <nop_>
  40e5a4:	aa0b03fe 	mov	x30, x11
  40e5a8:	adc80440 	ldp	q0, q1, [x2,#256]!
  40e5ac:	ad8804c0 	stp	q0, q1, [x6,#256]!
  40e5b0:	adc80440 	ldp	q0, q1, [x2,#256]!
  40e5b4:	ad8804c0 	stp	q0, q1, [x6,#256]!
  40e5b8:	adc80440 	ldp	q0, q1, [x2,#256]!
  40e5bc:	ad8804c0 	stp	q0, q1, [x6,#256]!
  40e5c0:	aa1e03eb 	mov	x11, x30
  40e5c4:	97ffec30 	bl	409684 <nop_>
  40e5c8:	aa0b03fe 	mov	x30, x11
  40e5cc:	ad8804c0 	stp	q0, q1, [x6,#256]!
  40e5d0:	adc80440 	ldp	q0, q1, [x2,#256]!
  40e5d4:	ad8804c0 	stp	q0, q1, [x6,#256]!
  40e5d8:	adc80440 	ldp	q0, q1, [x2,#256]!
  40e5dc:	adc80440 	ldp	q0, q1, [x2,#256]!
  40e5e0:	ad8804c0 	stp	q0, q1, [x6,#256]!
  40e5e4:	aa1e03eb 	mov	x11, x30
  40e5e8:	97ffec27 	bl	409684 <nop_>
  40e5ec:	aa0b03fe 	mov	x30, x11
  40e5f0:	adc80440 	ldp	q0, q1, [x2,#256]!
  40e5f4:	ad8804c0 	stp	q0, q1, [x6,#256]!
  40e5f8:	adc80440 	ldp	q0, q1, [x2,#256]!
  40e5fc:	ad8804c0 	stp	q0, q1, [x6,#256]!
  40e600:	adc80440 	ldp	q0, q1, [x2,#256]!
  40e604:	ad8804c0 	stp	q0, q1, [x6,#256]!
  40e608:	aa1e03eb 	mov	x11, x30
  40e60c:	97ffec1e 	bl	409684 <nop_>
  40e610:	aa0b03fe 	mov	x30, x11
  40e614:	adc80440 	ldp	q0, q1, [x2,#256]!
  40e618:	ad8804c0 	stp	q0, q1, [x6,#256]!
  40e61c:	adc80440 	ldp	q0, q1, [x2,#256]!
  40e620:	ad8804c0 	stp	q0, q1, [x6,#256]!
  40e624:	ad8804c0 	stp	q0, q1, [x6,#256]!
  40e628:	adc80440 	ldp	q0, q1, [x2,#256]!
  40e62c:	aa1e03eb 	mov	x11, x30
  40e630:	97ffec15 	bl	409684 <nop_>
  40e634:	aa0b03fe 	mov	x30, x11
  40e638:	adc80440 	ldp	q0, q1, [x2,#256]!
  40e63c:	ad8804c0 	stp	q0, q1, [x6,#256]!
  40e640:	adc80440 	ldp	q0, q1, [x2,#256]!
  40e644:	ad8804c0 	stp	q0, q1, [x6,#256]!
  40e648:	adc80440 	ldp	q0, q1, [x2,#256]!
  40e64c:	ad8804c0 	stp	q0, q1, [x6,#256]!
  40e650:	aa1e03eb 	mov	x11, x30
  40e654:	97ffec0c 	bl	409684 <nop_>
  40e658:	aa0b03fe 	mov	x30, x11
  40e65c:	ad8804c0 	stp	q0, q1, [x6,#256]!
  40e660:	adc80440 	ldp	q0, q1, [x2,#256]!
  40e664:	ad8804c0 	stp	q0, q1, [x6,#256]!
  40e668:	adc80440 	ldp	q0, q1, [x2,#256]!
  40e66c:	adc80440 	ldp	q0, q1, [x2,#256]!
  40e670:	ad8804c0 	stp	q0, q1, [x6,#256]!
  40e674:	aa1e03eb 	mov	x11, x30
  40e678:	97ffec03 	bl	409684 <nop_>
  40e67c:	aa0b03fe 	mov	x30, x11
  40e680:	ad8804c0 	stp	q0, q1, [x6,#256]!
  40e684:	adc80440 	ldp	q0, q1, [x2,#256]!
  40e688:	adc80440 	ldp	q0, q1, [x2,#256]!
  40e68c:	ad8804c0 	stp	q0, q1, [x6,#256]!
  40e690:	adc80440 	ldp	q0, q1, [x2,#256]!
  40e694:	ad8804c0 	stp	q0, q1, [x6,#256]!
  40e698:	aa1e03eb 	mov	x11, x30
  40e69c:	97ffebfa 	bl	409684 <nop_>
  40e6a0:	aa0b03fe 	mov	x30, x11
  40e6a4:	ad8804c0 	stp	q0, q1, [x6,#256]!
  40e6a8:	adc80440 	ldp	q0, q1, [x2,#256]!
  40e6ac:	ad8804c0 	stp	q0, q1, [x6,#256]!
  40e6b0:	adc80440 	ldp	q0, q1, [x2,#256]!
  40e6b4:	adc80440 	ldp	q0, q1, [x2,#256]!
  40e6b8:	ad8804c0 	stp	q0, q1, [x6,#256]!
  40e6bc:	aa1e03eb 	mov	x11, x30
  40e6c0:	97ffebf1 	bl	409684 <nop_>
  40e6c4:	aa0b03fe 	mov	x30, x11
  40e6c8:	ad8804c0 	stp	q0, q1, [x6,#256]!
  40e6cc:	adc80440 	ldp	q0, q1, [x2,#256]!
  40e6d0:	adc80440 	ldp	q0, q1, [x2,#256]!
  40e6d4:	ad8804c0 	stp	q0, q1, [x6,#256]!
  40e6d8:	adc80440 	ldp	q0, q1, [x2,#256]!
  40e6dc:	ad8804c0 	stp	q0, q1, [x6,#256]!
  40e6e0:	aa1e03eb 	mov	x11, x30
  40e6e4:	97ffebe8 	bl	409684 <nop_>
  40e6e8:	aa0b03fe 	mov	x30, x11
  40e6ec:	ad8804c0 	stp	q0, q1, [x6,#256]!
  40e6f0:	adc80440 	ldp	q0, q1, [x2,#256]!
  40e6f4:	ad8804c0 	stp	q0, q1, [x6,#256]!
  40e6f8:	ad8804c0 	stp	q0, q1, [x6,#256]!
  40e6fc:	adc80440 	ldp	q0, q1, [x2,#256]!
  40e700:	ad8804c0 	stp	q0, q1, [x6,#256]!
  40e704:	aa1e03eb 	mov	x11, x30
  40e708:	97ffebdf 	bl	409684 <nop_>
  40e70c:	aa0b03fe 	mov	x30, x11
  40e710:	adc80440 	ldp	q0, q1, [x2,#256]!
  40e714:	ad8804c0 	stp	q0, q1, [x6,#256]!
  40e718:	adc80440 	ldp	q0, q1, [x2,#256]!
  40e71c:	ad8804c0 	stp	q0, q1, [x6,#256]!
  40e720:	adc80440 	ldp	q0, q1, [x2,#256]!
  40e724:	ad8804c0 	stp	q0, q1, [x6,#256]!
  40e728:	aa1e03eb 	mov	x11, x30
  40e72c:	97ffebd6 	bl	409684 <nop_>
  40e730:	aa0b03fe 	mov	x30, x11
  40e734:	ad8804c0 	stp	q0, q1, [x6,#256]!
  40e738:	adc80440 	ldp	q0, q1, [x2,#256]!
  40e73c:	adc80440 	ldp	q0, q1, [x2,#256]!
  40e740:	ad8804c0 	stp	q0, q1, [x6,#256]!
  40e744:	aa1e03eb 	mov	x11, x30
  40e748:	97ffebcf 	bl	409684 <nop_>
  40e74c:	aa0b03fe 	mov	x30, x11
  40e750:	91320021 	add	x1, x1, #0xc80
  40e754:	eb03003f 	cmp	x1, x3
  40e758:	5402a28d 	b.le	413ba8 <_Z15STREAM_copy_100PdS_PlPKi+0xe0>
  40e75c:	d503201f 	nop
  40e760:	a8c37bfd 	ldp	x29, x30, [sp],#48
  40e764:	d65f03c0 	ret

000000000040e768 <_Z14STREAM_copy_50PdS_PlPKi>:
  40e768:	a9bd7bfd 	stp	x29, x30, [sp,#-48]!
  40e76c:	910003fd 	mov	x29, sp
  40e770:	f90017e0 	str	x0, [sp,#40]
  40e774:	f90013e1 	str	x1, [sp,#32]
  40e778:	f9000fe2 	str	x2, [sp,#24]
  40e77c:	f9000be3 	str	x3, [sp,#16]
  40e780:	d2800000 	mov	x0, #0x0                   	// #0
  40e784:	f0000040 	adrp	x0, 419000 <_IO_stdin_used+0x8>
  40e788:	91008001 	add	x1, x0, #0x20
  40e78c:	90000100 	adrp	x0, 42e000 <_Znam@GLIBCXX_3.4>
  40e790:	91286000 	add	x0, x0, #0xa18
  40e794:	97ffe9d7 	bl	408ef0 <_ZStlsISt11char_traitsIcEERSt13basic_ostreamIcT_ES5_PKc@plt>
  40e798:	aa0003e2 	mov	x2, x0
  40e79c:	f9400be0 	ldr	x0, [sp,#16]
  40e7a0:	b9400000 	ldr	w0, [x0]
  40e7a4:	2a0003e1 	mov	w1, w0
  40e7a8:	aa0203e0 	mov	x0, x2
  40e7ac:	97ffeb05 	bl	4093c0 <_ZNSolsEi@plt>
  40e7b0:	aa0003e2 	mov	x2, x0
  40e7b4:	f0000040 	adrp	x0, 419000 <_IO_stdin_used+0x8>
  40e7b8:	9100c001 	add	x1, x0, #0x30
  40e7bc:	aa0203e0 	mov	x0, x2
  40e7c0:	97ffe9cc 	bl	408ef0 <_ZStlsISt11char_traitsIcEERSt13basic_ostreamIcT_ES5_PKc@plt>
  40e7c4:	f94017e1 	ldr	x1, [sp,#40]
  40e7c8:	97ffe96e 	bl	408d80 <_ZNSolsEPKv@plt>
  40e7cc:	aa0003e2 	mov	x2, x0
  40e7d0:	f0000040 	adrp	x0, 419000 <_IO_stdin_used+0x8>
  40e7d4:	91010001 	add	x1, x0, #0x40
  40e7d8:	aa0203e0 	mov	x0, x2
  40e7dc:	97ffe9c5 	bl	408ef0 <_ZStlsISt11char_traitsIcEERSt13basic_ostreamIcT_ES5_PKc@plt>
  40e7e0:	f94013e1 	ldr	x1, [sp,#32]
  40e7e4:	97ffe967 	bl	408d80 <_ZNSolsEPKv@plt>
  40e7e8:	aa0003e2 	mov	x2, x0
  40e7ec:	f0000040 	adrp	x0, 419000 <_IO_stdin_used+0x8>
  40e7f0:	91014001 	add	x1, x0, #0x50
  40e7f4:	aa0203e0 	mov	x0, x2
  40e7f8:	97ffe9be 	bl	408ef0 <_ZStlsISt11char_traitsIcEERSt13basic_ostreamIcT_ES5_PKc@plt>
  40e7fc:	aa0003e2 	mov	x2, x0
  40e800:	f9400fe0 	ldr	x0, [sp,#24]
  40e804:	f9400000 	ldr	x0, [x0]
  40e808:	aa0003e1 	mov	x1, x0
  40e80c:	aa0203e0 	mov	x0, x2
  40e810:	97ffeb0c 	bl	409440 <_ZNSolsEl@plt>
  40e814:	aa0003e2 	mov	x2, x0
  40e818:	d0ffffc0 	adrp	x0, 408000 <_init-0x970>
  40e81c:	912ec001 	add	x1, x0, #0xbb0
  40e820:	aa0203e0 	mov	x0, x2
  40e824:	97ffe9c7 	bl	408f40 <_ZNSolsEPFRSoS_E@plt>
  40e828:	f9400fe1 	ldr	x1, [sp,#24]
  40e82c:	f9400023 	ldr	x3, [x1]
  40e830:	f9400be1 	ldr	x1, [sp,#16]
  40e834:	b9400025 	ldr	w5, [x1]
  40e838:	f94017e2 	ldr	x2, [sp,#40]
  40e83c:	f94013e6 	ldr	x6, [sp,#32]
  40e840:	d2800001 	mov	x1, #0x0                   	// #0
  40e844:	aa0503e4 	mov	x4, x5
  40e848:	adc80440 	ldp	q0, q1, [x2,#256]!
  40e84c:	ad8804c0 	stp	q0, q1, [x6,#256]!
  40e850:	adc80440 	ldp	q0, q1, [x2,#256]!
  40e854:	ad8804c0 	stp	q0, q1, [x6,#256]!
  40e858:	adc80440 	ldp	q0, q1, [x2,#256]!
  40e85c:	ad8804c0 	stp	q0, q1, [x6,#256]!
  40e860:	aa1e03eb 	mov	x11, x30
  40e864:	97ffeb88 	bl	409684 <nop_>
  40e868:	aa0b03fe 	mov	x30, x11
  40e86c:	ad8804c0 	stp	q0, q1, [x6,#256]!
  40e870:	adc80440 	ldp	q0, q1, [x2,#256]!
  40e874:	ad8804c0 	stp	q0, q1, [x6,#256]!
  40e878:	adc80440 	ldp	q0, q1, [x2,#256]!
  40e87c:	ad8804c0 	stp	q0, q1, [x6,#256]!
  40e880:	adc80440 	ldp	q0, q1, [x2,#256]!
  40e884:	aa1e03eb 	mov	x11, x30
  40e888:	97ffeb7f 	bl	409684 <nop_>
  40e88c:	aa0b03fe 	mov	x30, x11
  40e890:	adc80440 	ldp	q0, q1, [x2,#256]!
  40e894:	ad8804c0 	stp	q0, q1, [x6,#256]!
  40e898:	adc80440 	ldp	q0, q1, [x2,#256]!
  40e89c:	ad8804c0 	stp	q0, q1, [x6,#256]!
  40e8a0:	adc80440 	ldp	q0, q1, [x2,#256]!
  40e8a4:	ad8804c0 	stp	q0, q1, [x6,#256]!
  40e8a8:	aa1e03eb 	mov	x11, x30
  40e8ac:	97ffeb76 	bl	409684 <nop_>
  40e8b0:	aa0b03fe 	mov	x30, x11
  40e8b4:	ad8804c0 	stp	q0, q1, [x6,#256]!
  40e8b8:	adc80440 	ldp	q0, q1, [x2,#256]!
  40e8bc:	adc80440 	ldp	q0, q1, [x2,#256]!
  40e8c0:	ad8804c0 	stp	q0, q1, [x6,#256]!
  40e8c4:	adc80440 	ldp	q0, q1, [x2,#256]!
  40e8c8:	ad8804c0 	stp	q0, q1, [x6,#256]!
  40e8cc:	aa1e03eb 	mov	x11, x30
  40e8d0:	97ffeb6d 	bl	409684 <nop_>
  40e8d4:	aa0b03fe 	mov	x30, x11
  40e8d8:	ad8804c0 	stp	q0, q1, [x6,#256]!
  40e8dc:	adc80440 	ldp	q0, q1, [x2,#256]!
  40e8e0:	adc80440 	ldp	q0, q1, [x2,#256]!
  40e8e4:	ad8804c0 	stp	q0, q1, [x6,#256]!
  40e8e8:	adc80440 	ldp	q0, q1, [x2,#256]!
  40e8ec:	ad8804c0 	stp	q0, q1, [x6,#256]!
  40e8f0:	aa1e03eb 	mov	x11, x30
  40e8f4:	97ffeb64 	bl	409684 <nop_>
  40e8f8:	aa0b03fe 	mov	x30, x11
  40e8fc:	adc80440 	ldp	q0, q1, [x2,#256]!
  40e900:	ad8804c0 	stp	q0, q1, [x6,#256]!
  40e904:	adc80440 	ldp	q0, q1, [x2,#256]!
  40e908:	ad8804c0 	stp	q0, q1, [x6,#256]!
  40e90c:	adc80440 	ldp	q0, q1, [x2,#256]!
  40e910:	ad8804c0 	stp	q0, q1, [x6,#256]!
  40e914:	aa1e03eb 	mov	x11, x30
  40e918:	97ffeb5b 	bl	409684 <nop_>
  40e91c:	aa0b03fe 	mov	x30, x11
  40e920:	ad8804c0 	stp	q0, q1, [x6,#256]!
  40e924:	adc80440 	ldp	q0, q1, [x2,#256]!
  40e928:	ad8804c0 	stp	q0, q1, [x6,#256]!
  40e92c:	adc80440 	ldp	q0, q1, [x2,#256]!
  40e930:	adc80440 	ldp	q0, q1, [x2,#256]!
  40e934:	ad8804c0 	stp	q0, q1, [x6,#256]!
  40e938:	aa1e03eb 	mov	x11, x30
  40e93c:	97ffeb52 	bl	409684 <nop_>
  40e940:	aa0b03fe 	mov	x30, x11
  40e944:	adc80440 	ldp	q0, q1, [x2,#256]!
  40e948:	ad8804c0 	stp	q0, q1, [x6,#256]!
  40e94c:	adc80440 	ldp	q0, q1, [x2,#256]!
  40e950:	ad8804c0 	stp	q0, q1, [x6,#256]!
  40e954:	adc80440 	ldp	q0, q1, [x2,#256]!
  40e958:	ad8804c0 	stp	q0, q1, [x6,#256]!
  40e95c:	aa1e03eb 	mov	x11, x30
  40e960:	97ffeb49 	bl	409684 <nop_>
  40e964:	aa0b03fe 	mov	x30, x11
  40e968:	adc80440 	ldp	q0, q1, [x2,#256]!
  40e96c:	ad8804c0 	stp	q0, q1, [x6,#256]!
  40e970:	adc80440 	ldp	q0, q1, [x2,#256]!
  40e974:	ad8804c0 	stp	q0, q1, [x6,#256]!
  40e978:	ad8804c0 	stp	q0, q1, [x6,#256]!
  40e97c:	adc80440 	ldp	q0, q1, [x2,#256]!
  40e980:	aa1e03eb 	mov	x11, x30
  40e984:	97ffeb40 	bl	409684 <nop_>
  40e988:	aa0b03fe 	mov	x30, x11
  40e98c:	adc80440 	ldp	q0, q1, [x2,#256]!
  40e990:	ad8804c0 	stp	q0, q1, [x6,#256]!
  40e994:	adc80440 	ldp	q0, q1, [x2,#256]!
  40e998:	ad8804c0 	stp	q0, q1, [x6,#256]!
  40e99c:	adc80440 	ldp	q0, q1, [x2,#256]!
  40e9a0:	ad8804c0 	stp	q0, q1, [x6,#256]!
  40e9a4:	aa1e03eb 	mov	x11, x30
  40e9a8:	97ffeb37 	bl	409684 <nop_>
  40e9ac:	aa0b03fe 	mov	x30, x11
  40e9b0:	ad8804c0 	stp	q0, q1, [x6,#256]!
  40e9b4:	adc80440 	ldp	q0, q1, [x2,#256]!
  40e9b8:	ad8804c0 	stp	q0, q1, [x6,#256]!
  40e9bc:	adc80440 	ldp	q0, q1, [x2,#256]!
  40e9c0:	adc80440 	ldp	q0, q1, [x2,#256]!
  40e9c4:	ad8804c0 	stp	q0, q1, [x6,#256]!
  40e9c8:	aa1e03eb 	mov	x11, x30
  40e9cc:	97ffeb2e 	bl	409684 <nop_>
  40e9d0:	aa0b03fe 	mov	x30, x11
  40e9d4:	ad8804c0 	stp	q0, q1, [x6,#256]!
  40e9d8:	adc80440 	ldp	q0, q1, [x2,#256]!
  40e9dc:	adc80440 	ldp	q0, q1, [x2,#256]!
  40e9e0:	ad8804c0 	stp	q0, q1, [x6,#256]!
  40e9e4:	adc80440 	ldp	q0, q1, [x2,#256]!
  40e9e8:	ad8804c0 	stp	q0, q1, [x6,#256]!
  40e9ec:	aa1e03eb 	mov	x11, x30
  40e9f0:	97ffeb25 	bl	409684 <nop_>
  40e9f4:	aa0b03fe 	mov	x30, x11
  40e9f8:	ad8804c0 	stp	q0, q1, [x6,#256]!
  40e9fc:	adc80440 	ldp	q0, q1, [x2,#256]!
  40ea00:	ad8804c0 	stp	q0, q1, [x6,#256]!
  40ea04:	adc80440 	ldp	q0, q1, [x2,#256]!
  40ea08:	adc80440 	ldp	q0, q1, [x2,#256]!
  40ea0c:	ad8804c0 	stp	q0, q1, [x6,#256]!
  40ea10:	aa1e03eb 	mov	x11, x30
  40ea14:	97ffeb1c 	bl	409684 <nop_>
  40ea18:	aa0b03fe 	mov	x30, x11
  40ea1c:	ad8804c0 	stp	q0, q1, [x6,#256]!
  40ea20:	adc80440 	ldp	q0, q1, [x2,#256]!
  40ea24:	adc80440 	ldp	q0, q1, [x2,#256]!
  40ea28:	ad8804c0 	stp	q0, q1, [x6,#256]!
  40ea2c:	adc80440 	ldp	q0, q1, [x2,#256]!
  40ea30:	ad8804c0 	stp	q0, q1, [x6,#256]!
  40ea34:	aa1e03eb 	mov	x11, x30
  40ea38:	97ffeb13 	bl	409684 <nop_>
  40ea3c:	aa0b03fe 	mov	x30, x11
  40ea40:	ad8804c0 	stp	q0, q1, [x6,#256]!
  40ea44:	adc80440 	ldp	q0, q1, [x2,#256]!
  40ea48:	adc80440 	ldp	q0, q1, [x2,#256]!
  40ea4c:	ad8804c0 	stp	q0, q1, [x6,#256]!
  40ea50:	adc80440 	ldp	q0, q1, [x2,#256]!
  40ea54:	ad8804c0 	stp	q0, q1, [x6,#256]!
  40ea58:	aa1e03eb 	mov	x11, x30
  40ea5c:	97ffeb0a 	bl	409684 <nop_>
  40ea60:	aa0b03fe 	mov	x30, x11
  40ea64:	adc80440 	ldp	q0, q1, [x2,#256]!
  40ea68:	ad8804c0 	stp	q0, q1, [x6,#256]!
  40ea6c:	adc80440 	ldp	q0, q1, [x2,#256]!
  40ea70:	ad8804c0 	stp	q0, q1, [x6,#256]!
  40ea74:	adc80440 	ldp	q0, q1, [x2,#256]!
  40ea78:	ad8804c0 	stp	q0, q1, [x6,#256]!
  40ea7c:	aa1e03eb 	mov	x11, x30
  40ea80:	97ffeb01 	bl	409684 <nop_>
  40ea84:	aa0b03fe 	mov	x30, x11
  40ea88:	ad8804c0 	stp	q0, q1, [x6,#256]!
  40ea8c:	adc80440 	ldp	q0, q1, [x2,#256]!
  40ea90:	adc80440 	ldp	q0, q1, [x2,#256]!
  40ea94:	ad8804c0 	stp	q0, q1, [x6,#256]!
  40ea98:	aa1e03eb 	mov	x11, x30
  40ea9c:	97ffeafa 	bl	409684 <nop_>
  40eaa0:	aa0b03fe 	mov	x30, x11
  40eaa4:	91320021 	add	x1, x1, #0xc80
  40eaa8:	eb03003f 	cmp	x1, x3
  40eaac:	54ffeced 	b.le	40e848 <_Z14STREAM_copy_50PdS_PlPKi+0xe0>
  40eab0:	f94017e0 	ldr	x0, [sp,#40]
  40eab4:	9101a000 	add	x0, x0, #0x68
  40eab8:	fd400000 	ldr	d0, [x0]
  40eabc:	90000100 	adrp	x0, 42e000 <_Znam@GLIBCXX_3.4>
  40eac0:	91286000 	add	x0, x0, #0xa18
  40eac4:	97ffea7f 	bl	4094c0 <_ZNSolsEd@plt>
  40eac8:	aa0003e2 	mov	x2, x0
  40eacc:	d0ffffc0 	adrp	x0, 408000 <_init-0x970>
  40ead0:	912ec001 	add	x1, x0, #0xbb0
  40ead4:	aa0203e0 	mov	x0, x2
  40ead8:	97ffe91a 	bl	408f40 <_ZNSolsEPFRSoS_E@plt>
  40eadc:	d503201f 	nop
  40eae0:	a8c37bfd 	ldp	x29, x30, [sp],#48
  40eae4:	d65f03c0 	ret

000000000040eae8 <_Z14STREAM_copy_52PdS_PlPKi>:
  40eae8:	a9bd7bfd 	stp	x29, x30, [sp,#-48]!
  40eaec:	910003fd 	mov	x29, sp
  40eaf0:	f90017e0 	str	x0, [sp,#40]
  40eaf4:	f90013e1 	str	x1, [sp,#32]
  40eaf8:	f9000fe2 	str	x2, [sp,#24]
  40eafc:	f9000be3 	str	x3, [sp,#16]
  40eb00:	d2800000 	mov	x0, #0x0                   	// #0
  40eb04:	f0000040 	adrp	x0, 419000 <_IO_stdin_used+0x8>
  40eb08:	91008001 	add	x1, x0, #0x20
  40eb0c:	90000100 	adrp	x0, 42e000 <_Znam@GLIBCXX_3.4>
  40eb10:	91286000 	add	x0, x0, #0xa18
  40eb14:	97ffe8f7 	bl	408ef0 <_ZStlsISt11char_traitsIcEERSt13basic_ostreamIcT_ES5_PKc@plt>
  40eb18:	aa0003e2 	mov	x2, x0
  40eb1c:	f9400be0 	ldr	x0, [sp,#16]
  40eb20:	b9400000 	ldr	w0, [x0]
  40eb24:	2a0003e1 	mov	w1, w0
  40eb28:	aa0203e0 	mov	x0, x2
  40eb2c:	97ffea25 	bl	4093c0 <_ZNSolsEi@plt>
  40eb30:	aa0003e2 	mov	x2, x0
  40eb34:	f0000040 	adrp	x0, 419000 <_IO_stdin_used+0x8>
  40eb38:	9100c001 	add	x1, x0, #0x30
  40eb3c:	aa0203e0 	mov	x0, x2
  40eb40:	97ffe8ec 	bl	408ef0 <_ZStlsISt11char_traitsIcEERSt13basic_ostreamIcT_ES5_PKc@plt>
  40eb44:	f94017e1 	ldr	x1, [sp,#40]
  40eb48:	97ffe88e 	bl	408d80 <_ZNSolsEPKv@plt>
  40eb4c:	aa0003e2 	mov	x2, x0
  40eb50:	f0000040 	adrp	x0, 419000 <_IO_stdin_used+0x8>
  40eb54:	91010001 	add	x1, x0, #0x40
  40eb58:	aa0203e0 	mov	x0, x2
  40eb5c:	97ffe8e5 	bl	408ef0 <_ZStlsISt11char_traitsIcEERSt13basic_ostreamIcT_ES5_PKc@plt>
  40eb60:	f94013e1 	ldr	x1, [sp,#32]
  40eb64:	97ffe887 	bl	408d80 <_ZNSolsEPKv@plt>
  40eb68:	aa0003e2 	mov	x2, x0
  40eb6c:	f0000040 	adrp	x0, 419000 <_IO_stdin_used+0x8>
  40eb70:	91014001 	add	x1, x0, #0x50
  40eb74:	aa0203e0 	mov	x0, x2
  40eb78:	97ffe8de 	bl	408ef0 <_ZStlsISt11char_traitsIcEERSt13basic_ostreamIcT_ES5_PKc@plt>
  40eb7c:	aa0003e2 	mov	x2, x0
  40eb80:	f9400fe0 	ldr	x0, [sp,#24]
  40eb84:	f9400000 	ldr	x0, [x0]
  40eb88:	aa0003e1 	mov	x1, x0
  40eb8c:	aa0203e0 	mov	x0, x2
  40eb90:	97ffea2c 	bl	409440 <_ZNSolsEl@plt>
  40eb94:	aa0003e2 	mov	x2, x0
  40eb98:	d0ffffc0 	adrp	x0, 408000 <_init-0x970>
  40eb9c:	912ec001 	add	x1, x0, #0xbb0
  40eba0:	aa0203e0 	mov	x0, x2
  40eba4:	97ffe8e7 	bl	408f40 <_ZNSolsEPFRSoS_E@plt>
  40eba8:	f9400fe1 	ldr	x1, [sp,#24]
  40ebac:	f9400023 	ldr	x3, [x1]
  40ebb0:	f9400be1 	ldr	x1, [sp,#16]
  40ebb4:	b9400025 	ldr	w5, [x1]
  40ebb8:	f94017e2 	ldr	x2, [sp,#40]
  40ebbc:	f94013e6 	ldr	x6, [sp,#32]
  40ebc0:	d2800001 	mov	x1, #0x0                   	// #0
  40ebc4:	aa0503e4 	mov	x4, x5
  40ebc8:	adc80440 	ldp	q0, q1, [x2,#256]!
  40ebcc:	ad8804c0 	stp	q0, q1, [x6,#256]!
  40ebd0:	adc80440 	ldp	q0, q1, [x2,#256]!
  40ebd4:	ad8804c0 	stp	q0, q1, [x6,#256]!
  40ebd8:	adc80440 	ldp	q0, q1, [x2,#256]!
  40ebdc:	ad8804c0 	stp	q0, q1, [x6,#256]!
  40ebe0:	aa1e03eb 	mov	x11, x30
  40ebe4:	97ffeaa8 	bl	409684 <nop_>
  40ebe8:	aa0b03fe 	mov	x30, x11
  40ebec:	ad8804c0 	stp	q0, q1, [x6,#256]!
  40ebf0:	adc80440 	ldp	q0, q1, [x2,#256]!
  40ebf4:	ad8804c0 	stp	q0, q1, [x6,#256]!
  40ebf8:	adc80440 	ldp	q0, q1, [x2,#256]!
  40ebfc:	ad8804c0 	stp	q0, q1, [x6,#256]!
  40ec00:	adc80440 	ldp	q0, q1, [x2,#256]!
  40ec04:	aa1e03eb 	mov	x11, x30
  40ec08:	97ffea9f 	bl	409684 <nop_>
  40ec0c:	aa0b03fe 	mov	x30, x11
  40ec10:	adc80440 	ldp	q0, q1, [x2,#256]!
  40ec14:	ad8804c0 	stp	q0, q1, [x6,#256]!
  40ec18:	adc80440 	ldp	q0, q1, [x2,#256]!
  40ec1c:	ad8804c0 	stp	q0, q1, [x6,#256]!
  40ec20:	adc80440 	ldp	q0, q1, [x2,#256]!
  40ec24:	ad8804c0 	stp	q0, q1, [x6,#256]!
  40ec28:	aa1e03eb 	mov	x11, x30
  40ec2c:	97ffea96 	bl	409684 <nop_>
  40ec30:	aa0b03fe 	mov	x30, x11
  40ec34:	ad8804c0 	stp	q0, q1, [x6,#256]!
  40ec38:	adc80440 	ldp	q0, q1, [x2,#256]!
  40ec3c:	adc80440 	ldp	q0, q1, [x2,#256]!
  40ec40:	ad8804c0 	stp	q0, q1, [x6,#256]!
  40ec44:	adc80440 	ldp	q0, q1, [x2,#256]!
  40ec48:	ad8804c0 	stp	q0, q1, [x6,#256]!
  40ec4c:	aa1e03eb 	mov	x11, x30
  40ec50:	97ffea8d 	bl	409684 <nop_>
  40ec54:	aa0b03fe 	mov	x30, x11
  40ec58:	ad8804c0 	stp	q0, q1, [x6,#256]!
  40ec5c:	adc80440 	ldp	q0, q1, [x2,#256]!
  40ec60:	adc80440 	ldp	q0, q1, [x2,#256]!
  40ec64:	ad8804c0 	stp	q0, q1, [x6,#256]!
  40ec68:	adc80440 	ldp	q0, q1, [x2,#256]!
  40ec6c:	ad8804c0 	stp	q0, q1, [x6,#256]!
  40ec70:	aa1e03eb 	mov	x11, x30
  40ec74:	97ffea84 	bl	409684 <nop_>
  40ec78:	aa0b03fe 	mov	x30, x11
  40ec7c:	adc80440 	ldp	q0, q1, [x2,#256]!
  40ec80:	ad8804c0 	stp	q0, q1, [x6,#256]!
  40ec84:	adc80440 	ldp	q0, q1, [x2,#256]!
  40ec88:	ad8804c0 	stp	q0, q1, [x6,#256]!
  40ec8c:	adc80440 	ldp	q0, q1, [x2,#256]!
  40ec90:	ad8804c0 	stp	q0, q1, [x6,#256]!
  40ec94:	aa1e03eb 	mov	x11, x30
  40ec98:	97ffea7b 	bl	409684 <nop_>
  40ec9c:	aa0b03fe 	mov	x30, x11
  40eca0:	ad8804c0 	stp	q0, q1, [x6,#256]!
  40eca4:	adc80440 	ldp	q0, q1, [x2,#256]!
  40eca8:	ad8804c0 	stp	q0, q1, [x6,#256]!
  40ecac:	adc80440 	ldp	q0, q1, [x2,#256]!
  40ecb0:	adc80440 	ldp	q0, q1, [x2,#256]!
  40ecb4:	ad8804c0 	stp	q0, q1, [x6,#256]!
  40ecb8:	aa1e03eb 	mov	x11, x30
  40ecbc:	97ffea72 	bl	409684 <nop_>
  40ecc0:	aa0b03fe 	mov	x30, x11
  40ecc4:	adc80440 	ldp	q0, q1, [x2,#256]!
  40ecc8:	ad8804c0 	stp	q0, q1, [x6,#256]!
  40eccc:	adc80440 	ldp	q0, q1, [x2,#256]!
  40ecd0:	ad8804c0 	stp	q0, q1, [x6,#256]!
  40ecd4:	adc80440 	ldp	q0, q1, [x2,#256]!
  40ecd8:	ad8804c0 	stp	q0, q1, [x6,#256]!
  40ecdc:	aa1e03eb 	mov	x11, x30
  40ece0:	97ffea69 	bl	409684 <nop_>
  40ece4:	aa0b03fe 	mov	x30, x11
  40ece8:	adc80440 	ldp	q0, q1, [x2,#256]!
  40ecec:	ad8804c0 	stp	q0, q1, [x6,#256]!
  40ecf0:	adc80440 	ldp	q0, q1, [x2,#256]!
  40ecf4:	adc80440 	ldp	q0, q1, [x2,#256]!
  40ecf8:	ad8804c0 	stp	q0, q1, [x6,#256]!
  40ecfc:	adc80440 	ldp	q0, q1, [x2,#256]!
  40ed00:	aa1e03eb 	mov	x11, x30
  40ed04:	97ffea60 	bl	409684 <nop_>
  40ed08:	aa0b03fe 	mov	x30, x11
  40ed0c:	adc80440 	ldp	q0, q1, [x2,#256]!
  40ed10:	ad8804c0 	stp	q0, q1, [x6,#256]!
  40ed14:	adc80440 	ldp	q0, q1, [x2,#256]!
  40ed18:	ad8804c0 	stp	q0, q1, [x6,#256]!
  40ed1c:	adc80440 	ldp	q0, q1, [x2,#256]!
  40ed20:	ad8804c0 	stp	q0, q1, [x6,#256]!
  40ed24:	aa1e03eb 	mov	x11, x30
  40ed28:	97ffea57 	bl	409684 <nop_>
  40ed2c:	aa0b03fe 	mov	x30, x11
  40ed30:	ad8804c0 	stp	q0, q1, [x6,#256]!
  40ed34:	adc80440 	ldp	q0, q1, [x2,#256]!
  40ed38:	ad8804c0 	stp	q0, q1, [x6,#256]!
  40ed3c:	adc80440 	ldp	q0, q1, [x2,#256]!
  40ed40:	adc80440 	ldp	q0, q1, [x2,#256]!
  40ed44:	ad8804c0 	stp	q0, q1, [x6,#256]!
  40ed48:	aa1e03eb 	mov	x11, x30
  40ed4c:	97ffea4e 	bl	409684 <nop_>
  40ed50:	aa0b03fe 	mov	x30, x11
  40ed54:	ad8804c0 	stp	q0, q1, [x6,#256]!
  40ed58:	adc80440 	ldp	q0, q1, [x2,#256]!
  40ed5c:	adc80440 	ldp	q0, q1, [x2,#256]!
  40ed60:	ad8804c0 	stp	q0, q1, [x6,#256]!
  40ed64:	adc80440 	ldp	q0, q1, [x2,#256]!
  40ed68:	ad8804c0 	stp	q0, q1, [x6,#256]!
  40ed6c:	aa1e03eb 	mov	x11, x30
  40ed70:	97ffea45 	bl	409684 <nop_>
  40ed74:	aa0b03fe 	mov	x30, x11
  40ed78:	ad8804c0 	stp	q0, q1, [x6,#256]!
  40ed7c:	adc80440 	ldp	q0, q1, [x2,#256]!
  40ed80:	ad8804c0 	stp	q0, q1, [x6,#256]!
  40ed84:	adc80440 	ldp	q0, q1, [x2,#256]!
  40ed88:	adc80440 	ldp	q0, q1, [x2,#256]!
  40ed8c:	ad8804c0 	stp	q0, q1, [x6,#256]!
  40ed90:	aa1e03eb 	mov	x11, x30
  40ed94:	97ffea3c 	bl	409684 <nop_>
  40ed98:	aa0b03fe 	mov	x30, x11
  40ed9c:	ad8804c0 	stp	q0, q1, [x6,#256]!
  40eda0:	adc80440 	ldp	q0, q1, [x2,#256]!
  40eda4:	adc80440 	ldp	q0, q1, [x2,#256]!
  40eda8:	ad8804c0 	stp	q0, q1, [x6,#256]!
  40edac:	adc80440 	ldp	q0, q1, [x2,#256]!
  40edb0:	ad8804c0 	stp	q0, q1, [x6,#256]!
  40edb4:	aa1e03eb 	mov	x11, x30
  40edb8:	97ffea33 	bl	409684 <nop_>
  40edbc:	aa0b03fe 	mov	x30, x11
  40edc0:	ad8804c0 	stp	q0, q1, [x6,#256]!
  40edc4:	adc80440 	ldp	q0, q1, [x2,#256]!
  40edc8:	adc80440 	ldp	q0, q1, [x2,#256]!
  40edcc:	ad8804c0 	stp	q0, q1, [x6,#256]!
  40edd0:	adc80440 	ldp	q0, q1, [x2,#256]!
  40edd4:	adc80440 	ldp	q0, q1, [x2,#256]!
  40edd8:	aa1e03eb 	mov	x11, x30
  40eddc:	97ffea2a 	bl	409684 <nop_>
  40ede0:	aa0b03fe 	mov	x30, x11
  40ede4:	adc80440 	ldp	q0, q1, [x2,#256]!
  40ede8:	ad8804c0 	stp	q0, q1, [x6,#256]!
  40edec:	adc80440 	ldp	q0, q1, [x2,#256]!
  40edf0:	ad8804c0 	stp	q0, q1, [x6,#256]!
  40edf4:	adc80440 	ldp	q0, q1, [x2,#256]!
  40edf8:	ad8804c0 	stp	q0, q1, [x6,#256]!
  40edfc:	aa1e03eb 	mov	x11, x30
  40ee00:	97ffea21 	bl	409684 <nop_>
  40ee04:	aa0b03fe 	mov	x30, x11
  40ee08:	ad8804c0 	stp	q0, q1, [x6,#256]!
  40ee0c:	adc80440 	ldp	q0, q1, [x2,#256]!
  40ee10:	adc80440 	ldp	q0, q1, [x2,#256]!
  40ee14:	ad8804c0 	stp	q0, q1, [x6,#256]!
  40ee18:	aa1e03eb 	mov	x11, x30
  40ee1c:	97ffea1a 	bl	409684 <nop_>
  40ee20:	aa0b03fe 	mov	x30, x11
  40ee24:	91320021 	add	x1, x1, #0xc80
  40ee28:	eb03003f 	cmp	x1, x3
  40ee2c:	54026bed 	b.le	413ba8 <_Z15STREAM_copy_100PdS_PlPKi+0xe0>
  40ee30:	d503201f 	nop
  40ee34:	a8c37bfd 	ldp	x29, x30, [sp],#48
  40ee38:	d65f03c0 	ret

000000000040ee3c <_Z14STREAM_copy_54PdS_PlPKi>:
  40ee3c:	a9bd7bfd 	stp	x29, x30, [sp,#-48]!
  40ee40:	910003fd 	mov	x29, sp
  40ee44:	f90017e0 	str	x0, [sp,#40]
  40ee48:	f90013e1 	str	x1, [sp,#32]
  40ee4c:	f9000fe2 	str	x2, [sp,#24]
  40ee50:	f9000be3 	str	x3, [sp,#16]
  40ee54:	d2800000 	mov	x0, #0x0                   	// #0
  40ee58:	f0000040 	adrp	x0, 419000 <_IO_stdin_used+0x8>
  40ee5c:	91008001 	add	x1, x0, #0x20
  40ee60:	90000100 	adrp	x0, 42e000 <_Znam@GLIBCXX_3.4>
  40ee64:	91286000 	add	x0, x0, #0xa18
  40ee68:	97ffe822 	bl	408ef0 <_ZStlsISt11char_traitsIcEERSt13basic_ostreamIcT_ES5_PKc@plt>
  40ee6c:	aa0003e2 	mov	x2, x0
  40ee70:	f9400be0 	ldr	x0, [sp,#16]
  40ee74:	b9400000 	ldr	w0, [x0]
  40ee78:	2a0003e1 	mov	w1, w0
  40ee7c:	aa0203e0 	mov	x0, x2
  40ee80:	97ffe950 	bl	4093c0 <_ZNSolsEi@plt>
  40ee84:	aa0003e2 	mov	x2, x0
  40ee88:	f0000040 	adrp	x0, 419000 <_IO_stdin_used+0x8>
  40ee8c:	9100c001 	add	x1, x0, #0x30
  40ee90:	aa0203e0 	mov	x0, x2
  40ee94:	97ffe817 	bl	408ef0 <_ZStlsISt11char_traitsIcEERSt13basic_ostreamIcT_ES5_PKc@plt>
  40ee98:	f94017e1 	ldr	x1, [sp,#40]
  40ee9c:	97ffe7b9 	bl	408d80 <_ZNSolsEPKv@plt>
  40eea0:	aa0003e2 	mov	x2, x0
  40eea4:	f0000040 	adrp	x0, 419000 <_IO_stdin_used+0x8>
  40eea8:	91010001 	add	x1, x0, #0x40
  40eeac:	aa0203e0 	mov	x0, x2
  40eeb0:	97ffe810 	bl	408ef0 <_ZStlsISt11char_traitsIcEERSt13basic_ostreamIcT_ES5_PKc@plt>
  40eeb4:	f94013e1 	ldr	x1, [sp,#32]
  40eeb8:	97ffe7b2 	bl	408d80 <_ZNSolsEPKv@plt>
  40eebc:	aa0003e2 	mov	x2, x0
  40eec0:	f0000040 	adrp	x0, 419000 <_IO_stdin_used+0x8>
  40eec4:	91014001 	add	x1, x0, #0x50
  40eec8:	aa0203e0 	mov	x0, x2
  40eecc:	97ffe809 	bl	408ef0 <_ZStlsISt11char_traitsIcEERSt13basic_ostreamIcT_ES5_PKc@plt>
  40eed0:	aa0003e2 	mov	x2, x0
  40eed4:	f9400fe0 	ldr	x0, [sp,#24]
  40eed8:	f9400000 	ldr	x0, [x0]
  40eedc:	aa0003e1 	mov	x1, x0
  40eee0:	aa0203e0 	mov	x0, x2
  40eee4:	97ffe957 	bl	409440 <_ZNSolsEl@plt>
  40eee8:	aa0003e2 	mov	x2, x0
  40eeec:	d0ffffc0 	adrp	x0, 408000 <_init-0x970>
  40eef0:	912ec001 	add	x1, x0, #0xbb0
  40eef4:	aa0203e0 	mov	x0, x2
  40eef8:	97ffe812 	bl	408f40 <_ZNSolsEPFRSoS_E@plt>
  40eefc:	f9400fe1 	ldr	x1, [sp,#24]
  40ef00:	f9400023 	ldr	x3, [x1]
  40ef04:	f9400be1 	ldr	x1, [sp,#16]
  40ef08:	b9400025 	ldr	w5, [x1]
  40ef0c:	f94017e2 	ldr	x2, [sp,#40]
  40ef10:	f94013e6 	ldr	x6, [sp,#32]
  40ef14:	d2800001 	mov	x1, #0x0                   	// #0
  40ef18:	aa0503e4 	mov	x4, x5
  40ef1c:	adc80440 	ldp	q0, q1, [x2,#256]!
  40ef20:	ad8804c0 	stp	q0, q1, [x6,#256]!
  40ef24:	adc80440 	ldp	q0, q1, [x2,#256]!
  40ef28:	ad8804c0 	stp	q0, q1, [x6,#256]!
  40ef2c:	adc80440 	ldp	q0, q1, [x2,#256]!
  40ef30:	ad8804c0 	stp	q0, q1, [x6,#256]!
  40ef34:	aa1e03eb 	mov	x11, x30
  40ef38:	97ffe9d3 	bl	409684 <nop_>
  40ef3c:	aa0b03fe 	mov	x30, x11
  40ef40:	ad8804c0 	stp	q0, q1, [x6,#256]!
  40ef44:	adc80440 	ldp	q0, q1, [x2,#256]!
  40ef48:	ad8804c0 	stp	q0, q1, [x6,#256]!
  40ef4c:	adc80440 	ldp	q0, q1, [x2,#256]!
  40ef50:	ad8804c0 	stp	q0, q1, [x6,#256]!
  40ef54:	adc80440 	ldp	q0, q1, [x2,#256]!
  40ef58:	aa1e03eb 	mov	x11, x30
  40ef5c:	97ffe9ca 	bl	409684 <nop_>
  40ef60:	aa0b03fe 	mov	x30, x11
  40ef64:	adc80440 	ldp	q0, q1, [x2,#256]!
  40ef68:	ad8804c0 	stp	q0, q1, [x6,#256]!
  40ef6c:	adc80440 	ldp	q0, q1, [x2,#256]!
  40ef70:	ad8804c0 	stp	q0, q1, [x6,#256]!
  40ef74:	adc80440 	ldp	q0, q1, [x2,#256]!
  40ef78:	adc80440 	ldp	q0, q1, [x2,#256]!
  40ef7c:	aa1e03eb 	mov	x11, x30
  40ef80:	97ffe9c1 	bl	409684 <nop_>
  40ef84:	aa0b03fe 	mov	x30, x11
  40ef88:	ad8804c0 	stp	q0, q1, [x6,#256]!
  40ef8c:	adc80440 	ldp	q0, q1, [x2,#256]!
  40ef90:	adc80440 	ldp	q0, q1, [x2,#256]!
  40ef94:	ad8804c0 	stp	q0, q1, [x6,#256]!
  40ef98:	adc80440 	ldp	q0, q1, [x2,#256]!
  40ef9c:	ad8804c0 	stp	q0, q1, [x6,#256]!
  40efa0:	aa1e03eb 	mov	x11, x30
  40efa4:	97ffe9b8 	bl	409684 <nop_>
  40efa8:	aa0b03fe 	mov	x30, x11
  40efac:	ad8804c0 	stp	q0, q1, [x6,#256]!
  40efb0:	adc80440 	ldp	q0, q1, [x2,#256]!
  40efb4:	adc80440 	ldp	q0, q1, [x2,#256]!
  40efb8:	ad8804c0 	stp	q0, q1, [x6,#256]!
  40efbc:	adc80440 	ldp	q0, q1, [x2,#256]!
  40efc0:	ad8804c0 	stp	q0, q1, [x6,#256]!
  40efc4:	aa1e03eb 	mov	x11, x30
  40efc8:	97ffe9af 	bl	409684 <nop_>
  40efcc:	aa0b03fe 	mov	x30, x11
  40efd0:	adc80440 	ldp	q0, q1, [x2,#256]!
  40efd4:	ad8804c0 	stp	q0, q1, [x6,#256]!
  40efd8:	adc80440 	ldp	q0, q1, [x2,#256]!
  40efdc:	ad8804c0 	stp	q0, q1, [x6,#256]!
  40efe0:	adc80440 	ldp	q0, q1, [x2,#256]!
  40efe4:	ad8804c0 	stp	q0, q1, [x6,#256]!
  40efe8:	aa1e03eb 	mov	x11, x30
  40efec:	97ffe9a6 	bl	409684 <nop_>
  40eff0:	aa0b03fe 	mov	x30, x11
  40eff4:	ad8804c0 	stp	q0, q1, [x6,#256]!
  40eff8:	adc80440 	ldp	q0, q1, [x2,#256]!
  40effc:	ad8804c0 	stp	q0, q1, [x6,#256]!
  40f000:	adc80440 	ldp	q0, q1, [x2,#256]!
  40f004:	adc80440 	ldp	q0, q1, [x2,#256]!
  40f008:	ad8804c0 	stp	q0, q1, [x6,#256]!
  40f00c:	aa1e03eb 	mov	x11, x30
  40f010:	97ffe99d 	bl	409684 <nop_>
  40f014:	aa0b03fe 	mov	x30, x11
  40f018:	adc80440 	ldp	q0, q1, [x2,#256]!
  40f01c:	ad8804c0 	stp	q0, q1, [x6,#256]!
  40f020:	adc80440 	ldp	q0, q1, [x2,#256]!
  40f024:	adc80440 	ldp	q0, q1, [x2,#256]!
  40f028:	adc80440 	ldp	q0, q1, [x2,#256]!
  40f02c:	ad8804c0 	stp	q0, q1, [x6,#256]!
  40f030:	aa1e03eb 	mov	x11, x30
  40f034:	97ffe994 	bl	409684 <nop_>
  40f038:	aa0b03fe 	mov	x30, x11
  40f03c:	adc80440 	ldp	q0, q1, [x2,#256]!
  40f040:	ad8804c0 	stp	q0, q1, [x6,#256]!
  40f044:	adc80440 	ldp	q0, q1, [x2,#256]!
  40f048:	adc80440 	ldp	q0, q1, [x2,#256]!
  40f04c:	ad8804c0 	stp	q0, q1, [x6,#256]!
  40f050:	adc80440 	ldp	q0, q1, [x2,#256]!
  40f054:	aa1e03eb 	mov	x11, x30
  40f058:	97ffe98b 	bl	409684 <nop_>
  40f05c:	aa0b03fe 	mov	x30, x11
  40f060:	adc80440 	ldp	q0, q1, [x2,#256]!
  40f064:	ad8804c0 	stp	q0, q1, [x6,#256]!
  40f068:	adc80440 	ldp	q0, q1, [x2,#256]!
  40f06c:	ad8804c0 	stp	q0, q1, [x6,#256]!
  40f070:	adc80440 	ldp	q0, q1, [x2,#256]!
  40f074:	ad8804c0 	stp	q0, q1, [x6,#256]!
  40f078:	aa1e03eb 	mov	x11, x30
  40f07c:	97ffe982 	bl	409684 <nop_>
  40f080:	aa0b03fe 	mov	x30, x11
  40f084:	ad8804c0 	stp	q0, q1, [x6,#256]!
  40f088:	adc80440 	ldp	q0, q1, [x2,#256]!
  40f08c:	ad8804c0 	stp	q0, q1, [x6,#256]!
  40f090:	adc80440 	ldp	q0, q1, [x2,#256]!
  40f094:	adc80440 	ldp	q0, q1, [x2,#256]!
  40f098:	ad8804c0 	stp	q0, q1, [x6,#256]!
  40f09c:	aa1e03eb 	mov	x11, x30
  40f0a0:	97ffe979 	bl	409684 <nop_>
  40f0a4:	aa0b03fe 	mov	x30, x11
  40f0a8:	ad8804c0 	stp	q0, q1, [x6,#256]!
  40f0ac:	adc80440 	ldp	q0, q1, [x2,#256]!
  40f0b0:	adc80440 	ldp	q0, q1, [x2,#256]!
  40f0b4:	ad8804c0 	stp	q0, q1, [x6,#256]!
  40f0b8:	adc80440 	ldp	q0, q1, [x2,#256]!
  40f0bc:	ad8804c0 	stp	q0, q1, [x6,#256]!
  40f0c0:	aa1e03eb 	mov	x11, x30
  40f0c4:	97ffe970 	bl	409684 <nop_>
  40f0c8:	aa0b03fe 	mov	x30, x11
  40f0cc:	ad8804c0 	stp	q0, q1, [x6,#256]!
  40f0d0:	adc80440 	ldp	q0, q1, [x2,#256]!
  40f0d4:	ad8804c0 	stp	q0, q1, [x6,#256]!
  40f0d8:	adc80440 	ldp	q0, q1, [x2,#256]!
  40f0dc:	adc80440 	ldp	q0, q1, [x2,#256]!
  40f0e0:	ad8804c0 	stp	q0, q1, [x6,#256]!
  40f0e4:	aa1e03eb 	mov	x11, x30
  40f0e8:	97ffe967 	bl	409684 <nop_>
  40f0ec:	aa0b03fe 	mov	x30, x11
  40f0f0:	ad8804c0 	stp	q0, q1, [x6,#256]!
  40f0f4:	adc80440 	ldp	q0, q1, [x2,#256]!
  40f0f8:	adc80440 	ldp	q0, q1, [x2,#256]!
  40f0fc:	ad8804c0 	stp	q0, q1, [x6,#256]!
  40f100:	adc80440 	ldp	q0, q1, [x2,#256]!
  40f104:	ad8804c0 	stp	q0, q1, [x6,#256]!
  40f108:	aa1e03eb 	mov	x11, x30
  40f10c:	97ffe95e 	bl	409684 <nop_>
  40f110:	aa0b03fe 	mov	x30, x11
  40f114:	ad8804c0 	stp	q0, q1, [x6,#256]!
  40f118:	adc80440 	ldp	q0, q1, [x2,#256]!
  40f11c:	adc80440 	ldp	q0, q1, [x2,#256]!
  40f120:	ad8804c0 	stp	q0, q1, [x6,#256]!
  40f124:	adc80440 	ldp	q0, q1, [x2,#256]!
  40f128:	adc80440 	ldp	q0, q1, [x2,#256]!
  40f12c:	aa1e03eb 	mov	x11, x30
  40f130:	97ffe955 	bl	409684 <nop_>
  40f134:	aa0b03fe 	mov	x30, x11
  40f138:	adc80440 	ldp	q0, q1, [x2,#256]!
  40f13c:	ad8804c0 	stp	q0, q1, [x6,#256]!
  40f140:	adc80440 	ldp	q0, q1, [x2,#256]!
  40f144:	ad8804c0 	stp	q0, q1, [x6,#256]!
  40f148:	adc80440 	ldp	q0, q1, [x2,#256]!
  40f14c:	ad8804c0 	stp	q0, q1, [x6,#256]!
  40f150:	aa1e03eb 	mov	x11, x30
  40f154:	97ffe94c 	bl	409684 <nop_>
  40f158:	aa0b03fe 	mov	x30, x11
  40f15c:	ad8804c0 	stp	q0, q1, [x6,#256]!
  40f160:	adc80440 	ldp	q0, q1, [x2,#256]!
  40f164:	adc80440 	ldp	q0, q1, [x2,#256]!
  40f168:	ad8804c0 	stp	q0, q1, [x6,#256]!
  40f16c:	aa1e03eb 	mov	x11, x30
  40f170:	97ffe945 	bl	409684 <nop_>
  40f174:	aa0b03fe 	mov	x30, x11
  40f178:	91320021 	add	x1, x1, #0xc80
  40f17c:	eb03003f 	cmp	x1, x3
  40f180:	5402514d 	b.le	413ba8 <_Z15STREAM_copy_100PdS_PlPKi+0xe0>
  40f184:	d503201f 	nop
  40f188:	a8c37bfd 	ldp	x29, x30, [sp],#48
  40f18c:	d65f03c0 	ret

000000000040f190 <_Z14STREAM_copy_56PdS_PlPKi>:
  40f190:	a9bd7bfd 	stp	x29, x30, [sp,#-48]!
  40f194:	910003fd 	mov	x29, sp
  40f198:	f90017e0 	str	x0, [sp,#40]
  40f19c:	f90013e1 	str	x1, [sp,#32]
  40f1a0:	f9000fe2 	str	x2, [sp,#24]
  40f1a4:	f9000be3 	str	x3, [sp,#16]
  40f1a8:	d2800000 	mov	x0, #0x0                   	// #0
  40f1ac:	d0000040 	adrp	x0, 419000 <_IO_stdin_used+0x8>
  40f1b0:	91008001 	add	x1, x0, #0x20
  40f1b4:	f00000e0 	adrp	x0, 42e000 <_Znam@GLIBCXX_3.4>
  40f1b8:	91286000 	add	x0, x0, #0xa18
  40f1bc:	97ffe74d 	bl	408ef0 <_ZStlsISt11char_traitsIcEERSt13basic_ostreamIcT_ES5_PKc@plt>
  40f1c0:	aa0003e2 	mov	x2, x0
  40f1c4:	f9400be0 	ldr	x0, [sp,#16]
  40f1c8:	b9400000 	ldr	w0, [x0]
  40f1cc:	2a0003e1 	mov	w1, w0
  40f1d0:	aa0203e0 	mov	x0, x2
  40f1d4:	97ffe87b 	bl	4093c0 <_ZNSolsEi@plt>
  40f1d8:	aa0003e2 	mov	x2, x0
  40f1dc:	d0000040 	adrp	x0, 419000 <_IO_stdin_used+0x8>
  40f1e0:	9100c001 	add	x1, x0, #0x30
  40f1e4:	aa0203e0 	mov	x0, x2
  40f1e8:	97ffe742 	bl	408ef0 <_ZStlsISt11char_traitsIcEERSt13basic_ostreamIcT_ES5_PKc@plt>
  40f1ec:	f94017e1 	ldr	x1, [sp,#40]
  40f1f0:	97ffe6e4 	bl	408d80 <_ZNSolsEPKv@plt>
  40f1f4:	aa0003e2 	mov	x2, x0
  40f1f8:	d0000040 	adrp	x0, 419000 <_IO_stdin_used+0x8>
  40f1fc:	91010001 	add	x1, x0, #0x40
  40f200:	aa0203e0 	mov	x0, x2
  40f204:	97ffe73b 	bl	408ef0 <_ZStlsISt11char_traitsIcEERSt13basic_ostreamIcT_ES5_PKc@plt>
  40f208:	f94013e1 	ldr	x1, [sp,#32]
  40f20c:	97ffe6dd 	bl	408d80 <_ZNSolsEPKv@plt>
  40f210:	aa0003e2 	mov	x2, x0
  40f214:	d0000040 	adrp	x0, 419000 <_IO_stdin_used+0x8>
  40f218:	91014001 	add	x1, x0, #0x50
  40f21c:	aa0203e0 	mov	x0, x2
  40f220:	97ffe734 	bl	408ef0 <_ZStlsISt11char_traitsIcEERSt13basic_ostreamIcT_ES5_PKc@plt>
  40f224:	aa0003e2 	mov	x2, x0
  40f228:	f9400fe0 	ldr	x0, [sp,#24]
  40f22c:	f9400000 	ldr	x0, [x0]
  40f230:	aa0003e1 	mov	x1, x0
  40f234:	aa0203e0 	mov	x0, x2
  40f238:	97ffe882 	bl	409440 <_ZNSolsEl@plt>
  40f23c:	aa0003e2 	mov	x2, x0
  40f240:	b0ffffc0 	adrp	x0, 408000 <_init-0x970>
  40f244:	912ec001 	add	x1, x0, #0xbb0
  40f248:	aa0203e0 	mov	x0, x2
  40f24c:	97ffe73d 	bl	408f40 <_ZNSolsEPFRSoS_E@plt>
  40f250:	f9400fe1 	ldr	x1, [sp,#24]
  40f254:	f9400023 	ldr	x3, [x1]
  40f258:	f9400be1 	ldr	x1, [sp,#16]
  40f25c:	b9400025 	ldr	w5, [x1]
  40f260:	f94017e2 	ldr	x2, [sp,#40]
  40f264:	f94013e6 	ldr	x6, [sp,#32]
  40f268:	d2800001 	mov	x1, #0x0                   	// #0
  40f26c:	aa0503e4 	mov	x4, x5
  40f270:	adc80440 	ldp	q0, q1, [x2,#256]!
  40f274:	ad8804c0 	stp	q0, q1, [x6,#256]!
  40f278:	adc80440 	ldp	q0, q1, [x2,#256]!
  40f27c:	ad8804c0 	stp	q0, q1, [x6,#256]!
  40f280:	adc80440 	ldp	q0, q1, [x2,#256]!
  40f284:	ad8804c0 	stp	q0, q1, [x6,#256]!
  40f288:	aa1e03eb 	mov	x11, x30
  40f28c:	97ffe8fe 	bl	409684 <nop_>
  40f290:	aa0b03fe 	mov	x30, x11
  40f294:	ad8804c0 	stp	q0, q1, [x6,#256]!
  40f298:	adc80440 	ldp	q0, q1, [x2,#256]!
  40f29c:	ad8804c0 	stp	q0, q1, [x6,#256]!
  40f2a0:	adc80440 	ldp	q0, q1, [x2,#256]!
  40f2a4:	ad8804c0 	stp	q0, q1, [x6,#256]!
  40f2a8:	adc80440 	ldp	q0, q1, [x2,#256]!
  40f2ac:	aa1e03eb 	mov	x11, x30
  40f2b0:	97ffe8f5 	bl	409684 <nop_>
  40f2b4:	aa0b03fe 	mov	x30, x11
  40f2b8:	adc80440 	ldp	q0, q1, [x2,#256]!
  40f2bc:	ad8804c0 	stp	q0, q1, [x6,#256]!
  40f2c0:	adc80440 	ldp	q0, q1, [x2,#256]!
  40f2c4:	ad8804c0 	stp	q0, q1, [x6,#256]!
  40f2c8:	adc80440 	ldp	q0, q1, [x2,#256]!
  40f2cc:	adc80440 	ldp	q0, q1, [x2,#256]!
  40f2d0:	aa1e03eb 	mov	x11, x30
  40f2d4:	97ffe8ec 	bl	409684 <nop_>
  40f2d8:	aa0b03fe 	mov	x30, x11
  40f2dc:	ad8804c0 	stp	q0, q1, [x6,#256]!
  40f2e0:	adc80440 	ldp	q0, q1, [x2,#256]!
  40f2e4:	adc80440 	ldp	q0, q1, [x2,#256]!
  40f2e8:	ad8804c0 	stp	q0, q1, [x6,#256]!
  40f2ec:	adc80440 	ldp	q0, q1, [x2,#256]!
  40f2f0:	ad8804c0 	stp	q0, q1, [x6,#256]!
  40f2f4:	aa1e03eb 	mov	x11, x30
  40f2f8:	97ffe8e3 	bl	409684 <nop_>
  40f2fc:	aa0b03fe 	mov	x30, x11
  40f300:	ad8804c0 	stp	q0, q1, [x6,#256]!
  40f304:	adc80440 	ldp	q0, q1, [x2,#256]!
  40f308:	adc80440 	ldp	q0, q1, [x2,#256]!
  40f30c:	ad8804c0 	stp	q0, q1, [x6,#256]!
  40f310:	adc80440 	ldp	q0, q1, [x2,#256]!
  40f314:	ad8804c0 	stp	q0, q1, [x6,#256]!
  40f318:	aa1e03eb 	mov	x11, x30
  40f31c:	97ffe8da 	bl	409684 <nop_>
  40f320:	aa0b03fe 	mov	x30, x11
  40f324:	adc80440 	ldp	q0, q1, [x2,#256]!
  40f328:	ad8804c0 	stp	q0, q1, [x6,#256]!
  40f32c:	adc80440 	ldp	q0, q1, [x2,#256]!
  40f330:	ad8804c0 	stp	q0, q1, [x6,#256]!
  40f334:	adc80440 	ldp	q0, q1, [x2,#256]!
  40f338:	adc80440 	ldp	q0, q1, [x2,#256]!
  40f33c:	aa1e03eb 	mov	x11, x30
  40f340:	97ffe8d1 	bl	409684 <nop_>
  40f344:	aa0b03fe 	mov	x30, x11
  40f348:	ad8804c0 	stp	q0, q1, [x6,#256]!
  40f34c:	adc80440 	ldp	q0, q1, [x2,#256]!
  40f350:	ad8804c0 	stp	q0, q1, [x6,#256]!
  40f354:	adc80440 	ldp	q0, q1, [x2,#256]!
  40f358:	adc80440 	ldp	q0, q1, [x2,#256]!
  40f35c:	ad8804c0 	stp	q0, q1, [x6,#256]!
  40f360:	aa1e03eb 	mov	x11, x30
  40f364:	97ffe8c8 	bl	409684 <nop_>
  40f368:	aa0b03fe 	mov	x30, x11
  40f36c:	adc80440 	ldp	q0, q1, [x2,#256]!
  40f370:	ad8804c0 	stp	q0, q1, [x6,#256]!
  40f374:	adc80440 	ldp	q0, q1, [x2,#256]!
  40f378:	adc80440 	ldp	q0, q1, [x2,#256]!
  40f37c:	adc80440 	ldp	q0, q1, [x2,#256]!
  40f380:	ad8804c0 	stp	q0, q1, [x6,#256]!
  40f384:	aa1e03eb 	mov	x11, x30
  40f388:	97ffe8bf 	bl	409684 <nop_>
  40f38c:	aa0b03fe 	mov	x30, x11
  40f390:	adc80440 	ldp	q0, q1, [x2,#256]!
  40f394:	ad8804c0 	stp	q0, q1, [x6,#256]!
  40f398:	adc80440 	ldp	q0, q1, [x2,#256]!
  40f39c:	adc80440 	ldp	q0, q1, [x2,#256]!
  40f3a0:	ad8804c0 	stp	q0, q1, [x6,#256]!
  40f3a4:	adc80440 	ldp	q0, q1, [x2,#256]!
  40f3a8:	aa1e03eb 	mov	x11, x30
  40f3ac:	97ffe8b6 	bl	409684 <nop_>
  40f3b0:	aa0b03fe 	mov	x30, x11
  40f3b4:	adc80440 	ldp	q0, q1, [x2,#256]!
  40f3b8:	ad8804c0 	stp	q0, q1, [x6,#256]!
  40f3bc:	adc80440 	ldp	q0, q1, [x2,#256]!
  40f3c0:	ad8804c0 	stp	q0, q1, [x6,#256]!
  40f3c4:	adc80440 	ldp	q0, q1, [x2,#256]!
  40f3c8:	ad8804c0 	stp	q0, q1, [x6,#256]!
  40f3cc:	aa1e03eb 	mov	x11, x30
  40f3d0:	97ffe8ad 	bl	409684 <nop_>
  40f3d4:	aa0b03fe 	mov	x30, x11
  40f3d8:	adc80440 	ldp	q0, q1, [x2,#256]!
  40f3dc:	adc80440 	ldp	q0, q1, [x2,#256]!
  40f3e0:	ad8804c0 	stp	q0, q1, [x6,#256]!
  40f3e4:	adc80440 	ldp	q0, q1, [x2,#256]!
  40f3e8:	adc80440 	ldp	q0, q1, [x2,#256]!
  40f3ec:	ad8804c0 	stp	q0, q1, [x6,#256]!
  40f3f0:	aa1e03eb 	mov	x11, x30
  40f3f4:	97ffe8a4 	bl	409684 <nop_>
  40f3f8:	aa0b03fe 	mov	x30, x11
  40f3fc:	ad8804c0 	stp	q0, q1, [x6,#256]!
  40f400:	adc80440 	ldp	q0, q1, [x2,#256]!
  40f404:	adc80440 	ldp	q0, q1, [x2,#256]!
  40f408:	ad8804c0 	stp	q0, q1, [x6,#256]!
  40f40c:	adc80440 	ldp	q0, q1, [x2,#256]!
  40f410:	ad8804c0 	stp	q0, q1, [x6,#256]!
  40f414:	aa1e03eb 	mov	x11, x30
  40f418:	97ffe89b 	bl	409684 <nop_>
  40f41c:	aa0b03fe 	mov	x30, x11
  40f420:	ad8804c0 	stp	q0, q1, [x6,#256]!
  40f424:	adc80440 	ldp	q0, q1, [x2,#256]!
  40f428:	ad8804c0 	stp	q0, q1, [x6,#256]!
  40f42c:	adc80440 	ldp	q0, q1, [x2,#256]!
  40f430:	adc80440 	ldp	q0, q1, [x2,#256]!
  40f434:	ad8804c0 	stp	q0, q1, [x6,#256]!
  40f438:	aa1e03eb 	mov	x11, x30
  40f43c:	97ffe892 	bl	409684 <nop_>
  40f440:	aa0b03fe 	mov	x30, x11
  40f444:	ad8804c0 	stp	q0, q1, [x6,#256]!
  40f448:	adc80440 	ldp	q0, q1, [x2,#256]!
  40f44c:	adc80440 	ldp	q0, q1, [x2,#256]!
  40f450:	ad8804c0 	stp	q0, q1, [x6,#256]!
  40f454:	adc80440 	ldp	q0, q1, [x2,#256]!
  40f458:	ad8804c0 	stp	q0, q1, [x6,#256]!
  40f45c:	aa1e03eb 	mov	x11, x30
  40f460:	97ffe889 	bl	409684 <nop_>
  40f464:	aa0b03fe 	mov	x30, x11
  40f468:	ad8804c0 	stp	q0, q1, [x6,#256]!
  40f46c:	adc80440 	ldp	q0, q1, [x2,#256]!
  40f470:	adc80440 	ldp	q0, q1, [x2,#256]!
  40f474:	ad8804c0 	stp	q0, q1, [x6,#256]!
  40f478:	adc80440 	ldp	q0, q1, [x2,#256]!
  40f47c:	adc80440 	ldp	q0, q1, [x2,#256]!
  40f480:	aa1e03eb 	mov	x11, x30
  40f484:	97ffe880 	bl	409684 <nop_>
  40f488:	aa0b03fe 	mov	x30, x11
  40f48c:	adc80440 	ldp	q0, q1, [x2,#256]!
  40f490:	ad8804c0 	stp	q0, q1, [x6,#256]!
  40f494:	adc80440 	ldp	q0, q1, [x2,#256]!
  40f498:	ad8804c0 	stp	q0, q1, [x6,#256]!
  40f49c:	adc80440 	ldp	q0, q1, [x2,#256]!
  40f4a0:	ad8804c0 	stp	q0, q1, [x6,#256]!
  40f4a4:	aa1e03eb 	mov	x11, x30
  40f4a8:	97ffe877 	bl	409684 <nop_>
  40f4ac:	aa0b03fe 	mov	x30, x11
  40f4b0:	ad8804c0 	stp	q0, q1, [x6,#256]!
  40f4b4:	adc80440 	ldp	q0, q1, [x2,#256]!
  40f4b8:	adc80440 	ldp	q0, q1, [x2,#256]!
  40f4bc:	ad8804c0 	stp	q0, q1, [x6,#256]!
  40f4c0:	aa1e03eb 	mov	x11, x30
  40f4c4:	97ffe870 	bl	409684 <nop_>
  40f4c8:	aa0b03fe 	mov	x30, x11
  40f4cc:	91320021 	add	x1, x1, #0xc80
  40f4d0:	eb03003f 	cmp	x1, x3
  40f4d4:	540236ad 	b.le	413ba8 <_Z15STREAM_copy_100PdS_PlPKi+0xe0>
  40f4d8:	d503201f 	nop
  40f4dc:	a8c37bfd 	ldp	x29, x30, [sp],#48
  40f4e0:	d65f03c0 	ret

000000000040f4e4 <_Z14STREAM_copy_58PdS_PlPKi>:
  40f4e4:	a9bd7bfd 	stp	x29, x30, [sp,#-48]!
  40f4e8:	910003fd 	mov	x29, sp
  40f4ec:	f90017e0 	str	x0, [sp,#40]
  40f4f0:	f90013e1 	str	x1, [sp,#32]
  40f4f4:	f9000fe2 	str	x2, [sp,#24]
  40f4f8:	f9000be3 	str	x3, [sp,#16]
  40f4fc:	d2800000 	mov	x0, #0x0                   	// #0
  40f500:	d0000040 	adrp	x0, 419000 <_IO_stdin_used+0x8>
  40f504:	91008001 	add	x1, x0, #0x20
  40f508:	f00000e0 	adrp	x0, 42e000 <_Znam@GLIBCXX_3.4>
  40f50c:	91286000 	add	x0, x0, #0xa18
  40f510:	97ffe678 	bl	408ef0 <_ZStlsISt11char_traitsIcEERSt13basic_ostreamIcT_ES5_PKc@plt>
  40f514:	aa0003e2 	mov	x2, x0
  40f518:	f9400be0 	ldr	x0, [sp,#16]
  40f51c:	b9400000 	ldr	w0, [x0]
  40f520:	2a0003e1 	mov	w1, w0
  40f524:	aa0203e0 	mov	x0, x2
  40f528:	97ffe7a6 	bl	4093c0 <_ZNSolsEi@plt>
  40f52c:	aa0003e2 	mov	x2, x0
  40f530:	d0000040 	adrp	x0, 419000 <_IO_stdin_used+0x8>
  40f534:	9100c001 	add	x1, x0, #0x30
  40f538:	aa0203e0 	mov	x0, x2
  40f53c:	97ffe66d 	bl	408ef0 <_ZStlsISt11char_traitsIcEERSt13basic_ostreamIcT_ES5_PKc@plt>
  40f540:	f94017e1 	ldr	x1, [sp,#40]
  40f544:	97ffe60f 	bl	408d80 <_ZNSolsEPKv@plt>
  40f548:	aa0003e2 	mov	x2, x0
  40f54c:	d0000040 	adrp	x0, 419000 <_IO_stdin_used+0x8>
  40f550:	91010001 	add	x1, x0, #0x40
  40f554:	aa0203e0 	mov	x0, x2
  40f558:	97ffe666 	bl	408ef0 <_ZStlsISt11char_traitsIcEERSt13basic_ostreamIcT_ES5_PKc@plt>
  40f55c:	f94013e1 	ldr	x1, [sp,#32]
  40f560:	97ffe608 	bl	408d80 <_ZNSolsEPKv@plt>
  40f564:	aa0003e2 	mov	x2, x0
  40f568:	d0000040 	adrp	x0, 419000 <_IO_stdin_used+0x8>
  40f56c:	91014001 	add	x1, x0, #0x50
  40f570:	aa0203e0 	mov	x0, x2
  40f574:	97ffe65f 	bl	408ef0 <_ZStlsISt11char_traitsIcEERSt13basic_ostreamIcT_ES5_PKc@plt>
  40f578:	aa0003e2 	mov	x2, x0
  40f57c:	f9400fe0 	ldr	x0, [sp,#24]
  40f580:	f9400000 	ldr	x0, [x0]
  40f584:	aa0003e1 	mov	x1, x0
  40f588:	aa0203e0 	mov	x0, x2
  40f58c:	97ffe7ad 	bl	409440 <_ZNSolsEl@plt>
  40f590:	aa0003e2 	mov	x2, x0
  40f594:	b0ffffc0 	adrp	x0, 408000 <_init-0x970>
  40f598:	912ec001 	add	x1, x0, #0xbb0
  40f59c:	aa0203e0 	mov	x0, x2
  40f5a0:	97ffe668 	bl	408f40 <_ZNSolsEPFRSoS_E@plt>
  40f5a4:	f9400fe1 	ldr	x1, [sp,#24]
  40f5a8:	f9400023 	ldr	x3, [x1]
  40f5ac:	f9400be1 	ldr	x1, [sp,#16]
  40f5b0:	b9400025 	ldr	w5, [x1]
  40f5b4:	f94017e2 	ldr	x2, [sp,#40]
  40f5b8:	f94013e6 	ldr	x6, [sp,#32]
  40f5bc:	d2800001 	mov	x1, #0x0                   	// #0
  40f5c0:	aa0503e4 	mov	x4, x5
  40f5c4:	adc80440 	ldp	q0, q1, [x2,#256]!
  40f5c8:	ad8804c0 	stp	q0, q1, [x6,#256]!
  40f5cc:	adc80440 	ldp	q0, q1, [x2,#256]!
  40f5d0:	ad8804c0 	stp	q0, q1, [x6,#256]!
  40f5d4:	adc80440 	ldp	q0, q1, [x2,#256]!
  40f5d8:	ad8804c0 	stp	q0, q1, [x6,#256]!
  40f5dc:	aa1e03eb 	mov	x11, x30
  40f5e0:	97ffe829 	bl	409684 <nop_>
  40f5e4:	aa0b03fe 	mov	x30, x11
  40f5e8:	ad8804c0 	stp	q0, q1, [x6,#256]!
  40f5ec:	adc80440 	ldp	q0, q1, [x2,#256]!
  40f5f0:	adc80440 	ldp	q0, q1, [x2,#256]!
  40f5f4:	adc80440 	ldp	q0, q1, [x2,#256]!
  40f5f8:	ad8804c0 	stp	q0, q1, [x6,#256]!
  40f5fc:	adc80440 	ldp	q0, q1, [x2,#256]!
  40f600:	aa1e03eb 	mov	x11, x30
  40f604:	97ffe820 	bl	409684 <nop_>
  40f608:	aa0b03fe 	mov	x30, x11
  40f60c:	adc80440 	ldp	q0, q1, [x2,#256]!
  40f610:	ad8804c0 	stp	q0, q1, [x6,#256]!
  40f614:	adc80440 	ldp	q0, q1, [x2,#256]!
  40f618:	ad8804c0 	stp	q0, q1, [x6,#256]!
  40f61c:	adc80440 	ldp	q0, q1, [x2,#256]!
  40f620:	adc80440 	ldp	q0, q1, [x2,#256]!
  40f624:	aa1e03eb 	mov	x11, x30
  40f628:	97ffe817 	bl	409684 <nop_>
  40f62c:	aa0b03fe 	mov	x30, x11
  40f630:	ad8804c0 	stp	q0, q1, [x6,#256]!
  40f634:	adc80440 	ldp	q0, q1, [x2,#256]!
  40f638:	adc80440 	ldp	q0, q1, [x2,#256]!
  40f63c:	ad8804c0 	stp	q0, q1, [x6,#256]!
  40f640:	adc80440 	ldp	q0, q1, [x2,#256]!
  40f644:	ad8804c0 	stp	q0, q1, [x6,#256]!
  40f648:	aa1e03eb 	mov	x11, x30
  40f64c:	97ffe80e 	bl	409684 <nop_>
  40f650:	aa0b03fe 	mov	x30, x11
  40f654:	ad8804c0 	stp	q0, q1, [x6,#256]!
  40f658:	adc80440 	ldp	q0, q1, [x2,#256]!
  40f65c:	adc80440 	ldp	q0, q1, [x2,#256]!
  40f660:	ad8804c0 	stp	q0, q1, [x6,#256]!
  40f664:	adc80440 	ldp	q0, q1, [x2,#256]!
  40f668:	ad8804c0 	stp	q0, q1, [x6,#256]!
  40f66c:	aa1e03eb 	mov	x11, x30
  40f670:	97ffe805 	bl	409684 <nop_>
  40f674:	aa0b03fe 	mov	x30, x11
  40f678:	adc80440 	ldp	q0, q1, [x2,#256]!
  40f67c:	ad8804c0 	stp	q0, q1, [x6,#256]!
  40f680:	adc80440 	ldp	q0, q1, [x2,#256]!
  40f684:	ad8804c0 	stp	q0, q1, [x6,#256]!
  40f688:	adc80440 	ldp	q0, q1, [x2,#256]!
  40f68c:	adc80440 	ldp	q0, q1, [x2,#256]!
  40f690:	aa1e03eb 	mov	x11, x30
  40f694:	97ffe7fc 	bl	409684 <nop_>
  40f698:	aa0b03fe 	mov	x30, x11
  40f69c:	ad8804c0 	stp	q0, q1, [x6,#256]!
  40f6a0:	adc80440 	ldp	q0, q1, [x2,#256]!
  40f6a4:	ad8804c0 	stp	q0, q1, [x6,#256]!
  40f6a8:	adc80440 	ldp	q0, q1, [x2,#256]!
  40f6ac:	adc80440 	ldp	q0, q1, [x2,#256]!
  40f6b0:	ad8804c0 	stp	q0, q1, [x6,#256]!
  40f6b4:	aa1e03eb 	mov	x11, x30
  40f6b8:	97ffe7f3 	bl	409684 <nop_>
  40f6bc:	aa0b03fe 	mov	x30, x11
  40f6c0:	adc80440 	ldp	q0, q1, [x2,#256]!
  40f6c4:	ad8804c0 	stp	q0, q1, [x6,#256]!
  40f6c8:	adc80440 	ldp	q0, q1, [x2,#256]!
  40f6cc:	adc80440 	ldp	q0, q1, [x2,#256]!
  40f6d0:	adc80440 	ldp	q0, q1, [x2,#256]!
  40f6d4:	ad8804c0 	stp	q0, q1, [x6,#256]!
  40f6d8:	aa1e03eb 	mov	x11, x30
  40f6dc:	97ffe7ea 	bl	409684 <nop_>
  40f6e0:	aa0b03fe 	mov	x30, x11
  40f6e4:	adc80440 	ldp	q0, q1, [x2,#256]!
  40f6e8:	ad8804c0 	stp	q0, q1, [x6,#256]!
  40f6ec:	adc80440 	ldp	q0, q1, [x2,#256]!
  40f6f0:	adc80440 	ldp	q0, q1, [x2,#256]!
  40f6f4:	ad8804c0 	stp	q0, q1, [x6,#256]!
  40f6f8:	adc80440 	ldp	q0, q1, [x2,#256]!
  40f6fc:	aa1e03eb 	mov	x11, x30
  40f700:	97ffe7e1 	bl	409684 <nop_>
  40f704:	aa0b03fe 	mov	x30, x11
  40f708:	adc80440 	ldp	q0, q1, [x2,#256]!
  40f70c:	ad8804c0 	stp	q0, q1, [x6,#256]!
  40f710:	adc80440 	ldp	q0, q1, [x2,#256]!
  40f714:	ad8804c0 	stp	q0, q1, [x6,#256]!
  40f718:	adc80440 	ldp	q0, q1, [x2,#256]!
  40f71c:	ad8804c0 	stp	q0, q1, [x6,#256]!
  40f720:	aa1e03eb 	mov	x11, x30
  40f724:	97ffe7d8 	bl	409684 <nop_>
  40f728:	aa0b03fe 	mov	x30, x11
  40f72c:	adc80440 	ldp	q0, q1, [x2,#256]!
  40f730:	adc80440 	ldp	q0, q1, [x2,#256]!
  40f734:	ad8804c0 	stp	q0, q1, [x6,#256]!
  40f738:	adc80440 	ldp	q0, q1, [x2,#256]!
  40f73c:	adc80440 	ldp	q0, q1, [x2,#256]!
  40f740:	ad8804c0 	stp	q0, q1, [x6,#256]!
  40f744:	aa1e03eb 	mov	x11, x30
  40f748:	97ffe7cf 	bl	409684 <nop_>
  40f74c:	aa0b03fe 	mov	x30, x11
  40f750:	ad8804c0 	stp	q0, q1, [x6,#256]!
  40f754:	adc80440 	ldp	q0, q1, [x2,#256]!
  40f758:	adc80440 	ldp	q0, q1, [x2,#256]!
  40f75c:	ad8804c0 	stp	q0, q1, [x6,#256]!
  40f760:	adc80440 	ldp	q0, q1, [x2,#256]!
  40f764:	ad8804c0 	stp	q0, q1, [x6,#256]!
  40f768:	aa1e03eb 	mov	x11, x30
  40f76c:	97ffe7c6 	bl	409684 <nop_>
  40f770:	aa0b03fe 	mov	x30, x11
  40f774:	adc80440 	ldp	q0, q1, [x2,#256]!
  40f778:	adc80440 	ldp	q0, q1, [x2,#256]!
  40f77c:	ad8804c0 	stp	q0, q1, [x6,#256]!
  40f780:	adc80440 	ldp	q0, q1, [x2,#256]!
  40f784:	adc80440 	ldp	q0, q1, [x2,#256]!
  40f788:	ad8804c0 	stp	q0, q1, [x6,#256]!
  40f78c:	aa1e03eb 	mov	x11, x30
  40f790:	97ffe7bd 	bl	409684 <nop_>
  40f794:	aa0b03fe 	mov	x30, x11
  40f798:	ad8804c0 	stp	q0, q1, [x6,#256]!
  40f79c:	adc80440 	ldp	q0, q1, [x2,#256]!
  40f7a0:	adc80440 	ldp	q0, q1, [x2,#256]!
  40f7a4:	ad8804c0 	stp	q0, q1, [x6,#256]!
  40f7a8:	adc80440 	ldp	q0, q1, [x2,#256]!
  40f7ac:	ad8804c0 	stp	q0, q1, [x6,#256]!
  40f7b0:	aa1e03eb 	mov	x11, x30
  40f7b4:	97ffe7b4 	bl	409684 <nop_>
  40f7b8:	aa0b03fe 	mov	x30, x11
  40f7bc:	ad8804c0 	stp	q0, q1, [x6,#256]!
  40f7c0:	adc80440 	ldp	q0, q1, [x2,#256]!
  40f7c4:	adc80440 	ldp	q0, q1, [x2,#256]!
  40f7c8:	ad8804c0 	stp	q0, q1, [x6,#256]!
  40f7cc:	adc80440 	ldp	q0, q1, [x2,#256]!
  40f7d0:	adc80440 	ldp	q0, q1, [x2,#256]!
  40f7d4:	aa1e03eb 	mov	x11, x30
  40f7d8:	97ffe7ab 	bl	409684 <nop_>
  40f7dc:	aa0b03fe 	mov	x30, x11
  40f7e0:	adc80440 	ldp	q0, q1, [x2,#256]!
  40f7e4:	ad8804c0 	stp	q0, q1, [x6,#256]!
  40f7e8:	adc80440 	ldp	q0, q1, [x2,#256]!
  40f7ec:	ad8804c0 	stp	q0, q1, [x6,#256]!
  40f7f0:	adc80440 	ldp	q0, q1, [x2,#256]!
  40f7f4:	ad8804c0 	stp	q0, q1, [x6,#256]!
  40f7f8:	aa1e03eb 	mov	x11, x30
  40f7fc:	97ffe7a2 	bl	409684 <nop_>
  40f800:	aa0b03fe 	mov	x30, x11
  40f804:	ad8804c0 	stp	q0, q1, [x6,#256]!
  40f808:	adc80440 	ldp	q0, q1, [x2,#256]!
  40f80c:	adc80440 	ldp	q0, q1, [x2,#256]!
  40f810:	ad8804c0 	stp	q0, q1, [x6,#256]!
  40f814:	aa1e03eb 	mov	x11, x30
  40f818:	97ffe79b 	bl	409684 <nop_>
  40f81c:	aa0b03fe 	mov	x30, x11
  40f820:	91320021 	add	x1, x1, #0xc80
  40f824:	eb03003f 	cmp	x1, x3
  40f828:	54021c0d 	b.le	413ba8 <_Z15STREAM_copy_100PdS_PlPKi+0xe0>
  40f82c:	d503201f 	nop
  40f830:	a8c37bfd 	ldp	x29, x30, [sp],#48
  40f834:	d65f03c0 	ret

000000000040f838 <_Z14STREAM_copy_60PdS_PlPKi>:
  40f838:	a9bd7bfd 	stp	x29, x30, [sp,#-48]!
  40f83c:	910003fd 	mov	x29, sp
  40f840:	f90017e0 	str	x0, [sp,#40]
  40f844:	f90013e1 	str	x1, [sp,#32]
  40f848:	f9000fe2 	str	x2, [sp,#24]
  40f84c:	f9000be3 	str	x3, [sp,#16]
  40f850:	d2800000 	mov	x0, #0x0                   	// #0
  40f854:	d0000040 	adrp	x0, 419000 <_IO_stdin_used+0x8>
  40f858:	91008001 	add	x1, x0, #0x20
  40f85c:	f00000e0 	adrp	x0, 42e000 <_Znam@GLIBCXX_3.4>
  40f860:	91286000 	add	x0, x0, #0xa18
  40f864:	97ffe5a3 	bl	408ef0 <_ZStlsISt11char_traitsIcEERSt13basic_ostreamIcT_ES5_PKc@plt>
  40f868:	aa0003e2 	mov	x2, x0
  40f86c:	f9400be0 	ldr	x0, [sp,#16]
  40f870:	b9400000 	ldr	w0, [x0]
  40f874:	2a0003e1 	mov	w1, w0
  40f878:	aa0203e0 	mov	x0, x2
  40f87c:	97ffe6d1 	bl	4093c0 <_ZNSolsEi@plt>
  40f880:	aa0003e2 	mov	x2, x0
  40f884:	d0000040 	adrp	x0, 419000 <_IO_stdin_used+0x8>
  40f888:	9100c001 	add	x1, x0, #0x30
  40f88c:	aa0203e0 	mov	x0, x2
  40f890:	97ffe598 	bl	408ef0 <_ZStlsISt11char_traitsIcEERSt13basic_ostreamIcT_ES5_PKc@plt>
  40f894:	f94017e1 	ldr	x1, [sp,#40]
  40f898:	97ffe53a 	bl	408d80 <_ZNSolsEPKv@plt>
  40f89c:	aa0003e2 	mov	x2, x0
  40f8a0:	d0000040 	adrp	x0, 419000 <_IO_stdin_used+0x8>
  40f8a4:	91010001 	add	x1, x0, #0x40
  40f8a8:	aa0203e0 	mov	x0, x2
  40f8ac:	97ffe591 	bl	408ef0 <_ZStlsISt11char_traitsIcEERSt13basic_ostreamIcT_ES5_PKc@plt>
  40f8b0:	f94013e1 	ldr	x1, [sp,#32]
  40f8b4:	97ffe533 	bl	408d80 <_ZNSolsEPKv@plt>
  40f8b8:	aa0003e2 	mov	x2, x0
  40f8bc:	d0000040 	adrp	x0, 419000 <_IO_stdin_used+0x8>
  40f8c0:	91014001 	add	x1, x0, #0x50
  40f8c4:	aa0203e0 	mov	x0, x2
  40f8c8:	97ffe58a 	bl	408ef0 <_ZStlsISt11char_traitsIcEERSt13basic_ostreamIcT_ES5_PKc@plt>
  40f8cc:	aa0003e2 	mov	x2, x0
  40f8d0:	f9400fe0 	ldr	x0, [sp,#24]
  40f8d4:	f9400000 	ldr	x0, [x0]
  40f8d8:	aa0003e1 	mov	x1, x0
  40f8dc:	aa0203e0 	mov	x0, x2
  40f8e0:	97ffe6d8 	bl	409440 <_ZNSolsEl@plt>
  40f8e4:	aa0003e2 	mov	x2, x0
  40f8e8:	b0ffffc0 	adrp	x0, 408000 <_init-0x970>
  40f8ec:	912ec001 	add	x1, x0, #0xbb0
  40f8f0:	aa0203e0 	mov	x0, x2
  40f8f4:	97ffe593 	bl	408f40 <_ZNSolsEPFRSoS_E@plt>
  40f8f8:	f9400fe1 	ldr	x1, [sp,#24]
  40f8fc:	f9400023 	ldr	x3, [x1]
  40f900:	f9400be1 	ldr	x1, [sp,#16]
  40f904:	b9400025 	ldr	w5, [x1]
  40f908:	f94017e2 	ldr	x2, [sp,#40]
  40f90c:	f94013e6 	ldr	x6, [sp,#32]
  40f910:	d2800001 	mov	x1, #0x0                   	// #0
  40f914:	aa0503e4 	mov	x4, x5
  40f918:	adc80440 	ldp	q0, q1, [x2,#256]!
  40f91c:	ad8804c0 	stp	q0, q1, [x6,#256]!
  40f920:	adc80440 	ldp	q0, q1, [x2,#256]!
  40f924:	ad8804c0 	stp	q0, q1, [x6,#256]!
  40f928:	adc80440 	ldp	q0, q1, [x2,#256]!
  40f92c:	ad8804c0 	stp	q0, q1, [x6,#256]!
  40f930:	aa1e03eb 	mov	x11, x30
  40f934:	97ffe754 	bl	409684 <nop_>
  40f938:	aa0b03fe 	mov	x30, x11
  40f93c:	ad8804c0 	stp	q0, q1, [x6,#256]!
  40f940:	adc80440 	ldp	q0, q1, [x2,#256]!
  40f944:	adc80440 	ldp	q0, q1, [x2,#256]!
  40f948:	adc80440 	ldp	q0, q1, [x2,#256]!
  40f94c:	ad8804c0 	stp	q0, q1, [x6,#256]!
  40f950:	adc80440 	ldp	q0, q1, [x2,#256]!
  40f954:	aa1e03eb 	mov	x11, x30
  40f958:	97ffe74b 	bl	409684 <nop_>
  40f95c:	aa0b03fe 	mov	x30, x11
  40f960:	adc80440 	ldp	q0, q1, [x2,#256]!
  40f964:	ad8804c0 	stp	q0, q1, [x6,#256]!
  40f968:	adc80440 	ldp	q0, q1, [x2,#256]!
  40f96c:	ad8804c0 	stp	q0, q1, [x6,#256]!
  40f970:	adc80440 	ldp	q0, q1, [x2,#256]!
  40f974:	adc80440 	ldp	q0, q1, [x2,#256]!
  40f978:	aa1e03eb 	mov	x11, x30
  40f97c:	97ffe742 	bl	409684 <nop_>
  40f980:	aa0b03fe 	mov	x30, x11
  40f984:	ad8804c0 	stp	q0, q1, [x6,#256]!
  40f988:	adc80440 	ldp	q0, q1, [x2,#256]!
  40f98c:	adc80440 	ldp	q0, q1, [x2,#256]!
  40f990:	ad8804c0 	stp	q0, q1, [x6,#256]!
  40f994:	adc80440 	ldp	q0, q1, [x2,#256]!
  40f998:	ad8804c0 	stp	q0, q1, [x6,#256]!
  40f99c:	aa1e03eb 	mov	x11, x30
  40f9a0:	97ffe739 	bl	409684 <nop_>
  40f9a4:	aa0b03fe 	mov	x30, x11
  40f9a8:	ad8804c0 	stp	q0, q1, [x6,#256]!
  40f9ac:	adc80440 	ldp	q0, q1, [x2,#256]!
  40f9b0:	adc80440 	ldp	q0, q1, [x2,#256]!
  40f9b4:	ad8804c0 	stp	q0, q1, [x6,#256]!
  40f9b8:	adc80440 	ldp	q0, q1, [x2,#256]!
  40f9bc:	ad8804c0 	stp	q0, q1, [x6,#256]!
  40f9c0:	aa1e03eb 	mov	x11, x30
  40f9c4:	97ffe730 	bl	409684 <nop_>
  40f9c8:	aa0b03fe 	mov	x30, x11
  40f9cc:	adc80440 	ldp	q0, q1, [x2,#256]!
  40f9d0:	ad8804c0 	stp	q0, q1, [x6,#256]!
  40f9d4:	adc80440 	ldp	q0, q1, [x2,#256]!
  40f9d8:	ad8804c0 	stp	q0, q1, [x6,#256]!
  40f9dc:	adc80440 	ldp	q0, q1, [x2,#256]!
  40f9e0:	adc80440 	ldp	q0, q1, [x2,#256]!
  40f9e4:	aa1e03eb 	mov	x11, x30
  40f9e8:	97ffe727 	bl	409684 <nop_>
  40f9ec:	aa0b03fe 	mov	x30, x11
  40f9f0:	adc80440 	ldp	q0, q1, [x2,#256]!
  40f9f4:	adc80440 	ldp	q0, q1, [x2,#256]!
  40f9f8:	ad8804c0 	stp	q0, q1, [x6,#256]!
  40f9fc:	adc80440 	ldp	q0, q1, [x2,#256]!
  40fa00:	adc80440 	ldp	q0, q1, [x2,#256]!
  40fa04:	ad8804c0 	stp	q0, q1, [x6,#256]!
  40fa08:	aa1e03eb 	mov	x11, x30
  40fa0c:	97ffe71e 	bl	409684 <nop_>
  40fa10:	aa0b03fe 	mov	x30, x11
  40fa14:	adc80440 	ldp	q0, q1, [x2,#256]!
  40fa18:	ad8804c0 	stp	q0, q1, [x6,#256]!
  40fa1c:	adc80440 	ldp	q0, q1, [x2,#256]!
  40fa20:	adc80440 	ldp	q0, q1, [x2,#256]!
  40fa24:	adc80440 	ldp	q0, q1, [x2,#256]!
  40fa28:	ad8804c0 	stp	q0, q1, [x6,#256]!
  40fa2c:	aa1e03eb 	mov	x11, x30
  40fa30:	97ffe715 	bl	409684 <nop_>
  40fa34:	aa0b03fe 	mov	x30, x11
  40fa38:	adc80440 	ldp	q0, q1, [x2,#256]!
  40fa3c:	ad8804c0 	stp	q0, q1, [x6,#256]!
  40fa40:	adc80440 	ldp	q0, q1, [x2,#256]!
  40fa44:	adc80440 	ldp	q0, q1, [x2,#256]!
  40fa48:	ad8804c0 	stp	q0, q1, [x6,#256]!
  40fa4c:	adc80440 	ldp	q0, q1, [x2,#256]!
  40fa50:	aa1e03eb 	mov	x11, x30
  40fa54:	97ffe70c 	bl	409684 <nop_>
  40fa58:	aa0b03fe 	mov	x30, x11
  40fa5c:	adc80440 	ldp	q0, q1, [x2,#256]!
  40fa60:	ad8804c0 	stp	q0, q1, [x6,#256]!
  40fa64:	adc80440 	ldp	q0, q1, [x2,#256]!
  40fa68:	ad8804c0 	stp	q0, q1, [x6,#256]!
  40fa6c:	adc80440 	ldp	q0, q1, [x2,#256]!
  40fa70:	ad8804c0 	stp	q0, q1, [x6,#256]!
  40fa74:	aa1e03eb 	mov	x11, x30
  40fa78:	97ffe703 	bl	409684 <nop_>
  40fa7c:	aa0b03fe 	mov	x30, x11
  40fa80:	adc80440 	ldp	q0, q1, [x2,#256]!
  40fa84:	adc80440 	ldp	q0, q1, [x2,#256]!
  40fa88:	ad8804c0 	stp	q0, q1, [x6,#256]!
  40fa8c:	adc80440 	ldp	q0, q1, [x2,#256]!
  40fa90:	adc80440 	ldp	q0, q1, [x2,#256]!
  40fa94:	ad8804c0 	stp	q0, q1, [x6,#256]!
  40fa98:	aa1e03eb 	mov	x11, x30
  40fa9c:	97ffe6fa 	bl	409684 <nop_>
  40faa0:	aa0b03fe 	mov	x30, x11
  40faa4:	ad8804c0 	stp	q0, q1, [x6,#256]!
  40faa8:	adc80440 	ldp	q0, q1, [x2,#256]!
  40faac:	adc80440 	ldp	q0, q1, [x2,#256]!
  40fab0:	ad8804c0 	stp	q0, q1, [x6,#256]!
  40fab4:	adc80440 	ldp	q0, q1, [x2,#256]!
  40fab8:	ad8804c0 	stp	q0, q1, [x6,#256]!
  40fabc:	aa1e03eb 	mov	x11, x30
  40fac0:	97ffe6f1 	bl	409684 <nop_>
  40fac4:	aa0b03fe 	mov	x30, x11
  40fac8:	adc80440 	ldp	q0, q1, [x2,#256]!
  40facc:	adc80440 	ldp	q0, q1, [x2,#256]!
  40fad0:	ad8804c0 	stp	q0, q1, [x6,#256]!
  40fad4:	adc80440 	ldp	q0, q1, [x2,#256]!
  40fad8:	adc80440 	ldp	q0, q1, [x2,#256]!
  40fadc:	ad8804c0 	stp	q0, q1, [x6,#256]!
  40fae0:	aa1e03eb 	mov	x11, x30
  40fae4:	97ffe6e8 	bl	409684 <nop_>
  40fae8:	aa0b03fe 	mov	x30, x11
  40faec:	ad8804c0 	stp	q0, q1, [x6,#256]!
  40faf0:	adc80440 	ldp	q0, q1, [x2,#256]!
  40faf4:	adc80440 	ldp	q0, q1, [x2,#256]!
  40faf8:	ad8804c0 	stp	q0, q1, [x6,#256]!
  40fafc:	adc80440 	ldp	q0, q1, [x2,#256]!
  40fb00:	adc80440 	ldp	q0, q1, [x2,#256]!
  40fb04:	aa1e03eb 	mov	x11, x30
  40fb08:	97ffe6df 	bl	409684 <nop_>
  40fb0c:	aa0b03fe 	mov	x30, x11
  40fb10:	ad8804c0 	stp	q0, q1, [x6,#256]!
  40fb14:	adc80440 	ldp	q0, q1, [x2,#256]!
  40fb18:	adc80440 	ldp	q0, q1, [x2,#256]!
  40fb1c:	ad8804c0 	stp	q0, q1, [x6,#256]!
  40fb20:	adc80440 	ldp	q0, q1, [x2,#256]!
  40fb24:	adc80440 	ldp	q0, q1, [x2,#256]!
  40fb28:	aa1e03eb 	mov	x11, x30
  40fb2c:	97ffe6d6 	bl	409684 <nop_>
  40fb30:	aa0b03fe 	mov	x30, x11
  40fb34:	adc80440 	ldp	q0, q1, [x2,#256]!
  40fb38:	ad8804c0 	stp	q0, q1, [x6,#256]!
  40fb3c:	adc80440 	ldp	q0, q1, [x2,#256]!
  40fb40:	ad8804c0 	stp	q0, q1, [x6,#256]!
  40fb44:	adc80440 	ldp	q0, q1, [x2,#256]!
  40fb48:	ad8804c0 	stp	q0, q1, [x6,#256]!
  40fb4c:	aa1e03eb 	mov	x11, x30
  40fb50:	97ffe6cd 	bl	409684 <nop_>
  40fb54:	aa0b03fe 	mov	x30, x11
  40fb58:	ad8804c0 	stp	q0, q1, [x6,#256]!
  40fb5c:	adc80440 	ldp	q0, q1, [x2,#256]!
  40fb60:	adc80440 	ldp	q0, q1, [x2,#256]!
  40fb64:	ad8804c0 	stp	q0, q1, [x6,#256]!
  40fb68:	aa1e03eb 	mov	x11, x30
  40fb6c:	97ffe6c6 	bl	409684 <nop_>
  40fb70:	aa0b03fe 	mov	x30, x11
  40fb74:	91320021 	add	x1, x1, #0xc80
  40fb78:	eb03003f 	cmp	x1, x3
  40fb7c:	5402016d 	b.le	413ba8 <_Z15STREAM_copy_100PdS_PlPKi+0xe0>
  40fb80:	d503201f 	nop
  40fb84:	a8c37bfd 	ldp	x29, x30, [sp],#48
  40fb88:	d65f03c0 	ret

000000000040fb8c <_Z14STREAM_copy_62PdS_PlPKi>:
  40fb8c:	a9bd7bfd 	stp	x29, x30, [sp,#-48]!
  40fb90:	910003fd 	mov	x29, sp
  40fb94:	f90017e0 	str	x0, [sp,#40]
  40fb98:	f90013e1 	str	x1, [sp,#32]
  40fb9c:	f9000fe2 	str	x2, [sp,#24]
  40fba0:	f9000be3 	str	x3, [sp,#16]
  40fba4:	d2800000 	mov	x0, #0x0                   	// #0
  40fba8:	d0000040 	adrp	x0, 419000 <_IO_stdin_used+0x8>
  40fbac:	91008001 	add	x1, x0, #0x20
  40fbb0:	f00000e0 	adrp	x0, 42e000 <_Znam@GLIBCXX_3.4>
  40fbb4:	91286000 	add	x0, x0, #0xa18
  40fbb8:	97ffe4ce 	bl	408ef0 <_ZStlsISt11char_traitsIcEERSt13basic_ostreamIcT_ES5_PKc@plt>
  40fbbc:	aa0003e2 	mov	x2, x0
  40fbc0:	f9400be0 	ldr	x0, [sp,#16]
  40fbc4:	b9400000 	ldr	w0, [x0]
  40fbc8:	2a0003e1 	mov	w1, w0
  40fbcc:	aa0203e0 	mov	x0, x2
  40fbd0:	97ffe5fc 	bl	4093c0 <_ZNSolsEi@plt>
  40fbd4:	aa0003e2 	mov	x2, x0
  40fbd8:	d0000040 	adrp	x0, 419000 <_IO_stdin_used+0x8>
  40fbdc:	9100c001 	add	x1, x0, #0x30
  40fbe0:	aa0203e0 	mov	x0, x2
  40fbe4:	97ffe4c3 	bl	408ef0 <_ZStlsISt11char_traitsIcEERSt13basic_ostreamIcT_ES5_PKc@plt>
  40fbe8:	f94017e1 	ldr	x1, [sp,#40]
  40fbec:	97ffe465 	bl	408d80 <_ZNSolsEPKv@plt>
  40fbf0:	aa0003e2 	mov	x2, x0
  40fbf4:	d0000040 	adrp	x0, 419000 <_IO_stdin_used+0x8>
  40fbf8:	91010001 	add	x1, x0, #0x40
  40fbfc:	aa0203e0 	mov	x0, x2
  40fc00:	97ffe4bc 	bl	408ef0 <_ZStlsISt11char_traitsIcEERSt13basic_ostreamIcT_ES5_PKc@plt>
  40fc04:	f94013e1 	ldr	x1, [sp,#32]
  40fc08:	97ffe45e 	bl	408d80 <_ZNSolsEPKv@plt>
  40fc0c:	aa0003e2 	mov	x2, x0
  40fc10:	d0000040 	adrp	x0, 419000 <_IO_stdin_used+0x8>
  40fc14:	91014001 	add	x1, x0, #0x50
  40fc18:	aa0203e0 	mov	x0, x2
  40fc1c:	97ffe4b5 	bl	408ef0 <_ZStlsISt11char_traitsIcEERSt13basic_ostreamIcT_ES5_PKc@plt>
  40fc20:	aa0003e2 	mov	x2, x0
  40fc24:	f9400fe0 	ldr	x0, [sp,#24]
  40fc28:	f9400000 	ldr	x0, [x0]
  40fc2c:	aa0003e1 	mov	x1, x0
  40fc30:	aa0203e0 	mov	x0, x2
  40fc34:	97ffe603 	bl	409440 <_ZNSolsEl@plt>
  40fc38:	aa0003e2 	mov	x2, x0
  40fc3c:	b0ffffc0 	adrp	x0, 408000 <_init-0x970>
  40fc40:	912ec001 	add	x1, x0, #0xbb0
  40fc44:	aa0203e0 	mov	x0, x2
  40fc48:	97ffe4be 	bl	408f40 <_ZNSolsEPFRSoS_E@plt>
  40fc4c:	f9400fe1 	ldr	x1, [sp,#24]
  40fc50:	f9400023 	ldr	x3, [x1]
  40fc54:	f9400be1 	ldr	x1, [sp,#16]
  40fc58:	b9400025 	ldr	w5, [x1]
  40fc5c:	f94017e2 	ldr	x2, [sp,#40]
  40fc60:	f94013e6 	ldr	x6, [sp,#32]
  40fc64:	d2800001 	mov	x1, #0x0                   	// #0
  40fc68:	aa0503e4 	mov	x4, x5
  40fc6c:	adc80440 	ldp	q0, q1, [x2,#256]!
  40fc70:	ad8804c0 	stp	q0, q1, [x6,#256]!
  40fc74:	adc80440 	ldp	q0, q1, [x2,#256]!
  40fc78:	ad8804c0 	stp	q0, q1, [x6,#256]!
  40fc7c:	adc80440 	ldp	q0, q1, [x2,#256]!
  40fc80:	ad8804c0 	stp	q0, q1, [x6,#256]!
  40fc84:	aa1e03eb 	mov	x11, x30
  40fc88:	97ffe67f 	bl	409684 <nop_>
  40fc8c:	aa0b03fe 	mov	x30, x11
  40fc90:	ad8804c0 	stp	q0, q1, [x6,#256]!
  40fc94:	adc80440 	ldp	q0, q1, [x2,#256]!
  40fc98:	adc80440 	ldp	q0, q1, [x2,#256]!
  40fc9c:	adc80440 	ldp	q0, q1, [x2,#256]!
  40fca0:	ad8804c0 	stp	q0, q1, [x6,#256]!
  40fca4:	adc80440 	ldp	q0, q1, [x2,#256]!
  40fca8:	aa1e03eb 	mov	x11, x30
  40fcac:	97ffe676 	bl	409684 <nop_>
  40fcb0:	aa0b03fe 	mov	x30, x11
  40fcb4:	adc80440 	ldp	q0, q1, [x2,#256]!
  40fcb8:	ad8804c0 	stp	q0, q1, [x6,#256]!
  40fcbc:	adc80440 	ldp	q0, q1, [x2,#256]!
  40fcc0:	ad8804c0 	stp	q0, q1, [x6,#256]!
  40fcc4:	adc80440 	ldp	q0, q1, [x2,#256]!
  40fcc8:	adc80440 	ldp	q0, q1, [x2,#256]!
  40fccc:	aa1e03eb 	mov	x11, x30
  40fcd0:	97ffe66d 	bl	409684 <nop_>
  40fcd4:	aa0b03fe 	mov	x30, x11
  40fcd8:	ad8804c0 	stp	q0, q1, [x6,#256]!
  40fcdc:	adc80440 	ldp	q0, q1, [x2,#256]!
  40fce0:	adc80440 	ldp	q0, q1, [x2,#256]!
  40fce4:	ad8804c0 	stp	q0, q1, [x6,#256]!
  40fce8:	adc80440 	ldp	q0, q1, [x2,#256]!
  40fcec:	ad8804c0 	stp	q0, q1, [x6,#256]!
  40fcf0:	aa1e03eb 	mov	x11, x30
  40fcf4:	97ffe664 	bl	409684 <nop_>
  40fcf8:	aa0b03fe 	mov	x30, x11
  40fcfc:	ad8804c0 	stp	q0, q1, [x6,#256]!
  40fd00:	adc80440 	ldp	q0, q1, [x2,#256]!
  40fd04:	adc80440 	ldp	q0, q1, [x2,#256]!
  40fd08:	adc80440 	ldp	q0, q1, [x2,#256]!
  40fd0c:	adc80440 	ldp	q0, q1, [x2,#256]!
  40fd10:	ad8804c0 	stp	q0, q1, [x6,#256]!
  40fd14:	aa1e03eb 	mov	x11, x30
  40fd18:	97ffe65b 	bl	409684 <nop_>
  40fd1c:	aa0b03fe 	mov	x30, x11
  40fd20:	adc80440 	ldp	q0, q1, [x2,#256]!
  40fd24:	ad8804c0 	stp	q0, q1, [x6,#256]!
  40fd28:	adc80440 	ldp	q0, q1, [x2,#256]!
  40fd2c:	ad8804c0 	stp	q0, q1, [x6,#256]!
  40fd30:	adc80440 	ldp	q0, q1, [x2,#256]!
  40fd34:	adc80440 	ldp	q0, q1, [x2,#256]!
  40fd38:	aa1e03eb 	mov	x11, x30
  40fd3c:	97ffe652 	bl	409684 <nop_>
  40fd40:	aa0b03fe 	mov	x30, x11
  40fd44:	adc80440 	ldp	q0, q1, [x2,#256]!
  40fd48:	adc80440 	ldp	q0, q1, [x2,#256]!
  40fd4c:	ad8804c0 	stp	q0, q1, [x6,#256]!
  40fd50:	adc80440 	ldp	q0, q1, [x2,#256]!
  40fd54:	adc80440 	ldp	q0, q1, [x2,#256]!
  40fd58:	ad8804c0 	stp	q0, q1, [x6,#256]!
  40fd5c:	aa1e03eb 	mov	x11, x30
  40fd60:	97ffe649 	bl	409684 <nop_>
  40fd64:	aa0b03fe 	mov	x30, x11
  40fd68:	adc80440 	ldp	q0, q1, [x2,#256]!
  40fd6c:	ad8804c0 	stp	q0, q1, [x6,#256]!
  40fd70:	adc80440 	ldp	q0, q1, [x2,#256]!
  40fd74:	adc80440 	ldp	q0, q1, [x2,#256]!
  40fd78:	adc80440 	ldp	q0, q1, [x2,#256]!
  40fd7c:	ad8804c0 	stp	q0, q1, [x6,#256]!
  40fd80:	aa1e03eb 	mov	x11, x30
  40fd84:	97ffe640 	bl	409684 <nop_>
  40fd88:	aa0b03fe 	mov	x30, x11
  40fd8c:	adc80440 	ldp	q0, q1, [x2,#256]!
  40fd90:	ad8804c0 	stp	q0, q1, [x6,#256]!
  40fd94:	adc80440 	ldp	q0, q1, [x2,#256]!
  40fd98:	adc80440 	ldp	q0, q1, [x2,#256]!
  40fd9c:	ad8804c0 	stp	q0, q1, [x6,#256]!
  40fda0:	adc80440 	ldp	q0, q1, [x2,#256]!
  40fda4:	aa1e03eb 	mov	x11, x30
  40fda8:	97ffe637 	bl	409684 <nop_>
  40fdac:	aa0b03fe 	mov	x30, x11
  40fdb0:	adc80440 	ldp	q0, q1, [x2,#256]!
  40fdb4:	ad8804c0 	stp	q0, q1, [x6,#256]!
  40fdb8:	adc80440 	ldp	q0, q1, [x2,#256]!
  40fdbc:	ad8804c0 	stp	q0, q1, [x6,#256]!
  40fdc0:	adc80440 	ldp	q0, q1, [x2,#256]!
  40fdc4:	adc80440 	ldp	q0, q1, [x2,#256]!
  40fdc8:	aa1e03eb 	mov	x11, x30
  40fdcc:	97ffe62e 	bl	409684 <nop_>
  40fdd0:	aa0b03fe 	mov	x30, x11
  40fdd4:	adc80440 	ldp	q0, q1, [x2,#256]!
  40fdd8:	adc80440 	ldp	q0, q1, [x2,#256]!
  40fddc:	ad8804c0 	stp	q0, q1, [x6,#256]!
  40fde0:	adc80440 	ldp	q0, q1, [x2,#256]!
  40fde4:	adc80440 	ldp	q0, q1, [x2,#256]!
  40fde8:	ad8804c0 	stp	q0, q1, [x6,#256]!
  40fdec:	aa1e03eb 	mov	x11, x30
  40fdf0:	97ffe625 	bl	409684 <nop_>
  40fdf4:	aa0b03fe 	mov	x30, x11
  40fdf8:	ad8804c0 	stp	q0, q1, [x6,#256]!
  40fdfc:	adc80440 	ldp	q0, q1, [x2,#256]!
  40fe00:	adc80440 	ldp	q0, q1, [x2,#256]!
  40fe04:	ad8804c0 	stp	q0, q1, [x6,#256]!
  40fe08:	adc80440 	ldp	q0, q1, [x2,#256]!
  40fe0c:	ad8804c0 	stp	q0, q1, [x6,#256]!
  40fe10:	aa1e03eb 	mov	x11, x30
  40fe14:	97ffe61c 	bl	409684 <nop_>
  40fe18:	aa0b03fe 	mov	x30, x11
  40fe1c:	adc80440 	ldp	q0, q1, [x2,#256]!
  40fe20:	adc80440 	ldp	q0, q1, [x2,#256]!
  40fe24:	ad8804c0 	stp	q0, q1, [x6,#256]!
  40fe28:	adc80440 	ldp	q0, q1, [x2,#256]!
  40fe2c:	adc80440 	ldp	q0, q1, [x2,#256]!
  40fe30:	ad8804c0 	stp	q0, q1, [x6,#256]!
  40fe34:	aa1e03eb 	mov	x11, x30
  40fe38:	97ffe613 	bl	409684 <nop_>
  40fe3c:	aa0b03fe 	mov	x30, x11
  40fe40:	ad8804c0 	stp	q0, q1, [x6,#256]!
  40fe44:	adc80440 	ldp	q0, q1, [x2,#256]!
  40fe48:	adc80440 	ldp	q0, q1, [x2,#256]!
  40fe4c:	ad8804c0 	stp	q0, q1, [x6,#256]!
  40fe50:	adc80440 	ldp	q0, q1, [x2,#256]!
  40fe54:	adc80440 	ldp	q0, q1, [x2,#256]!
  40fe58:	aa1e03eb 	mov	x11, x30
  40fe5c:	97ffe60a 	bl	409684 <nop_>
  40fe60:	aa0b03fe 	mov	x30, x11
  40fe64:	ad8804c0 	stp	q0, q1, [x6,#256]!
  40fe68:	adc80440 	ldp	q0, q1, [x2,#256]!
  40fe6c:	adc80440 	ldp	q0, q1, [x2,#256]!
  40fe70:	ad8804c0 	stp	q0, q1, [x6,#256]!
  40fe74:	adc80440 	ldp	q0, q1, [x2,#256]!
  40fe78:	adc80440 	ldp	q0, q1, [x2,#256]!
  40fe7c:	aa1e03eb 	mov	x11, x30
  40fe80:	97ffe601 	bl	409684 <nop_>
  40fe84:	aa0b03fe 	mov	x30, x11
  40fe88:	adc80440 	ldp	q0, q1, [x2,#256]!
  40fe8c:	ad8804c0 	stp	q0, q1, [x6,#256]!
  40fe90:	adc80440 	ldp	q0, q1, [x2,#256]!
  40fe94:	ad8804c0 	stp	q0, q1, [x6,#256]!
  40fe98:	adc80440 	ldp	q0, q1, [x2,#256]!
  40fe9c:	ad8804c0 	stp	q0, q1, [x6,#256]!
  40fea0:	aa1e03eb 	mov	x11, x30
  40fea4:	97ffe5f8 	bl	409684 <nop_>
  40fea8:	aa0b03fe 	mov	x30, x11
  40feac:	ad8804c0 	stp	q0, q1, [x6,#256]!
  40feb0:	adc80440 	ldp	q0, q1, [x2,#256]!
  40feb4:	adc80440 	ldp	q0, q1, [x2,#256]!
  40feb8:	ad8804c0 	stp	q0, q1, [x6,#256]!
  40febc:	aa1e03eb 	mov	x11, x30
  40fec0:	97ffe5f1 	bl	409684 <nop_>
  40fec4:	aa0b03fe 	mov	x30, x11
  40fec8:	91320021 	add	x1, x1, #0xc80
  40fecc:	eb03003f 	cmp	x1, x3
  40fed0:	5401e6cd 	b.le	413ba8 <_Z15STREAM_copy_100PdS_PlPKi+0xe0>
  40fed4:	d503201f 	nop
  40fed8:	a8c37bfd 	ldp	x29, x30, [sp],#48
  40fedc:	d65f03c0 	ret

000000000040fee0 <_Z14STREAM_copy_64PdS_PlPKi>:
  40fee0:	a9bd7bfd 	stp	x29, x30, [sp,#-48]!
  40fee4:	910003fd 	mov	x29, sp
  40fee8:	f90017e0 	str	x0, [sp,#40]
  40feec:	f90013e1 	str	x1, [sp,#32]
  40fef0:	f9000fe2 	str	x2, [sp,#24]
  40fef4:	f9000be3 	str	x3, [sp,#16]
  40fef8:	d2800000 	mov	x0, #0x0                   	// #0
  40fefc:	d0000040 	adrp	x0, 419000 <_IO_stdin_used+0x8>
  40ff00:	91008001 	add	x1, x0, #0x20
  40ff04:	f00000e0 	adrp	x0, 42e000 <_Znam@GLIBCXX_3.4>
  40ff08:	91286000 	add	x0, x0, #0xa18
  40ff0c:	97ffe3f9 	bl	408ef0 <_ZStlsISt11char_traitsIcEERSt13basic_ostreamIcT_ES5_PKc@plt>
  40ff10:	aa0003e2 	mov	x2, x0
  40ff14:	f9400be0 	ldr	x0, [sp,#16]
  40ff18:	b9400000 	ldr	w0, [x0]
  40ff1c:	2a0003e1 	mov	w1, w0
  40ff20:	aa0203e0 	mov	x0, x2
  40ff24:	97ffe527 	bl	4093c0 <_ZNSolsEi@plt>
  40ff28:	aa0003e2 	mov	x2, x0
  40ff2c:	d0000040 	adrp	x0, 419000 <_IO_stdin_used+0x8>
  40ff30:	9100c001 	add	x1, x0, #0x30
  40ff34:	aa0203e0 	mov	x0, x2
  40ff38:	97ffe3ee 	bl	408ef0 <_ZStlsISt11char_traitsIcEERSt13basic_ostreamIcT_ES5_PKc@plt>
  40ff3c:	f94017e1 	ldr	x1, [sp,#40]
  40ff40:	97ffe390 	bl	408d80 <_ZNSolsEPKv@plt>
  40ff44:	aa0003e2 	mov	x2, x0
  40ff48:	d0000040 	adrp	x0, 419000 <_IO_stdin_used+0x8>
  40ff4c:	91010001 	add	x1, x0, #0x40
  40ff50:	aa0203e0 	mov	x0, x2
  40ff54:	97ffe3e7 	bl	408ef0 <_ZStlsISt11char_traitsIcEERSt13basic_ostreamIcT_ES5_PKc@plt>
  40ff58:	f94013e1 	ldr	x1, [sp,#32]
  40ff5c:	97ffe389 	bl	408d80 <_ZNSolsEPKv@plt>
  40ff60:	aa0003e2 	mov	x2, x0
  40ff64:	d0000040 	adrp	x0, 419000 <_IO_stdin_used+0x8>
  40ff68:	91014001 	add	x1, x0, #0x50
  40ff6c:	aa0203e0 	mov	x0, x2
  40ff70:	97ffe3e0 	bl	408ef0 <_ZStlsISt11char_traitsIcEERSt13basic_ostreamIcT_ES5_PKc@plt>
  40ff74:	aa0003e2 	mov	x2, x0
  40ff78:	f9400fe0 	ldr	x0, [sp,#24]
  40ff7c:	f9400000 	ldr	x0, [x0]
  40ff80:	aa0003e1 	mov	x1, x0
  40ff84:	aa0203e0 	mov	x0, x2
  40ff88:	97ffe52e 	bl	409440 <_ZNSolsEl@plt>
  40ff8c:	aa0003e2 	mov	x2, x0
  40ff90:	b0ffffc0 	adrp	x0, 408000 <_init-0x970>
  40ff94:	912ec001 	add	x1, x0, #0xbb0
  40ff98:	aa0203e0 	mov	x0, x2
  40ff9c:	97ffe3e9 	bl	408f40 <_ZNSolsEPFRSoS_E@plt>
  40ffa0:	f9400fe1 	ldr	x1, [sp,#24]
  40ffa4:	f9400023 	ldr	x3, [x1]
  40ffa8:	f9400be1 	ldr	x1, [sp,#16]
  40ffac:	b9400025 	ldr	w5, [x1]
  40ffb0:	f94017e2 	ldr	x2, [sp,#40]
  40ffb4:	f94013e6 	ldr	x6, [sp,#32]
  40ffb8:	d2800001 	mov	x1, #0x0                   	// #0
  40ffbc:	aa0503e4 	mov	x4, x5
  40ffc0:	adc80440 	ldp	q0, q1, [x2,#256]!
  40ffc4:	ad8804c0 	stp	q0, q1, [x6,#256]!
  40ffc8:	adc80440 	ldp	q0, q1, [x2,#256]!
  40ffcc:	ad8804c0 	stp	q0, q1, [x6,#256]!
  40ffd0:	adc80440 	ldp	q0, q1, [x2,#256]!
  40ffd4:	ad8804c0 	stp	q0, q1, [x6,#256]!
  40ffd8:	aa1e03eb 	mov	x11, x30
  40ffdc:	97ffe5aa 	bl	409684 <nop_>
  40ffe0:	aa0b03fe 	mov	x30, x11
  40ffe4:	ad8804c0 	stp	q0, q1, [x6,#256]!
  40ffe8:	adc80440 	ldp	q0, q1, [x2,#256]!
  40ffec:	adc80440 	ldp	q0, q1, [x2,#256]!
  40fff0:	adc80440 	ldp	q0, q1, [x2,#256]!
  40fff4:	ad8804c0 	stp	q0, q1, [x6,#256]!
  40fff8:	adc80440 	ldp	q0, q1, [x2,#256]!
  40fffc:	aa1e03eb 	mov	x11, x30
  410000:	97ffe5a1 	bl	409684 <nop_>
  410004:	aa0b03fe 	mov	x30, x11
  410008:	adc80440 	ldp	q0, q1, [x2,#256]!
  41000c:	ad8804c0 	stp	q0, q1, [x6,#256]!
  410010:	adc80440 	ldp	q0, q1, [x2,#256]!
  410014:	ad8804c0 	stp	q0, q1, [x6,#256]!
  410018:	adc80440 	ldp	q0, q1, [x2,#256]!
  41001c:	adc80440 	ldp	q0, q1, [x2,#256]!
  410020:	aa1e03eb 	mov	x11, x30
  410024:	97ffe598 	bl	409684 <nop_>
  410028:	aa0b03fe 	mov	x30, x11
  41002c:	ad8804c0 	stp	q0, q1, [x6,#256]!
  410030:	adc80440 	ldp	q0, q1, [x2,#256]!
  410034:	adc80440 	ldp	q0, q1, [x2,#256]!
  410038:	ad8804c0 	stp	q0, q1, [x6,#256]!
  41003c:	adc80440 	ldp	q0, q1, [x2,#256]!
  410040:	adc80440 	ldp	q0, q1, [x2,#256]!
  410044:	aa1e03eb 	mov	x11, x30
  410048:	97ffe58f 	bl	409684 <nop_>
  41004c:	aa0b03fe 	mov	x30, x11
  410050:	ad8804c0 	stp	q0, q1, [x6,#256]!
  410054:	adc80440 	ldp	q0, q1, [x2,#256]!
  410058:	adc80440 	ldp	q0, q1, [x2,#256]!
  41005c:	adc80440 	ldp	q0, q1, [x2,#256]!
  410060:	adc80440 	ldp	q0, q1, [x2,#256]!
  410064:	ad8804c0 	stp	q0, q1, [x6,#256]!
  410068:	aa1e03eb 	mov	x11, x30
  41006c:	97ffe586 	bl	409684 <nop_>
  410070:	aa0b03fe 	mov	x30, x11
  410074:	adc80440 	ldp	q0, q1, [x2,#256]!
  410078:	ad8804c0 	stp	q0, q1, [x6,#256]!
  41007c:	adc80440 	ldp	q0, q1, [x2,#256]!
  410080:	ad8804c0 	stp	q0, q1, [x6,#256]!
  410084:	adc80440 	ldp	q0, q1, [x2,#256]!
  410088:	adc80440 	ldp	q0, q1, [x2,#256]!
  41008c:	aa1e03eb 	mov	x11, x30
  410090:	97ffe57d 	bl	409684 <nop_>
  410094:	aa0b03fe 	mov	x30, x11
  410098:	adc80440 	ldp	q0, q1, [x2,#256]!
  41009c:	adc80440 	ldp	q0, q1, [x2,#256]!
  4100a0:	ad8804c0 	stp	q0, q1, [x6,#256]!
  4100a4:	adc80440 	ldp	q0, q1, [x2,#256]!
  4100a8:	adc80440 	ldp	q0, q1, [x2,#256]!
  4100ac:	ad8804c0 	stp	q0, q1, [x6,#256]!
  4100b0:	aa1e03eb 	mov	x11, x30
  4100b4:	97ffe574 	bl	409684 <nop_>
  4100b8:	aa0b03fe 	mov	x30, x11
  4100bc:	adc80440 	ldp	q0, q1, [x2,#256]!
  4100c0:	ad8804c0 	stp	q0, q1, [x6,#256]!
  4100c4:	adc80440 	ldp	q0, q1, [x2,#256]!
  4100c8:	adc80440 	ldp	q0, q1, [x2,#256]!
  4100cc:	adc80440 	ldp	q0, q1, [x2,#256]!
  4100d0:	ad8804c0 	stp	q0, q1, [x6,#256]!
  4100d4:	aa1e03eb 	mov	x11, x30
  4100d8:	97ffe56b 	bl	409684 <nop_>
  4100dc:	aa0b03fe 	mov	x30, x11
  4100e0:	adc80440 	ldp	q0, q1, [x2,#256]!
  4100e4:	ad8804c0 	stp	q0, q1, [x6,#256]!
  4100e8:	adc80440 	ldp	q0, q1, [x2,#256]!
  4100ec:	adc80440 	ldp	q0, q1, [x2,#256]!
  4100f0:	ad8804c0 	stp	q0, q1, [x6,#256]!
  4100f4:	adc80440 	ldp	q0, q1, [x2,#256]!
  4100f8:	aa1e03eb 	mov	x11, x30
  4100fc:	97ffe562 	bl	409684 <nop_>
  410100:	aa0b03fe 	mov	x30, x11
  410104:	adc80440 	ldp	q0, q1, [x2,#256]!
  410108:	ad8804c0 	stp	q0, q1, [x6,#256]!
  41010c:	adc80440 	ldp	q0, q1, [x2,#256]!
  410110:	ad8804c0 	stp	q0, q1, [x6,#256]!
  410114:	adc80440 	ldp	q0, q1, [x2,#256]!
  410118:	adc80440 	ldp	q0, q1, [x2,#256]!
  41011c:	aa1e03eb 	mov	x11, x30
  410120:	97ffe559 	bl	409684 <nop_>
  410124:	aa0b03fe 	mov	x30, x11
  410128:	adc80440 	ldp	q0, q1, [x2,#256]!
  41012c:	adc80440 	ldp	q0, q1, [x2,#256]!
  410130:	ad8804c0 	stp	q0, q1, [x6,#256]!
  410134:	adc80440 	ldp	q0, q1, [x2,#256]!
  410138:	adc80440 	ldp	q0, q1, [x2,#256]!
  41013c:	ad8804c0 	stp	q0, q1, [x6,#256]!
  410140:	aa1e03eb 	mov	x11, x30
  410144:	97ffe550 	bl	409684 <nop_>
  410148:	aa0b03fe 	mov	x30, x11
  41014c:	ad8804c0 	stp	q0, q1, [x6,#256]!
  410150:	adc80440 	ldp	q0, q1, [x2,#256]!
  410154:	adc80440 	ldp	q0, q1, [x2,#256]!
  410158:	ad8804c0 	stp	q0, q1, [x6,#256]!
  41015c:	adc80440 	ldp	q0, q1, [x2,#256]!
  410160:	adc80440 	ldp	q0, q1, [x2,#256]!
  410164:	aa1e03eb 	mov	x11, x30
  410168:	97ffe547 	bl	409684 <nop_>
  41016c:	aa0b03fe 	mov	x30, x11
  410170:	adc80440 	ldp	q0, q1, [x2,#256]!
  410174:	adc80440 	ldp	q0, q1, [x2,#256]!
  410178:	ad8804c0 	stp	q0, q1, [x6,#256]!
  41017c:	adc80440 	ldp	q0, q1, [x2,#256]!
  410180:	adc80440 	ldp	q0, q1, [x2,#256]!
  410184:	ad8804c0 	stp	q0, q1, [x6,#256]!
  410188:	aa1e03eb 	mov	x11, x30
  41018c:	97ffe53e 	bl	409684 <nop_>
  410190:	aa0b03fe 	mov	x30, x11
  410194:	ad8804c0 	stp	q0, q1, [x6,#256]!
  410198:	adc80440 	ldp	q0, q1, [x2,#256]!
  41019c:	adc80440 	ldp	q0, q1, [x2,#256]!
  4101a0:	ad8804c0 	stp	q0, q1, [x6,#256]!
  4101a4:	adc80440 	ldp	q0, q1, [x2,#256]!
  4101a8:	adc80440 	ldp	q0, q1, [x2,#256]!
  4101ac:	aa1e03eb 	mov	x11, x30
  4101b0:	97ffe535 	bl	409684 <nop_>
  4101b4:	aa0b03fe 	mov	x30, x11
  4101b8:	ad8804c0 	stp	q0, q1, [x6,#256]!
  4101bc:	adc80440 	ldp	q0, q1, [x2,#256]!
  4101c0:	adc80440 	ldp	q0, q1, [x2,#256]!
  4101c4:	ad8804c0 	stp	q0, q1, [x6,#256]!
  4101c8:	adc80440 	ldp	q0, q1, [x2,#256]!
  4101cc:	adc80440 	ldp	q0, q1, [x2,#256]!
  4101d0:	aa1e03eb 	mov	x11, x30
  4101d4:	97ffe52c 	bl	409684 <nop_>
  4101d8:	aa0b03fe 	mov	x30, x11
  4101dc:	adc80440 	ldp	q0, q1, [x2,#256]!
  4101e0:	ad8804c0 	stp	q0, q1, [x6,#256]!
  4101e4:	adc80440 	ldp	q0, q1, [x2,#256]!
  4101e8:	ad8804c0 	stp	q0, q1, [x6,#256]!
  4101ec:	adc80440 	ldp	q0, q1, [x2,#256]!
  4101f0:	ad8804c0 	stp	q0, q1, [x6,#256]!
  4101f4:	aa1e03eb 	mov	x11, x30
  4101f8:	97ffe523 	bl	409684 <nop_>
  4101fc:	aa0b03fe 	mov	x30, x11
  410200:	ad8804c0 	stp	q0, q1, [x6,#256]!
  410204:	adc80440 	ldp	q0, q1, [x2,#256]!
  410208:	adc80440 	ldp	q0, q1, [x2,#256]!
  41020c:	ad8804c0 	stp	q0, q1, [x6,#256]!
  410210:	aa1e03eb 	mov	x11, x30
  410214:	97ffe51c 	bl	409684 <nop_>
  410218:	aa0b03fe 	mov	x30, x11
  41021c:	91320021 	add	x1, x1, #0xc80
  410220:	eb03003f 	cmp	x1, x3
  410224:	5401cc2d 	b.le	413ba8 <_Z15STREAM_copy_100PdS_PlPKi+0xe0>
  410228:	d503201f 	nop
  41022c:	a8c37bfd 	ldp	x29, x30, [sp],#48
  410230:	d65f03c0 	ret

0000000000410234 <_Z14STREAM_copy_66PdS_PlPKi>:
  410234:	a9bd7bfd 	stp	x29, x30, [sp,#-48]!
  410238:	910003fd 	mov	x29, sp
  41023c:	f90017e0 	str	x0, [sp,#40]
  410240:	f90013e1 	str	x1, [sp,#32]
  410244:	f9000fe2 	str	x2, [sp,#24]
  410248:	f9000be3 	str	x3, [sp,#16]
  41024c:	d2800000 	mov	x0, #0x0                   	// #0
  410250:	b0000040 	adrp	x0, 419000 <_IO_stdin_used+0x8>
  410254:	91008001 	add	x1, x0, #0x20
  410258:	d00000e0 	adrp	x0, 42e000 <_Znam@GLIBCXX_3.4>
  41025c:	91286000 	add	x0, x0, #0xa18
  410260:	97ffe324 	bl	408ef0 <_ZStlsISt11char_traitsIcEERSt13basic_ostreamIcT_ES5_PKc@plt>
  410264:	aa0003e2 	mov	x2, x0
  410268:	f9400be0 	ldr	x0, [sp,#16]
  41026c:	b9400000 	ldr	w0, [x0]
  410270:	2a0003e1 	mov	w1, w0
  410274:	aa0203e0 	mov	x0, x2
  410278:	97ffe452 	bl	4093c0 <_ZNSolsEi@plt>
  41027c:	aa0003e2 	mov	x2, x0
  410280:	b0000040 	adrp	x0, 419000 <_IO_stdin_used+0x8>
  410284:	9100c001 	add	x1, x0, #0x30
  410288:	aa0203e0 	mov	x0, x2
  41028c:	97ffe319 	bl	408ef0 <_ZStlsISt11char_traitsIcEERSt13basic_ostreamIcT_ES5_PKc@plt>
  410290:	f94017e1 	ldr	x1, [sp,#40]
  410294:	97ffe2bb 	bl	408d80 <_ZNSolsEPKv@plt>
  410298:	aa0003e2 	mov	x2, x0
  41029c:	b0000040 	adrp	x0, 419000 <_IO_stdin_used+0x8>
  4102a0:	91010001 	add	x1, x0, #0x40
  4102a4:	aa0203e0 	mov	x0, x2
  4102a8:	97ffe312 	bl	408ef0 <_ZStlsISt11char_traitsIcEERSt13basic_ostreamIcT_ES5_PKc@plt>
  4102ac:	f94013e1 	ldr	x1, [sp,#32]
  4102b0:	97ffe2b4 	bl	408d80 <_ZNSolsEPKv@plt>
  4102b4:	aa0003e2 	mov	x2, x0
  4102b8:	b0000040 	adrp	x0, 419000 <_IO_stdin_used+0x8>
  4102bc:	91014001 	add	x1, x0, #0x50
  4102c0:	aa0203e0 	mov	x0, x2
  4102c4:	97ffe30b 	bl	408ef0 <_ZStlsISt11char_traitsIcEERSt13basic_ostreamIcT_ES5_PKc@plt>
  4102c8:	aa0003e2 	mov	x2, x0
  4102cc:	f9400fe0 	ldr	x0, [sp,#24]
  4102d0:	f9400000 	ldr	x0, [x0]
  4102d4:	aa0003e1 	mov	x1, x0
  4102d8:	aa0203e0 	mov	x0, x2
  4102dc:	97ffe459 	bl	409440 <_ZNSolsEl@plt>
  4102e0:	aa0003e2 	mov	x2, x0
  4102e4:	90ffffc0 	adrp	x0, 408000 <_init-0x970>
  4102e8:	912ec001 	add	x1, x0, #0xbb0
  4102ec:	aa0203e0 	mov	x0, x2
  4102f0:	97ffe314 	bl	408f40 <_ZNSolsEPFRSoS_E@plt>
  4102f4:	f9400fe1 	ldr	x1, [sp,#24]
  4102f8:	f9400023 	ldr	x3, [x1]
  4102fc:	f9400be1 	ldr	x1, [sp,#16]
  410300:	b9400025 	ldr	w5, [x1]
  410304:	f94017e2 	ldr	x2, [sp,#40]
  410308:	f94013e6 	ldr	x6, [sp,#32]
  41030c:	d2800001 	mov	x1, #0x0                   	// #0
  410310:	aa0503e4 	mov	x4, x5
  410314:	adc80440 	ldp	q0, q1, [x2,#256]!
  410318:	ad8804c0 	stp	q0, q1, [x6,#256]!
  41031c:	adc80440 	ldp	q0, q1, [x2,#256]!
  410320:	ad8804c0 	stp	q0, q1, [x6,#256]!
  410324:	adc80440 	ldp	q0, q1, [x2,#256]!
  410328:	adc80440 	ldp	q0, q1, [x2,#256]!
  41032c:	aa1e03eb 	mov	x11, x30
  410330:	97ffe4d5 	bl	409684 <nop_>
  410334:	aa0b03fe 	mov	x30, x11
  410338:	ad8804c0 	stp	q0, q1, [x6,#256]!
  41033c:	adc80440 	ldp	q0, q1, [x2,#256]!
  410340:	adc80440 	ldp	q0, q1, [x2,#256]!
  410344:	adc80440 	ldp	q0, q1, [x2,#256]!
  410348:	ad8804c0 	stp	q0, q1, [x6,#256]!
  41034c:	adc80440 	ldp	q0, q1, [x2,#256]!
  410350:	aa1e03eb 	mov	x11, x30
  410354:	97ffe4cc 	bl	409684 <nop_>
  410358:	aa0b03fe 	mov	x30, x11
  41035c:	adc80440 	ldp	q0, q1, [x2,#256]!
  410360:	ad8804c0 	stp	q0, q1, [x6,#256]!
  410364:	adc80440 	ldp	q0, q1, [x2,#256]!
  410368:	ad8804c0 	stp	q0, q1, [x6,#256]!
  41036c:	adc80440 	ldp	q0, q1, [x2,#256]!
  410370:	adc80440 	ldp	q0, q1, [x2,#256]!
  410374:	aa1e03eb 	mov	x11, x30
  410378:	97ffe4c3 	bl	409684 <nop_>
  41037c:	aa0b03fe 	mov	x30, x11
  410380:	ad8804c0 	stp	q0, q1, [x6,#256]!
  410384:	adc80440 	ldp	q0, q1, [x2,#256]!
  410388:	adc80440 	ldp	q0, q1, [x2,#256]!
  41038c:	ad8804c0 	stp	q0, q1, [x6,#256]!
  410390:	adc80440 	ldp	q0, q1, [x2,#256]!
  410394:	adc80440 	ldp	q0, q1, [x2,#256]!
  410398:	aa1e03eb 	mov	x11, x30
  41039c:	97ffe4ba 	bl	409684 <nop_>
  4103a0:	aa0b03fe 	mov	x30, x11
  4103a4:	ad8804c0 	stp	q0, q1, [x6,#256]!
  4103a8:	adc80440 	ldp	q0, q1, [x2,#256]!
  4103ac:	adc80440 	ldp	q0, q1, [x2,#256]!
  4103b0:	adc80440 	ldp	q0, q1, [x2,#256]!
  4103b4:	adc80440 	ldp	q0, q1, [x2,#256]!
  4103b8:	ad8804c0 	stp	q0, q1, [x6,#256]!
  4103bc:	aa1e03eb 	mov	x11, x30
  4103c0:	97ffe4b1 	bl	409684 <nop_>
  4103c4:	aa0b03fe 	mov	x30, x11
  4103c8:	adc80440 	ldp	q0, q1, [x2,#256]!
  4103cc:	ad8804c0 	stp	q0, q1, [x6,#256]!
  4103d0:	adc80440 	ldp	q0, q1, [x2,#256]!
  4103d4:	ad8804c0 	stp	q0, q1, [x6,#256]!
  4103d8:	adc80440 	ldp	q0, q1, [x2,#256]!
  4103dc:	adc80440 	ldp	q0, q1, [x2,#256]!
  4103e0:	aa1e03eb 	mov	x11, x30
  4103e4:	97ffe4a8 	bl	409684 <nop_>
  4103e8:	aa0b03fe 	mov	x30, x11
  4103ec:	adc80440 	ldp	q0, q1, [x2,#256]!
  4103f0:	adc80440 	ldp	q0, q1, [x2,#256]!
  4103f4:	ad8804c0 	stp	q0, q1, [x6,#256]!
  4103f8:	adc80440 	ldp	q0, q1, [x2,#256]!
  4103fc:	adc80440 	ldp	q0, q1, [x2,#256]!
  410400:	ad8804c0 	stp	q0, q1, [x6,#256]!
  410404:	aa1e03eb 	mov	x11, x30
  410408:	97ffe49f 	bl	409684 <nop_>
  41040c:	aa0b03fe 	mov	x30, x11
  410410:	adc80440 	ldp	q0, q1, [x2,#256]!
  410414:	ad8804c0 	stp	q0, q1, [x6,#256]!
  410418:	adc80440 	ldp	q0, q1, [x2,#256]!
  41041c:	adc80440 	ldp	q0, q1, [x2,#256]!
  410420:	adc80440 	ldp	q0, q1, [x2,#256]!
  410424:	ad8804c0 	stp	q0, q1, [x6,#256]!
  410428:	aa1e03eb 	mov	x11, x30
  41042c:	97ffe496 	bl	409684 <nop_>
  410430:	aa0b03fe 	mov	x30, x11
  410434:	adc80440 	ldp	q0, q1, [x2,#256]!
  410438:	ad8804c0 	stp	q0, q1, [x6,#256]!
  41043c:	adc80440 	ldp	q0, q1, [x2,#256]!
  410440:	adc80440 	ldp	q0, q1, [x2,#256]!
  410444:	ad8804c0 	stp	q0, q1, [x6,#256]!
  410448:	adc80440 	ldp	q0, q1, [x2,#256]!
  41044c:	aa1e03eb 	mov	x11, x30
  410450:	97ffe48d 	bl	409684 <nop_>
  410454:	aa0b03fe 	mov	x30, x11
  410458:	adc80440 	ldp	q0, q1, [x2,#256]!
  41045c:	ad8804c0 	stp	q0, q1, [x6,#256]!
  410460:	adc80440 	ldp	q0, q1, [x2,#256]!
  410464:	ad8804c0 	stp	q0, q1, [x6,#256]!
  410468:	adc80440 	ldp	q0, q1, [x2,#256]!
  41046c:	adc80440 	ldp	q0, q1, [x2,#256]!
  410470:	aa1e03eb 	mov	x11, x30
  410474:	97ffe484 	bl	409684 <nop_>
  410478:	aa0b03fe 	mov	x30, x11
  41047c:	adc80440 	ldp	q0, q1, [x2,#256]!
  410480:	adc80440 	ldp	q0, q1, [x2,#256]!
  410484:	ad8804c0 	stp	q0, q1, [x6,#256]!
  410488:	adc80440 	ldp	q0, q1, [x2,#256]!
  41048c:	adc80440 	ldp	q0, q1, [x2,#256]!
  410490:	ad8804c0 	stp	q0, q1, [x6,#256]!
  410494:	aa1e03eb 	mov	x11, x30
  410498:	97ffe47b 	bl	409684 <nop_>
  41049c:	aa0b03fe 	mov	x30, x11
  4104a0:	ad8804c0 	stp	q0, q1, [x6,#256]!
  4104a4:	adc80440 	ldp	q0, q1, [x2,#256]!
  4104a8:	adc80440 	ldp	q0, q1, [x2,#256]!
  4104ac:	ad8804c0 	stp	q0, q1, [x6,#256]!
  4104b0:	adc80440 	ldp	q0, q1, [x2,#256]!
  4104b4:	adc80440 	ldp	q0, q1, [x2,#256]!
  4104b8:	aa1e03eb 	mov	x11, x30
  4104bc:	97ffe472 	bl	409684 <nop_>
  4104c0:	aa0b03fe 	mov	x30, x11
  4104c4:	adc80440 	ldp	q0, q1, [x2,#256]!
  4104c8:	adc80440 	ldp	q0, q1, [x2,#256]!
  4104cc:	ad8804c0 	stp	q0, q1, [x6,#256]!
  4104d0:	adc80440 	ldp	q0, q1, [x2,#256]!
  4104d4:	adc80440 	ldp	q0, q1, [x2,#256]!
  4104d8:	ad8804c0 	stp	q0, q1, [x6,#256]!
  4104dc:	aa1e03eb 	mov	x11, x30
  4104e0:	97ffe469 	bl	409684 <nop_>
  4104e4:	aa0b03fe 	mov	x30, x11
  4104e8:	ad8804c0 	stp	q0, q1, [x6,#256]!
  4104ec:	adc80440 	ldp	q0, q1, [x2,#256]!
  4104f0:	adc80440 	ldp	q0, q1, [x2,#256]!
  4104f4:	ad8804c0 	stp	q0, q1, [x6,#256]!
  4104f8:	adc80440 	ldp	q0, q1, [x2,#256]!
  4104fc:	adc80440 	ldp	q0, q1, [x2,#256]!
  410500:	aa1e03eb 	mov	x11, x30
  410504:	97ffe460 	bl	409684 <nop_>
  410508:	aa0b03fe 	mov	x30, x11
  41050c:	ad8804c0 	stp	q0, q1, [x6,#256]!
  410510:	adc80440 	ldp	q0, q1, [x2,#256]!
  410514:	adc80440 	ldp	q0, q1, [x2,#256]!
  410518:	ad8804c0 	stp	q0, q1, [x6,#256]!
  41051c:	adc80440 	ldp	q0, q1, [x2,#256]!
  410520:	adc80440 	ldp	q0, q1, [x2,#256]!
  410524:	aa1e03eb 	mov	x11, x30
  410528:	97ffe457 	bl	409684 <nop_>
  41052c:	aa0b03fe 	mov	x30, x11
  410530:	adc80440 	ldp	q0, q1, [x2,#256]!
  410534:	ad8804c0 	stp	q0, q1, [x6,#256]!
  410538:	adc80440 	ldp	q0, q1, [x2,#256]!
  41053c:	adc80440 	ldp	q0, q1, [x2,#256]!
  410540:	adc80440 	ldp	q0, q1, [x2,#256]!
  410544:	ad8804c0 	stp	q0, q1, [x6,#256]!
  410548:	aa1e03eb 	mov	x11, x30
  41054c:	97ffe44e 	bl	409684 <nop_>
  410550:	aa0b03fe 	mov	x30, x11
  410554:	ad8804c0 	stp	q0, q1, [x6,#256]!
  410558:	adc80440 	ldp	q0, q1, [x2,#256]!
  41055c:	adc80440 	ldp	q0, q1, [x2,#256]!
  410560:	ad8804c0 	stp	q0, q1, [x6,#256]!
  410564:	aa1e03eb 	mov	x11, x30
  410568:	97ffe447 	bl	409684 <nop_>
  41056c:	aa0b03fe 	mov	x30, x11
  410570:	91320021 	add	x1, x1, #0xc80
  410574:	eb03003f 	cmp	x1, x3
  410578:	5401b18d 	b.le	413ba8 <_Z15STREAM_copy_100PdS_PlPKi+0xe0>
  41057c:	d503201f 	nop
  410580:	a8c37bfd 	ldp	x29, x30, [sp],#48
  410584:	d65f03c0 	ret

0000000000410588 <_Z14STREAM_copy_68PdS_PlPKi>:
  410588:	a9bd7bfd 	stp	x29, x30, [sp,#-48]!
  41058c:	910003fd 	mov	x29, sp
  410590:	f90017e0 	str	x0, [sp,#40]
  410594:	f90013e1 	str	x1, [sp,#32]
  410598:	f9000fe2 	str	x2, [sp,#24]
  41059c:	f9000be3 	str	x3, [sp,#16]
  4105a0:	d2800000 	mov	x0, #0x0                   	// #0
  4105a4:	b0000040 	adrp	x0, 419000 <_IO_stdin_used+0x8>
  4105a8:	91008001 	add	x1, x0, #0x20
  4105ac:	d00000e0 	adrp	x0, 42e000 <_Znam@GLIBCXX_3.4>
  4105b0:	91286000 	add	x0, x0, #0xa18
  4105b4:	97ffe24f 	bl	408ef0 <_ZStlsISt11char_traitsIcEERSt13basic_ostreamIcT_ES5_PKc@plt>
  4105b8:	aa0003e2 	mov	x2, x0
  4105bc:	f9400be0 	ldr	x0, [sp,#16]
  4105c0:	b9400000 	ldr	w0, [x0]
  4105c4:	2a0003e1 	mov	w1, w0
  4105c8:	aa0203e0 	mov	x0, x2
  4105cc:	97ffe37d 	bl	4093c0 <_ZNSolsEi@plt>
  4105d0:	aa0003e2 	mov	x2, x0
  4105d4:	b0000040 	adrp	x0, 419000 <_IO_stdin_used+0x8>
  4105d8:	9100c001 	add	x1, x0, #0x30
  4105dc:	aa0203e0 	mov	x0, x2
  4105e0:	97ffe244 	bl	408ef0 <_ZStlsISt11char_traitsIcEERSt13basic_ostreamIcT_ES5_PKc@plt>
  4105e4:	f94017e1 	ldr	x1, [sp,#40]
  4105e8:	97ffe1e6 	bl	408d80 <_ZNSolsEPKv@plt>
  4105ec:	aa0003e2 	mov	x2, x0
  4105f0:	b0000040 	adrp	x0, 419000 <_IO_stdin_used+0x8>
  4105f4:	91010001 	add	x1, x0, #0x40
  4105f8:	aa0203e0 	mov	x0, x2
  4105fc:	97ffe23d 	bl	408ef0 <_ZStlsISt11char_traitsIcEERSt13basic_ostreamIcT_ES5_PKc@plt>
  410600:	f94013e1 	ldr	x1, [sp,#32]
  410604:	97ffe1df 	bl	408d80 <_ZNSolsEPKv@plt>
  410608:	aa0003e2 	mov	x2, x0
  41060c:	b0000040 	adrp	x0, 419000 <_IO_stdin_used+0x8>
  410610:	91014001 	add	x1, x0, #0x50
  410614:	aa0203e0 	mov	x0, x2
  410618:	97ffe236 	bl	408ef0 <_ZStlsISt11char_traitsIcEERSt13basic_ostreamIcT_ES5_PKc@plt>
  41061c:	aa0003e2 	mov	x2, x0
  410620:	f9400fe0 	ldr	x0, [sp,#24]
  410624:	f9400000 	ldr	x0, [x0]
  410628:	aa0003e1 	mov	x1, x0
  41062c:	aa0203e0 	mov	x0, x2
  410630:	97ffe384 	bl	409440 <_ZNSolsEl@plt>
  410634:	aa0003e2 	mov	x2, x0
  410638:	90ffffc0 	adrp	x0, 408000 <_init-0x970>
  41063c:	912ec001 	add	x1, x0, #0xbb0
  410640:	aa0203e0 	mov	x0, x2
  410644:	97ffe23f 	bl	408f40 <_ZNSolsEPFRSoS_E@plt>
  410648:	f9400fe1 	ldr	x1, [sp,#24]
  41064c:	f9400023 	ldr	x3, [x1]
  410650:	f9400be1 	ldr	x1, [sp,#16]
  410654:	b9400025 	ldr	w5, [x1]
  410658:	f94017e2 	ldr	x2, [sp,#40]
  41065c:	f94013e6 	ldr	x6, [sp,#32]
  410660:	d2800001 	mov	x1, #0x0                   	// #0
  410664:	aa0503e4 	mov	x4, x5
  410668:	adc80440 	ldp	q0, q1, [x2,#256]!
  41066c:	ad8804c0 	stp	q0, q1, [x6,#256]!
  410670:	adc80440 	ldp	q0, q1, [x2,#256]!
  410674:	ad8804c0 	stp	q0, q1, [x6,#256]!
  410678:	adc80440 	ldp	q0, q1, [x2,#256]!
  41067c:	adc80440 	ldp	q0, q1, [x2,#256]!
  410680:	aa1e03eb 	mov	x11, x30
  410684:	97ffe400 	bl	409684 <nop_>
  410688:	aa0b03fe 	mov	x30, x11
  41068c:	ad8804c0 	stp	q0, q1, [x6,#256]!
  410690:	adc80440 	ldp	q0, q1, [x2,#256]!
  410694:	adc80440 	ldp	q0, q1, [x2,#256]!
  410698:	adc80440 	ldp	q0, q1, [x2,#256]!
  41069c:	ad8804c0 	stp	q0, q1, [x6,#256]!
  4106a0:	adc80440 	ldp	q0, q1, [x2,#256]!
  4106a4:	aa1e03eb 	mov	x11, x30
  4106a8:	97ffe3f7 	bl	409684 <nop_>
  4106ac:	aa0b03fe 	mov	x30, x11
  4106b0:	adc80440 	ldp	q0, q1, [x2,#256]!
  4106b4:	ad8804c0 	stp	q0, q1, [x6,#256]!
  4106b8:	adc80440 	ldp	q0, q1, [x2,#256]!
  4106bc:	ad8804c0 	stp	q0, q1, [x6,#256]!
  4106c0:	adc80440 	ldp	q0, q1, [x2,#256]!
  4106c4:	adc80440 	ldp	q0, q1, [x2,#256]!
  4106c8:	aa1e03eb 	mov	x11, x30
  4106cc:	97ffe3ee 	bl	409684 <nop_>
  4106d0:	aa0b03fe 	mov	x30, x11
  4106d4:	ad8804c0 	stp	q0, q1, [x6,#256]!
  4106d8:	adc80440 	ldp	q0, q1, [x2,#256]!
  4106dc:	adc80440 	ldp	q0, q1, [x2,#256]!
  4106e0:	ad8804c0 	stp	q0, q1, [x6,#256]!
  4106e4:	adc80440 	ldp	q0, q1, [x2,#256]!
  4106e8:	adc80440 	ldp	q0, q1, [x2,#256]!
  4106ec:	aa1e03eb 	mov	x11, x30
  4106f0:	97ffe3e5 	bl	409684 <nop_>
  4106f4:	aa0b03fe 	mov	x30, x11
  4106f8:	ad8804c0 	stp	q0, q1, [x6,#256]!
  4106fc:	adc80440 	ldp	q0, q1, [x2,#256]!
  410700:	adc80440 	ldp	q0, q1, [x2,#256]!
  410704:	adc80440 	ldp	q0, q1, [x2,#256]!
  410708:	adc80440 	ldp	q0, q1, [x2,#256]!
  41070c:	ad8804c0 	stp	q0, q1, [x6,#256]!
  410710:	aa1e03eb 	mov	x11, x30
  410714:	97ffe3dc 	bl	409684 <nop_>
  410718:	aa0b03fe 	mov	x30, x11
  41071c:	adc80440 	ldp	q0, q1, [x2,#256]!
  410720:	ad8804c0 	stp	q0, q1, [x6,#256]!
  410724:	adc80440 	ldp	q0, q1, [x2,#256]!
  410728:	ad8804c0 	stp	q0, q1, [x6,#256]!
  41072c:	adc80440 	ldp	q0, q1, [x2,#256]!
  410730:	adc80440 	ldp	q0, q1, [x2,#256]!
  410734:	aa1e03eb 	mov	x11, x30
  410738:	97ffe3d3 	bl	409684 <nop_>
  41073c:	aa0b03fe 	mov	x30, x11
  410740:	adc80440 	ldp	q0, q1, [x2,#256]!
  410744:	adc80440 	ldp	q0, q1, [x2,#256]!
  410748:	ad8804c0 	stp	q0, q1, [x6,#256]!
  41074c:	adc80440 	ldp	q0, q1, [x2,#256]!
  410750:	adc80440 	ldp	q0, q1, [x2,#256]!
  410754:	ad8804c0 	stp	q0, q1, [x6,#256]!
  410758:	aa1e03eb 	mov	x11, x30
  41075c:	97ffe3ca 	bl	409684 <nop_>
  410760:	aa0b03fe 	mov	x30, x11
  410764:	adc80440 	ldp	q0, q1, [x2,#256]!
  410768:	ad8804c0 	stp	q0, q1, [x6,#256]!
  41076c:	adc80440 	ldp	q0, q1, [x2,#256]!
  410770:	adc80440 	ldp	q0, q1, [x2,#256]!
  410774:	adc80440 	ldp	q0, q1, [x2,#256]!
  410778:	ad8804c0 	stp	q0, q1, [x6,#256]!
  41077c:	aa1e03eb 	mov	x11, x30
  410780:	97ffe3c1 	bl	409684 <nop_>
  410784:	aa0b03fe 	mov	x30, x11
  410788:	adc80440 	ldp	q0, q1, [x2,#256]!
  41078c:	ad8804c0 	stp	q0, q1, [x6,#256]!
  410790:	adc80440 	ldp	q0, q1, [x2,#256]!
  410794:	adc80440 	ldp	q0, q1, [x2,#256]!
  410798:	ad8804c0 	stp	q0, q1, [x6,#256]!
  41079c:	adc80440 	ldp	q0, q1, [x2,#256]!
  4107a0:	aa1e03eb 	mov	x11, x30
  4107a4:	97ffe3b8 	bl	409684 <nop_>
  4107a8:	aa0b03fe 	mov	x30, x11
  4107ac:	adc80440 	ldp	q0, q1, [x2,#256]!
  4107b0:	adc80440 	ldp	q0, q1, [x2,#256]!
  4107b4:	adc80440 	ldp	q0, q1, [x2,#256]!
  4107b8:	ad8804c0 	stp	q0, q1, [x6,#256]!
  4107bc:	adc80440 	ldp	q0, q1, [x2,#256]!
  4107c0:	adc80440 	ldp	q0, q1, [x2,#256]!
  4107c4:	aa1e03eb 	mov	x11, x30
  4107c8:	97ffe3af 	bl	409684 <nop_>
  4107cc:	aa0b03fe 	mov	x30, x11
  4107d0:	adc80440 	ldp	q0, q1, [x2,#256]!
  4107d4:	adc80440 	ldp	q0, q1, [x2,#256]!
  4107d8:	ad8804c0 	stp	q0, q1, [x6,#256]!
  4107dc:	adc80440 	ldp	q0, q1, [x2,#256]!
  4107e0:	adc80440 	ldp	q0, q1, [x2,#256]!
  4107e4:	ad8804c0 	stp	q0, q1, [x6,#256]!
  4107e8:	aa1e03eb 	mov	x11, x30
  4107ec:	97ffe3a6 	bl	409684 <nop_>
  4107f0:	aa0b03fe 	mov	x30, x11
  4107f4:	ad8804c0 	stp	q0, q1, [x6,#256]!
  4107f8:	adc80440 	ldp	q0, q1, [x2,#256]!
  4107fc:	adc80440 	ldp	q0, q1, [x2,#256]!
  410800:	ad8804c0 	stp	q0, q1, [x6,#256]!
  410804:	adc80440 	ldp	q0, q1, [x2,#256]!
  410808:	adc80440 	ldp	q0, q1, [x2,#256]!
  41080c:	aa1e03eb 	mov	x11, x30
  410810:	97ffe39d 	bl	409684 <nop_>
  410814:	aa0b03fe 	mov	x30, x11
  410818:	adc80440 	ldp	q0, q1, [x2,#256]!
  41081c:	adc80440 	ldp	q0, q1, [x2,#256]!
  410820:	ad8804c0 	stp	q0, q1, [x6,#256]!
  410824:	adc80440 	ldp	q0, q1, [x2,#256]!
  410828:	adc80440 	ldp	q0, q1, [x2,#256]!
  41082c:	ad8804c0 	stp	q0, q1, [x6,#256]!
  410830:	aa1e03eb 	mov	x11, x30
  410834:	97ffe394 	bl	409684 <nop_>
  410838:	aa0b03fe 	mov	x30, x11
  41083c:	ad8804c0 	stp	q0, q1, [x6,#256]!
  410840:	adc80440 	ldp	q0, q1, [x2,#256]!
  410844:	adc80440 	ldp	q0, q1, [x2,#256]!
  410848:	ad8804c0 	stp	q0, q1, [x6,#256]!
  41084c:	adc80440 	ldp	q0, q1, [x2,#256]!
  410850:	adc80440 	ldp	q0, q1, [x2,#256]!
  410854:	aa1e03eb 	mov	x11, x30
  410858:	97ffe38b 	bl	409684 <nop_>
  41085c:	aa0b03fe 	mov	x30, x11
  410860:	ad8804c0 	stp	q0, q1, [x6,#256]!
  410864:	adc80440 	ldp	q0, q1, [x2,#256]!
  410868:	adc80440 	ldp	q0, q1, [x2,#256]!
  41086c:	ad8804c0 	stp	q0, q1, [x6,#256]!
  410870:	adc80440 	ldp	q0, q1, [x2,#256]!
  410874:	adc80440 	ldp	q0, q1, [x2,#256]!
  410878:	aa1e03eb 	mov	x11, x30
  41087c:	97ffe382 	bl	409684 <nop_>
  410880:	aa0b03fe 	mov	x30, x11
  410884:	adc80440 	ldp	q0, q1, [x2,#256]!
  410888:	ad8804c0 	stp	q0, q1, [x6,#256]!
  41088c:	adc80440 	ldp	q0, q1, [x2,#256]!
  410890:	adc80440 	ldp	q0, q1, [x2,#256]!
  410894:	adc80440 	ldp	q0, q1, [x2,#256]!
  410898:	ad8804c0 	stp	q0, q1, [x6,#256]!
  41089c:	aa1e03eb 	mov	x11, x30
  4108a0:	97ffe379 	bl	409684 <nop_>
  4108a4:	aa0b03fe 	mov	x30, x11
  4108a8:	adc80440 	ldp	q0, q1, [x2,#256]!
  4108ac:	adc80440 	ldp	q0, q1, [x2,#256]!
  4108b0:	adc80440 	ldp	q0, q1, [x2,#256]!
  4108b4:	ad8804c0 	stp	q0, q1, [x6,#256]!
  4108b8:	aa1e03eb 	mov	x11, x30
  4108bc:	97ffe372 	bl	409684 <nop_>
  4108c0:	aa0b03fe 	mov	x30, x11
  4108c4:	91320021 	add	x1, x1, #0xc80
  4108c8:	eb03003f 	cmp	x1, x3
  4108cc:	540196ed 	b.le	413ba8 <_Z15STREAM_copy_100PdS_PlPKi+0xe0>
  4108d0:	d503201f 	nop
  4108d4:	a8c37bfd 	ldp	x29, x30, [sp],#48
  4108d8:	d65f03c0 	ret

00000000004108dc <_Z14STREAM_copy_70PdS_PlPKi>:
  4108dc:	a9bd7bfd 	stp	x29, x30, [sp,#-48]!
  4108e0:	910003fd 	mov	x29, sp
  4108e4:	f90017e0 	str	x0, [sp,#40]
  4108e8:	f90013e1 	str	x1, [sp,#32]
  4108ec:	f9000fe2 	str	x2, [sp,#24]
  4108f0:	f9000be3 	str	x3, [sp,#16]
  4108f4:	d2800000 	mov	x0, #0x0                   	// #0
  4108f8:	b0000040 	adrp	x0, 419000 <_IO_stdin_used+0x8>
  4108fc:	91008001 	add	x1, x0, #0x20
  410900:	d00000e0 	adrp	x0, 42e000 <_Znam@GLIBCXX_3.4>
  410904:	91286000 	add	x0, x0, #0xa18
  410908:	97ffe17a 	bl	408ef0 <_ZStlsISt11char_traitsIcEERSt13basic_ostreamIcT_ES5_PKc@plt>
  41090c:	aa0003e2 	mov	x2, x0
  410910:	f9400be0 	ldr	x0, [sp,#16]
  410914:	b9400000 	ldr	w0, [x0]
  410918:	2a0003e1 	mov	w1, w0
  41091c:	aa0203e0 	mov	x0, x2
  410920:	97ffe2a8 	bl	4093c0 <_ZNSolsEi@plt>
  410924:	aa0003e2 	mov	x2, x0
  410928:	b0000040 	adrp	x0, 419000 <_IO_stdin_used+0x8>
  41092c:	9100c001 	add	x1, x0, #0x30
  410930:	aa0203e0 	mov	x0, x2
  410934:	97ffe16f 	bl	408ef0 <_ZStlsISt11char_traitsIcEERSt13basic_ostreamIcT_ES5_PKc@plt>
  410938:	f94017e1 	ldr	x1, [sp,#40]
  41093c:	97ffe111 	bl	408d80 <_ZNSolsEPKv@plt>
  410940:	aa0003e2 	mov	x2, x0
  410944:	b0000040 	adrp	x0, 419000 <_IO_stdin_used+0x8>
  410948:	91010001 	add	x1, x0, #0x40
  41094c:	aa0203e0 	mov	x0, x2
  410950:	97ffe168 	bl	408ef0 <_ZStlsISt11char_traitsIcEERSt13basic_ostreamIcT_ES5_PKc@plt>
  410954:	f94013e1 	ldr	x1, [sp,#32]
  410958:	97ffe10a 	bl	408d80 <_ZNSolsEPKv@plt>
  41095c:	aa0003e2 	mov	x2, x0
  410960:	b0000040 	adrp	x0, 419000 <_IO_stdin_used+0x8>
  410964:	91014001 	add	x1, x0, #0x50
  410968:	aa0203e0 	mov	x0, x2
  41096c:	97ffe161 	bl	408ef0 <_ZStlsISt11char_traitsIcEERSt13basic_ostreamIcT_ES5_PKc@plt>
  410970:	aa0003e2 	mov	x2, x0
  410974:	f9400fe0 	ldr	x0, [sp,#24]
  410978:	f9400000 	ldr	x0, [x0]
  41097c:	aa0003e1 	mov	x1, x0
  410980:	aa0203e0 	mov	x0, x2
  410984:	97ffe2af 	bl	409440 <_ZNSolsEl@plt>
  410988:	aa0003e2 	mov	x2, x0
  41098c:	90ffffc0 	adrp	x0, 408000 <_init-0x970>
  410990:	912ec001 	add	x1, x0, #0xbb0
  410994:	aa0203e0 	mov	x0, x2
  410998:	97ffe16a 	bl	408f40 <_ZNSolsEPFRSoS_E@plt>
  41099c:	f9400fe1 	ldr	x1, [sp,#24]
  4109a0:	f9400023 	ldr	x3, [x1]
  4109a4:	f9400be1 	ldr	x1, [sp,#16]
  4109a8:	b9400025 	ldr	w5, [x1]
  4109ac:	f94017e2 	ldr	x2, [sp,#40]
  4109b0:	f94013e6 	ldr	x6, [sp,#32]
  4109b4:	d2800001 	mov	x1, #0x0                   	// #0
  4109b8:	aa0503e4 	mov	x4, x5
  4109bc:	adc80440 	ldp	q0, q1, [x2,#256]!
  4109c0:	ad8804c0 	stp	q0, q1, [x6,#256]!
  4109c4:	adc80440 	ldp	q0, q1, [x2,#256]!
  4109c8:	ad8804c0 	stp	q0, q1, [x6,#256]!
  4109cc:	adc80440 	ldp	q0, q1, [x2,#256]!
  4109d0:	adc80440 	ldp	q0, q1, [x2,#256]!
  4109d4:	aa1e03eb 	mov	x11, x30
  4109d8:	97ffe32b 	bl	409684 <nop_>
  4109dc:	aa0b03fe 	mov	x30, x11
  4109e0:	ad8804c0 	stp	q0, q1, [x6,#256]!
  4109e4:	adc80440 	ldp	q0, q1, [x2,#256]!
  4109e8:	adc80440 	ldp	q0, q1, [x2,#256]!
  4109ec:	adc80440 	ldp	q0, q1, [x2,#256]!
  4109f0:	ad8804c0 	stp	q0, q1, [x6,#256]!
  4109f4:	adc80440 	ldp	q0, q1, [x2,#256]!
  4109f8:	aa1e03eb 	mov	x11, x30
  4109fc:	97ffe322 	bl	409684 <nop_>
  410a00:	aa0b03fe 	mov	x30, x11
  410a04:	adc80440 	ldp	q0, q1, [x2,#256]!
  410a08:	ad8804c0 	stp	q0, q1, [x6,#256]!
  410a0c:	adc80440 	ldp	q0, q1, [x2,#256]!
  410a10:	ad8804c0 	stp	q0, q1, [x6,#256]!
  410a14:	adc80440 	ldp	q0, q1, [x2,#256]!
  410a18:	adc80440 	ldp	q0, q1, [x2,#256]!
  410a1c:	aa1e03eb 	mov	x11, x30
  410a20:	97ffe319 	bl	409684 <nop_>
  410a24:	aa0b03fe 	mov	x30, x11
  410a28:	ad8804c0 	stp	q0, q1, [x6,#256]!
  410a2c:	adc80440 	ldp	q0, q1, [x2,#256]!
  410a30:	adc80440 	ldp	q0, q1, [x2,#256]!
  410a34:	ad8804c0 	stp	q0, q1, [x6,#256]!
  410a38:	adc80440 	ldp	q0, q1, [x2,#256]!
  410a3c:	adc80440 	ldp	q0, q1, [x2,#256]!
  410a40:	aa1e03eb 	mov	x11, x30
  410a44:	97ffe310 	bl	409684 <nop_>
  410a48:	aa0b03fe 	mov	x30, x11
  410a4c:	ad8804c0 	stp	q0, q1, [x6,#256]!
  410a50:	adc80440 	ldp	q0, q1, [x2,#256]!
  410a54:	adc80440 	ldp	q0, q1, [x2,#256]!
  410a58:	adc80440 	ldp	q0, q1, [x2,#256]!
  410a5c:	adc80440 	ldp	q0, q1, [x2,#256]!
  410a60:	ad8804c0 	stp	q0, q1, [x6,#256]!
  410a64:	aa1e03eb 	mov	x11, x30
  410a68:	97ffe307 	bl	409684 <nop_>
  410a6c:	aa0b03fe 	mov	x30, x11
  410a70:	adc80440 	ldp	q0, q1, [x2,#256]!
  410a74:	ad8804c0 	stp	q0, q1, [x6,#256]!
  410a78:	adc80440 	ldp	q0, q1, [x2,#256]!
  410a7c:	ad8804c0 	stp	q0, q1, [x6,#256]!
  410a80:	adc80440 	ldp	q0, q1, [x2,#256]!
  410a84:	adc80440 	ldp	q0, q1, [x2,#256]!
  410a88:	aa1e03eb 	mov	x11, x30
  410a8c:	97ffe2fe 	bl	409684 <nop_>
  410a90:	aa0b03fe 	mov	x30, x11
  410a94:	adc80440 	ldp	q0, q1, [x2,#256]!
  410a98:	adc80440 	ldp	q0, q1, [x2,#256]!
  410a9c:	ad8804c0 	stp	q0, q1, [x6,#256]!
  410aa0:	adc80440 	ldp	q0, q1, [x2,#256]!
  410aa4:	adc80440 	ldp	q0, q1, [x2,#256]!
  410aa8:	ad8804c0 	stp	q0, q1, [x6,#256]!
  410aac:	aa1e03eb 	mov	x11, x30
  410ab0:	97ffe2f5 	bl	409684 <nop_>
  410ab4:	aa0b03fe 	mov	x30, x11
  410ab8:	adc80440 	ldp	q0, q1, [x2,#256]!
  410abc:	ad8804c0 	stp	q0, q1, [x6,#256]!
  410ac0:	adc80440 	ldp	q0, q1, [x2,#256]!
  410ac4:	adc80440 	ldp	q0, q1, [x2,#256]!
  410ac8:	adc80440 	ldp	q0, q1, [x2,#256]!
  410acc:	ad8804c0 	stp	q0, q1, [x6,#256]!
  410ad0:	aa1e03eb 	mov	x11, x30
  410ad4:	97ffe2ec 	bl	409684 <nop_>
  410ad8:	aa0b03fe 	mov	x30, x11
  410adc:	adc80440 	ldp	q0, q1, [x2,#256]!
  410ae0:	ad8804c0 	stp	q0, q1, [x6,#256]!
  410ae4:	adc80440 	ldp	q0, q1, [x2,#256]!
  410ae8:	adc80440 	ldp	q0, q1, [x2,#256]!
  410aec:	adc80440 	ldp	q0, q1, [x2,#256]!
  410af0:	adc80440 	ldp	q0, q1, [x2,#256]!
  410af4:	aa1e03eb 	mov	x11, x30
  410af8:	97ffe2e3 	bl	409684 <nop_>
  410afc:	aa0b03fe 	mov	x30, x11
  410b00:	adc80440 	ldp	q0, q1, [x2,#256]!
  410b04:	adc80440 	ldp	q0, q1, [x2,#256]!
  410b08:	adc80440 	ldp	q0, q1, [x2,#256]!
  410b0c:	ad8804c0 	stp	q0, q1, [x6,#256]!
  410b10:	adc80440 	ldp	q0, q1, [x2,#256]!
  410b14:	adc80440 	ldp	q0, q1, [x2,#256]!
  410b18:	aa1e03eb 	mov	x11, x30
  410b1c:	97ffe2da 	bl	409684 <nop_>
  410b20:	aa0b03fe 	mov	x30, x11
  410b24:	adc80440 	ldp	q0, q1, [x2,#256]!
  410b28:	adc80440 	ldp	q0, q1, [x2,#256]!
  410b2c:	ad8804c0 	stp	q0, q1, [x6,#256]!
  410b30:	adc80440 	ldp	q0, q1, [x2,#256]!
  410b34:	adc80440 	ldp	q0, q1, [x2,#256]!
  410b38:	adc80440 	ldp	q0, q1, [x2,#256]!
  410b3c:	aa1e03eb 	mov	x11, x30
  410b40:	97ffe2d1 	bl	409684 <nop_>
  410b44:	aa0b03fe 	mov	x30, x11
  410b48:	ad8804c0 	stp	q0, q1, [x6,#256]!
  410b4c:	adc80440 	ldp	q0, q1, [x2,#256]!
  410b50:	adc80440 	ldp	q0, q1, [x2,#256]!
  410b54:	ad8804c0 	stp	q0, q1, [x6,#256]!
  410b58:	adc80440 	ldp	q0, q1, [x2,#256]!
  410b5c:	adc80440 	ldp	q0, q1, [x2,#256]!
  410b60:	aa1e03eb 	mov	x11, x30
  410b64:	97ffe2c8 	bl	409684 <nop_>
  410b68:	aa0b03fe 	mov	x30, x11
  410b6c:	adc80440 	ldp	q0, q1, [x2,#256]!
  410b70:	adc80440 	ldp	q0, q1, [x2,#256]!
  410b74:	ad8804c0 	stp	q0, q1, [x6,#256]!
  410b78:	adc80440 	ldp	q0, q1, [x2,#256]!
  410b7c:	adc80440 	ldp	q0, q1, [x2,#256]!
  410b80:	ad8804c0 	stp	q0, q1, [x6,#256]!
  410b84:	aa1e03eb 	mov	x11, x30
  410b88:	97ffe2bf 	bl	409684 <nop_>
  410b8c:	aa0b03fe 	mov	x30, x11
  410b90:	ad8804c0 	stp	q0, q1, [x6,#256]!
  410b94:	adc80440 	ldp	q0, q1, [x2,#256]!
  410b98:	adc80440 	ldp	q0, q1, [x2,#256]!
  410b9c:	ad8804c0 	stp	q0, q1, [x6,#256]!
  410ba0:	adc80440 	ldp	q0, q1, [x2,#256]!
  410ba4:	adc80440 	ldp	q0, q1, [x2,#256]!
  410ba8:	aa1e03eb 	mov	x11, x30
  410bac:	97ffe2b6 	bl	409684 <nop_>
  410bb0:	aa0b03fe 	mov	x30, x11
  410bb4:	ad8804c0 	stp	q0, q1, [x6,#256]!
  410bb8:	adc80440 	ldp	q0, q1, [x2,#256]!
  410bbc:	adc80440 	ldp	q0, q1, [x2,#256]!
  410bc0:	ad8804c0 	stp	q0, q1, [x6,#256]!
  410bc4:	adc80440 	ldp	q0, q1, [x2,#256]!
  410bc8:	adc80440 	ldp	q0, q1, [x2,#256]!
  410bcc:	aa1e03eb 	mov	x11, x30
  410bd0:	97ffe2ad 	bl	409684 <nop_>
  410bd4:	aa0b03fe 	mov	x30, x11
  410bd8:	adc80440 	ldp	q0, q1, [x2,#256]!
  410bdc:	ad8804c0 	stp	q0, q1, [x6,#256]!
  410be0:	adc80440 	ldp	q0, q1, [x2,#256]!
  410be4:	adc80440 	ldp	q0, q1, [x2,#256]!
  410be8:	adc80440 	ldp	q0, q1, [x2,#256]!
  410bec:	ad8804c0 	stp	q0, q1, [x6,#256]!
  410bf0:	aa1e03eb 	mov	x11, x30
  410bf4:	97ffe2a4 	bl	409684 <nop_>
  410bf8:	aa0b03fe 	mov	x30, x11
  410bfc:	adc80440 	ldp	q0, q1, [x2,#256]!
  410c00:	adc80440 	ldp	q0, q1, [x2,#256]!
  410c04:	adc80440 	ldp	q0, q1, [x2,#256]!
  410c08:	ad8804c0 	stp	q0, q1, [x6,#256]!
  410c0c:	aa1e03eb 	mov	x11, x30
  410c10:	97ffe29d 	bl	409684 <nop_>
  410c14:	aa0b03fe 	mov	x30, x11
  410c18:	91320021 	add	x1, x1, #0xc80
  410c1c:	eb03003f 	cmp	x1, x3
  410c20:	54017c4d 	b.le	413ba8 <_Z15STREAM_copy_100PdS_PlPKi+0xe0>
  410c24:	d503201f 	nop
  410c28:	a8c37bfd 	ldp	x29, x30, [sp],#48
  410c2c:	d65f03c0 	ret

0000000000410c30 <_Z14STREAM_copy_72PdS_PlPKi>:
  410c30:	a9bd7bfd 	stp	x29, x30, [sp,#-48]!
  410c34:	910003fd 	mov	x29, sp
  410c38:	f90017e0 	str	x0, [sp,#40]
  410c3c:	f90013e1 	str	x1, [sp,#32]
  410c40:	f9000fe2 	str	x2, [sp,#24]
  410c44:	f9000be3 	str	x3, [sp,#16]
  410c48:	d2800000 	mov	x0, #0x0                   	// #0
  410c4c:	b0000040 	adrp	x0, 419000 <_IO_stdin_used+0x8>
  410c50:	91008001 	add	x1, x0, #0x20
  410c54:	d00000e0 	adrp	x0, 42e000 <_Znam@GLIBCXX_3.4>
  410c58:	91286000 	add	x0, x0, #0xa18
  410c5c:	97ffe0a5 	bl	408ef0 <_ZStlsISt11char_traitsIcEERSt13basic_ostreamIcT_ES5_PKc@plt>
  410c60:	aa0003e2 	mov	x2, x0
  410c64:	f9400be0 	ldr	x0, [sp,#16]
  410c68:	b9400000 	ldr	w0, [x0]
  410c6c:	2a0003e1 	mov	w1, w0
  410c70:	aa0203e0 	mov	x0, x2
  410c74:	97ffe1d3 	bl	4093c0 <_ZNSolsEi@plt>
  410c78:	aa0003e2 	mov	x2, x0
  410c7c:	b0000040 	adrp	x0, 419000 <_IO_stdin_used+0x8>
  410c80:	9100c001 	add	x1, x0, #0x30
  410c84:	aa0203e0 	mov	x0, x2
  410c88:	97ffe09a 	bl	408ef0 <_ZStlsISt11char_traitsIcEERSt13basic_ostreamIcT_ES5_PKc@plt>
  410c8c:	f94017e1 	ldr	x1, [sp,#40]
  410c90:	97ffe03c 	bl	408d80 <_ZNSolsEPKv@plt>
  410c94:	aa0003e2 	mov	x2, x0
  410c98:	b0000040 	adrp	x0, 419000 <_IO_stdin_used+0x8>
  410c9c:	91010001 	add	x1, x0, #0x40
  410ca0:	aa0203e0 	mov	x0, x2
  410ca4:	97ffe093 	bl	408ef0 <_ZStlsISt11char_traitsIcEERSt13basic_ostreamIcT_ES5_PKc@plt>
  410ca8:	f94013e1 	ldr	x1, [sp,#32]
  410cac:	97ffe035 	bl	408d80 <_ZNSolsEPKv@plt>
  410cb0:	aa0003e2 	mov	x2, x0
  410cb4:	b0000040 	adrp	x0, 419000 <_IO_stdin_used+0x8>
  410cb8:	91014001 	add	x1, x0, #0x50
  410cbc:	aa0203e0 	mov	x0, x2
  410cc0:	97ffe08c 	bl	408ef0 <_ZStlsISt11char_traitsIcEERSt13basic_ostreamIcT_ES5_PKc@plt>
  410cc4:	aa0003e2 	mov	x2, x0
  410cc8:	f9400fe0 	ldr	x0, [sp,#24]
  410ccc:	f9400000 	ldr	x0, [x0]
  410cd0:	aa0003e1 	mov	x1, x0
  410cd4:	aa0203e0 	mov	x0, x2
  410cd8:	97ffe1da 	bl	409440 <_ZNSolsEl@plt>
  410cdc:	aa0003e2 	mov	x2, x0
  410ce0:	90ffffc0 	adrp	x0, 408000 <_init-0x970>
  410ce4:	912ec001 	add	x1, x0, #0xbb0
  410ce8:	aa0203e0 	mov	x0, x2
  410cec:	97ffe095 	bl	408f40 <_ZNSolsEPFRSoS_E@plt>
  410cf0:	f9400fe1 	ldr	x1, [sp,#24]
  410cf4:	f9400023 	ldr	x3, [x1]
  410cf8:	f9400be1 	ldr	x1, [sp,#16]
  410cfc:	b9400025 	ldr	w5, [x1]
  410d00:	f94017e2 	ldr	x2, [sp,#40]
  410d04:	f94013e6 	ldr	x6, [sp,#32]
  410d08:	d2800001 	mov	x1, #0x0                   	// #0
  410d0c:	aa0503e4 	mov	x4, x5
  410d10:	adc80440 	ldp	q0, q1, [x2,#256]!
  410d14:	ad8804c0 	stp	q0, q1, [x6,#256]!
  410d18:	adc80440 	ldp	q0, q1, [x2,#256]!
  410d1c:	ad8804c0 	stp	q0, q1, [x6,#256]!
  410d20:	adc80440 	ldp	q0, q1, [x2,#256]!
  410d24:	adc80440 	ldp	q0, q1, [x2,#256]!
  410d28:	aa1e03eb 	mov	x11, x30
  410d2c:	97ffe256 	bl	409684 <nop_>
  410d30:	aa0b03fe 	mov	x30, x11
  410d34:	ad8804c0 	stp	q0, q1, [x6,#256]!
  410d38:	adc80440 	ldp	q0, q1, [x2,#256]!
  410d3c:	adc80440 	ldp	q0, q1, [x2,#256]!
  410d40:	adc80440 	ldp	q0, q1, [x2,#256]!
  410d44:	ad8804c0 	stp	q0, q1, [x6,#256]!
  410d48:	adc80440 	ldp	q0, q1, [x2,#256]!
  410d4c:	aa1e03eb 	mov	x11, x30
  410d50:	97ffe24d 	bl	409684 <nop_>
  410d54:	aa0b03fe 	mov	x30, x11
  410d58:	adc80440 	ldp	q0, q1, [x2,#256]!
  410d5c:	adc80440 	ldp	q0, q1, [x2,#256]!
  410d60:	adc80440 	ldp	q0, q1, [x2,#256]!
  410d64:	ad8804c0 	stp	q0, q1, [x6,#256]!
  410d68:	adc80440 	ldp	q0, q1, [x2,#256]!
  410d6c:	adc80440 	ldp	q0, q1, [x2,#256]!
  410d70:	aa1e03eb 	mov	x11, x30
  410d74:	97ffe244 	bl	409684 <nop_>
  410d78:	aa0b03fe 	mov	x30, x11
  410d7c:	ad8804c0 	stp	q0, q1, [x6,#256]!
  410d80:	adc80440 	ldp	q0, q1, [x2,#256]!
  410d84:	adc80440 	ldp	q0, q1, [x2,#256]!
  410d88:	ad8804c0 	stp	q0, q1, [x6,#256]!
  410d8c:	adc80440 	ldp	q0, q1, [x2,#256]!
  410d90:	adc80440 	ldp	q0, q1, [x2,#256]!
  410d94:	aa1e03eb 	mov	x11, x30
  410d98:	97ffe23b 	bl	409684 <nop_>
  410d9c:	aa0b03fe 	mov	x30, x11
  410da0:	ad8804c0 	stp	q0, q1, [x6,#256]!
  410da4:	adc80440 	ldp	q0, q1, [x2,#256]!
  410da8:	adc80440 	ldp	q0, q1, [x2,#256]!
  410dac:	adc80440 	ldp	q0, q1, [x2,#256]!
  410db0:	adc80440 	ldp	q0, q1, [x2,#256]!
  410db4:	ad8804c0 	stp	q0, q1, [x6,#256]!
  410db8:	aa1e03eb 	mov	x11, x30
  410dbc:	97ffe232 	bl	409684 <nop_>
  410dc0:	aa0b03fe 	mov	x30, x11
  410dc4:	adc80440 	ldp	q0, q1, [x2,#256]!
  410dc8:	adc80440 	ldp	q0, q1, [x2,#256]!
  410dcc:	adc80440 	ldp	q0, q1, [x2,#256]!
  410dd0:	ad8804c0 	stp	q0, q1, [x6,#256]!
  410dd4:	adc80440 	ldp	q0, q1, [x2,#256]!
  410dd8:	adc80440 	ldp	q0, q1, [x2,#256]!
  410ddc:	aa1e03eb 	mov	x11, x30
  410de0:	97ffe229 	bl	409684 <nop_>
  410de4:	aa0b03fe 	mov	x30, x11
  410de8:	adc80440 	ldp	q0, q1, [x2,#256]!
  410dec:	adc80440 	ldp	q0, q1, [x2,#256]!
  410df0:	ad8804c0 	stp	q0, q1, [x6,#256]!
  410df4:	adc80440 	ldp	q0, q1, [x2,#256]!
  410df8:	adc80440 	ldp	q0, q1, [x2,#256]!
  410dfc:	ad8804c0 	stp	q0, q1, [x6,#256]!
  410e00:	aa1e03eb 	mov	x11, x30
  410e04:	97ffe220 	bl	409684 <nop_>
  410e08:	aa0b03fe 	mov	x30, x11
  410e0c:	adc80440 	ldp	q0, q1, [x2,#256]!
  410e10:	ad8804c0 	stp	q0, q1, [x6,#256]!
  410e14:	adc80440 	ldp	q0, q1, [x2,#256]!
  410e18:	adc80440 	ldp	q0, q1, [x2,#256]!
  410e1c:	adc80440 	ldp	q0, q1, [x2,#256]!
  410e20:	ad8804c0 	stp	q0, q1, [x6,#256]!
  410e24:	aa1e03eb 	mov	x11, x30
  410e28:	97ffe217 	bl	409684 <nop_>
  410e2c:	aa0b03fe 	mov	x30, x11
  410e30:	adc80440 	ldp	q0, q1, [x2,#256]!
  410e34:	ad8804c0 	stp	q0, q1, [x6,#256]!
  410e38:	adc80440 	ldp	q0, q1, [x2,#256]!
  410e3c:	adc80440 	ldp	q0, q1, [x2,#256]!
  410e40:	adc80440 	ldp	q0, q1, [x2,#256]!
  410e44:	adc80440 	ldp	q0, q1, [x2,#256]!
  410e48:	aa1e03eb 	mov	x11, x30
  410e4c:	97ffe20e 	bl	409684 <nop_>
  410e50:	aa0b03fe 	mov	x30, x11
  410e54:	adc80440 	ldp	q0, q1, [x2,#256]!
  410e58:	adc80440 	ldp	q0, q1, [x2,#256]!
  410e5c:	adc80440 	ldp	q0, q1, [x2,#256]!
  410e60:	ad8804c0 	stp	q0, q1, [x6,#256]!
  410e64:	adc80440 	ldp	q0, q1, [x2,#256]!
  410e68:	adc80440 	ldp	q0, q1, [x2,#256]!
  410e6c:	aa1e03eb 	mov	x11, x30
  410e70:	97ffe205 	bl	409684 <nop_>
  410e74:	aa0b03fe 	mov	x30, x11
  410e78:	adc80440 	ldp	q0, q1, [x2,#256]!
  410e7c:	adc80440 	ldp	q0, q1, [x2,#256]!
  410e80:	ad8804c0 	stp	q0, q1, [x6,#256]!
  410e84:	adc80440 	ldp	q0, q1, [x2,#256]!
  410e88:	adc80440 	ldp	q0, q1, [x2,#256]!
  410e8c:	adc80440 	ldp	q0, q1, [x2,#256]!
  410e90:	aa1e03eb 	mov	x11, x30
  410e94:	97ffe1fc 	bl	409684 <nop_>
  410e98:	aa0b03fe 	mov	x30, x11
  410e9c:	ad8804c0 	stp	q0, q1, [x6,#256]!
  410ea0:	adc80440 	ldp	q0, q1, [x2,#256]!
  410ea4:	adc80440 	ldp	q0, q1, [x2,#256]!
  410ea8:	ad8804c0 	stp	q0, q1, [x6,#256]!
  410eac:	adc80440 	ldp	q0, q1, [x2,#256]!
  410eb0:	adc80440 	ldp	q0, q1, [x2,#256]!
  410eb4:	aa1e03eb 	mov	x11, x30
  410eb8:	97ffe1f3 	bl	409684 <nop_>
  410ebc:	aa0b03fe 	mov	x30, x11
  410ec0:	adc80440 	ldp	q0, q1, [x2,#256]!
  410ec4:	adc80440 	ldp	q0, q1, [x2,#256]!
  410ec8:	ad8804c0 	stp	q0, q1, [x6,#256]!
  410ecc:	adc80440 	ldp	q0, q1, [x2,#256]!
  410ed0:	adc80440 	ldp	q0, q1, [x2,#256]!
  410ed4:	ad8804c0 	stp	q0, q1, [x6,#256]!
  410ed8:	aa1e03eb 	mov	x11, x30
  410edc:	97ffe1ea 	bl	409684 <nop_>
  410ee0:	aa0b03fe 	mov	x30, x11
  410ee4:	ad8804c0 	stp	q0, q1, [x6,#256]!
  410ee8:	adc80440 	ldp	q0, q1, [x2,#256]!
  410eec:	adc80440 	ldp	q0, q1, [x2,#256]!
  410ef0:	ad8804c0 	stp	q0, q1, [x6,#256]!
  410ef4:	adc80440 	ldp	q0, q1, [x2,#256]!
  410ef8:	adc80440 	ldp	q0, q1, [x2,#256]!
  410efc:	aa1e03eb 	mov	x11, x30
  410f00:	97ffe1e1 	bl	409684 <nop_>
  410f04:	aa0b03fe 	mov	x30, x11
  410f08:	ad8804c0 	stp	q0, q1, [x6,#256]!
  410f0c:	adc80440 	ldp	q0, q1, [x2,#256]!
  410f10:	adc80440 	ldp	q0, q1, [x2,#256]!
  410f14:	ad8804c0 	stp	q0, q1, [x6,#256]!
  410f18:	adc80440 	ldp	q0, q1, [x2,#256]!
  410f1c:	adc80440 	ldp	q0, q1, [x2,#256]!
  410f20:	aa1e03eb 	mov	x11, x30
  410f24:	97ffe1d8 	bl	409684 <nop_>
  410f28:	aa0b03fe 	mov	x30, x11
  410f2c:	adc80440 	ldp	q0, q1, [x2,#256]!
  410f30:	ad8804c0 	stp	q0, q1, [x6,#256]!
  410f34:	adc80440 	ldp	q0, q1, [x2,#256]!
  410f38:	adc80440 	ldp	q0, q1, [x2,#256]!
  410f3c:	adc80440 	ldp	q0, q1, [x2,#256]!
  410f40:	ad8804c0 	stp	q0, q1, [x6,#256]!
  410f44:	aa1e03eb 	mov	x11, x30
  410f48:	97ffe1cf 	bl	409684 <nop_>
  410f4c:	aa0b03fe 	mov	x30, x11
  410f50:	adc80440 	ldp	q0, q1, [x2,#256]!
  410f54:	adc80440 	ldp	q0, q1, [x2,#256]!
  410f58:	adc80440 	ldp	q0, q1, [x2,#256]!
  410f5c:	ad8804c0 	stp	q0, q1, [x6,#256]!
  410f60:	aa1e03eb 	mov	x11, x30
  410f64:	97ffe1c8 	bl	409684 <nop_>
  410f68:	aa0b03fe 	mov	x30, x11
  410f6c:	91320021 	add	x1, x1, #0xc80
  410f70:	eb03003f 	cmp	x1, x3
  410f74:	540161ad 	b.le	413ba8 <_Z15STREAM_copy_100PdS_PlPKi+0xe0>
  410f78:	d503201f 	nop
  410f7c:	a8c37bfd 	ldp	x29, x30, [sp],#48
  410f80:	d65f03c0 	ret

0000000000410f84 <_Z14STREAM_copy_74PdS_PlPKi>:
  410f84:	a9bd7bfd 	stp	x29, x30, [sp,#-48]!
  410f88:	910003fd 	mov	x29, sp
  410f8c:	f90017e0 	str	x0, [sp,#40]
  410f90:	f90013e1 	str	x1, [sp,#32]
  410f94:	f9000fe2 	str	x2, [sp,#24]
  410f98:	f9000be3 	str	x3, [sp,#16]
  410f9c:	d2800000 	mov	x0, #0x0                   	// #0
  410fa0:	b0000040 	adrp	x0, 419000 <_IO_stdin_used+0x8>
  410fa4:	91008001 	add	x1, x0, #0x20
  410fa8:	d00000e0 	adrp	x0, 42e000 <_Znam@GLIBCXX_3.4>
  410fac:	91286000 	add	x0, x0, #0xa18
  410fb0:	97ffdfd0 	bl	408ef0 <_ZStlsISt11char_traitsIcEERSt13basic_ostreamIcT_ES5_PKc@plt>
  410fb4:	aa0003e2 	mov	x2, x0
  410fb8:	f9400be0 	ldr	x0, [sp,#16]
  410fbc:	b9400000 	ldr	w0, [x0]
  410fc0:	2a0003e1 	mov	w1, w0
  410fc4:	aa0203e0 	mov	x0, x2
  410fc8:	97ffe0fe 	bl	4093c0 <_ZNSolsEi@plt>
  410fcc:	aa0003e2 	mov	x2, x0
  410fd0:	b0000040 	adrp	x0, 419000 <_IO_stdin_used+0x8>
  410fd4:	9100c001 	add	x1, x0, #0x30
  410fd8:	aa0203e0 	mov	x0, x2
  410fdc:	97ffdfc5 	bl	408ef0 <_ZStlsISt11char_traitsIcEERSt13basic_ostreamIcT_ES5_PKc@plt>
  410fe0:	f94017e1 	ldr	x1, [sp,#40]
  410fe4:	97ffdf67 	bl	408d80 <_ZNSolsEPKv@plt>
  410fe8:	aa0003e2 	mov	x2, x0
  410fec:	b0000040 	adrp	x0, 419000 <_IO_stdin_used+0x8>
  410ff0:	91010001 	add	x1, x0, #0x40
  410ff4:	aa0203e0 	mov	x0, x2
  410ff8:	97ffdfbe 	bl	408ef0 <_ZStlsISt11char_traitsIcEERSt13basic_ostreamIcT_ES5_PKc@plt>
  410ffc:	f94013e1 	ldr	x1, [sp,#32]
  411000:	97ffdf60 	bl	408d80 <_ZNSolsEPKv@plt>
  411004:	aa0003e2 	mov	x2, x0
  411008:	90000040 	adrp	x0, 419000 <_IO_stdin_used+0x8>
  41100c:	91014001 	add	x1, x0, #0x50
  411010:	aa0203e0 	mov	x0, x2
  411014:	97ffdfb7 	bl	408ef0 <_ZStlsISt11char_traitsIcEERSt13basic_ostreamIcT_ES5_PKc@plt>
  411018:	aa0003e2 	mov	x2, x0
  41101c:	f9400fe0 	ldr	x0, [sp,#24]
  411020:	f9400000 	ldr	x0, [x0]
  411024:	aa0003e1 	mov	x1, x0
  411028:	aa0203e0 	mov	x0, x2
  41102c:	97ffe105 	bl	409440 <_ZNSolsEl@plt>
  411030:	aa0003e2 	mov	x2, x0
  411034:	f0ffffa0 	adrp	x0, 408000 <_init-0x970>
  411038:	912ec001 	add	x1, x0, #0xbb0
  41103c:	aa0203e0 	mov	x0, x2
  411040:	97ffdfc0 	bl	408f40 <_ZNSolsEPFRSoS_E@plt>
  411044:	f9400fe1 	ldr	x1, [sp,#24]
  411048:	f9400023 	ldr	x3, [x1]
  41104c:	f9400be1 	ldr	x1, [sp,#16]
  411050:	b9400025 	ldr	w5, [x1]
  411054:	f94017e2 	ldr	x2, [sp,#40]
  411058:	f94013e6 	ldr	x6, [sp,#32]
  41105c:	d2800001 	mov	x1, #0x0                   	// #0
  411060:	aa0503e4 	mov	x4, x5
  411064:	adc80440 	ldp	q0, q1, [x2,#256]!
  411068:	ad8804c0 	stp	q0, q1, [x6,#256]!
  41106c:	adc80440 	ldp	q0, q1, [x2,#256]!
  411070:	ad8804c0 	stp	q0, q1, [x6,#256]!
  411074:	adc80440 	ldp	q0, q1, [x2,#256]!
  411078:	adc80440 	ldp	q0, q1, [x2,#256]!
  41107c:	aa1e03eb 	mov	x11, x30
  411080:	97ffe181 	bl	409684 <nop_>
  411084:	aa0b03fe 	mov	x30, x11
  411088:	ad8804c0 	stp	q0, q1, [x6,#256]!
  41108c:	adc80440 	ldp	q0, q1, [x2,#256]!
  411090:	adc80440 	ldp	q0, q1, [x2,#256]!
  411094:	adc80440 	ldp	q0, q1, [x2,#256]!
  411098:	ad8804c0 	stp	q0, q1, [x6,#256]!
  41109c:	adc80440 	ldp	q0, q1, [x2,#256]!
  4110a0:	aa1e03eb 	mov	x11, x30
  4110a4:	97ffe178 	bl	409684 <nop_>
  4110a8:	aa0b03fe 	mov	x30, x11
  4110ac:	adc80440 	ldp	q0, q1, [x2,#256]!
  4110b0:	adc80440 	ldp	q0, q1, [x2,#256]!
  4110b4:	adc80440 	ldp	q0, q1, [x2,#256]!
  4110b8:	ad8804c0 	stp	q0, q1, [x6,#256]!
  4110bc:	adc80440 	ldp	q0, q1, [x2,#256]!
  4110c0:	adc80440 	ldp	q0, q1, [x2,#256]!
  4110c4:	aa1e03eb 	mov	x11, x30
  4110c8:	97ffe16f 	bl	409684 <nop_>
  4110cc:	aa0b03fe 	mov	x30, x11
  4110d0:	ad8804c0 	stp	q0, q1, [x6,#256]!
  4110d4:	adc80440 	ldp	q0, q1, [x2,#256]!
  4110d8:	adc80440 	ldp	q0, q1, [x2,#256]!
  4110dc:	ad8804c0 	stp	q0, q1, [x6,#256]!
  4110e0:	adc80440 	ldp	q0, q1, [x2,#256]!
  4110e4:	adc80440 	ldp	q0, q1, [x2,#256]!
  4110e8:	aa1e03eb 	mov	x11, x30
  4110ec:	97ffe166 	bl	409684 <nop_>
  4110f0:	aa0b03fe 	mov	x30, x11
  4110f4:	ad8804c0 	stp	q0, q1, [x6,#256]!
  4110f8:	adc80440 	ldp	q0, q1, [x2,#256]!
  4110fc:	adc80440 	ldp	q0, q1, [x2,#256]!
  411100:	adc80440 	ldp	q0, q1, [x2,#256]!
  411104:	adc80440 	ldp	q0, q1, [x2,#256]!
  411108:	ad8804c0 	stp	q0, q1, [x6,#256]!
  41110c:	aa1e03eb 	mov	x11, x30
  411110:	97ffe15d 	bl	409684 <nop_>
  411114:	aa0b03fe 	mov	x30, x11
  411118:	adc80440 	ldp	q0, q1, [x2,#256]!
  41111c:	adc80440 	ldp	q0, q1, [x2,#256]!
  411120:	adc80440 	ldp	q0, q1, [x2,#256]!
  411124:	ad8804c0 	stp	q0, q1, [x6,#256]!
  411128:	adc80440 	ldp	q0, q1, [x2,#256]!
  41112c:	adc80440 	ldp	q0, q1, [x2,#256]!
  411130:	aa1e03eb 	mov	x11, x30
  411134:	97ffe154 	bl	409684 <nop_>
  411138:	aa0b03fe 	mov	x30, x11
  41113c:	adc80440 	ldp	q0, q1, [x2,#256]!
  411140:	adc80440 	ldp	q0, q1, [x2,#256]!
  411144:	ad8804c0 	stp	q0, q1, [x6,#256]!
  411148:	adc80440 	ldp	q0, q1, [x2,#256]!
  41114c:	adc80440 	ldp	q0, q1, [x2,#256]!
  411150:	ad8804c0 	stp	q0, q1, [x6,#256]!
  411154:	aa1e03eb 	mov	x11, x30
  411158:	97ffe14b 	bl	409684 <nop_>
  41115c:	aa0b03fe 	mov	x30, x11
  411160:	adc80440 	ldp	q0, q1, [x2,#256]!
  411164:	ad8804c0 	stp	q0, q1, [x6,#256]!
  411168:	adc80440 	ldp	q0, q1, [x2,#256]!
  41116c:	adc80440 	ldp	q0, q1, [x2,#256]!
  411170:	adc80440 	ldp	q0, q1, [x2,#256]!
  411174:	ad8804c0 	stp	q0, q1, [x6,#256]!
  411178:	aa1e03eb 	mov	x11, x30
  41117c:	97ffe142 	bl	409684 <nop_>
  411180:	aa0b03fe 	mov	x30, x11
  411184:	adc80440 	ldp	q0, q1, [x2,#256]!
  411188:	ad8804c0 	stp	q0, q1, [x6,#256]!
  41118c:	adc80440 	ldp	q0, q1, [x2,#256]!
  411190:	adc80440 	ldp	q0, q1, [x2,#256]!
  411194:	adc80440 	ldp	q0, q1, [x2,#256]!
  411198:	adc80440 	ldp	q0, q1, [x2,#256]!
  41119c:	aa1e03eb 	mov	x11, x30
  4111a0:	97ffe139 	bl	409684 <nop_>
  4111a4:	aa0b03fe 	mov	x30, x11
  4111a8:	adc80440 	ldp	q0, q1, [x2,#256]!
  4111ac:	adc80440 	ldp	q0, q1, [x2,#256]!
  4111b0:	adc80440 	ldp	q0, q1, [x2,#256]!
  4111b4:	ad8804c0 	stp	q0, q1, [x6,#256]!
  4111b8:	adc80440 	ldp	q0, q1, [x2,#256]!
  4111bc:	adc80440 	ldp	q0, q1, [x2,#256]!
  4111c0:	aa1e03eb 	mov	x11, x30
  4111c4:	97ffe130 	bl	409684 <nop_>
  4111c8:	aa0b03fe 	mov	x30, x11
  4111cc:	adc80440 	ldp	q0, q1, [x2,#256]!
  4111d0:	adc80440 	ldp	q0, q1, [x2,#256]!
  4111d4:	ad8804c0 	stp	q0, q1, [x6,#256]!
  4111d8:	adc80440 	ldp	q0, q1, [x2,#256]!
  4111dc:	adc80440 	ldp	q0, q1, [x2,#256]!
  4111e0:	adc80440 	ldp	q0, q1, [x2,#256]!
  4111e4:	aa1e03eb 	mov	x11, x30
  4111e8:	97ffe127 	bl	409684 <nop_>
  4111ec:	aa0b03fe 	mov	x30, x11
  4111f0:	ad8804c0 	stp	q0, q1, [x6,#256]!
  4111f4:	adc80440 	ldp	q0, q1, [x2,#256]!
  4111f8:	adc80440 	ldp	q0, q1, [x2,#256]!
  4111fc:	ad8804c0 	stp	q0, q1, [x6,#256]!
  411200:	adc80440 	ldp	q0, q1, [x2,#256]!
  411204:	adc80440 	ldp	q0, q1, [x2,#256]!
  411208:	aa1e03eb 	mov	x11, x30
  41120c:	97ffe11e 	bl	409684 <nop_>
  411210:	aa0b03fe 	mov	x30, x11
  411214:	adc80440 	ldp	q0, q1, [x2,#256]!
  411218:	adc80440 	ldp	q0, q1, [x2,#256]!
  41121c:	ad8804c0 	stp	q0, q1, [x6,#256]!
  411220:	adc80440 	ldp	q0, q1, [x2,#256]!
  411224:	adc80440 	ldp	q0, q1, [x2,#256]!
  411228:	ad8804c0 	stp	q0, q1, [x6,#256]!
  41122c:	aa1e03eb 	mov	x11, x30
  411230:	97ffe115 	bl	409684 <nop_>
  411234:	aa0b03fe 	mov	x30, x11
  411238:	adc80440 	ldp	q0, q1, [x2,#256]!
  41123c:	adc80440 	ldp	q0, q1, [x2,#256]!
  411240:	adc80440 	ldp	q0, q1, [x2,#256]!
  411244:	ad8804c0 	stp	q0, q1, [x6,#256]!
  411248:	adc80440 	ldp	q0, q1, [x2,#256]!
  41124c:	adc80440 	ldp	q0, q1, [x2,#256]!
  411250:	aa1e03eb 	mov	x11, x30
  411254:	97ffe10c 	bl	409684 <nop_>
  411258:	aa0b03fe 	mov	x30, x11
  41125c:	adc80440 	ldp	q0, q1, [x2,#256]!
  411260:	adc80440 	ldp	q0, q1, [x2,#256]!
  411264:	adc80440 	ldp	q0, q1, [x2,#256]!
  411268:	ad8804c0 	stp	q0, q1, [x6,#256]!
  41126c:	adc80440 	ldp	q0, q1, [x2,#256]!
  411270:	adc80440 	ldp	q0, q1, [x2,#256]!
  411274:	aa1e03eb 	mov	x11, x30
  411278:	97ffe103 	bl	409684 <nop_>
  41127c:	aa0b03fe 	mov	x30, x11
  411280:	adc80440 	ldp	q0, q1, [x2,#256]!
  411284:	ad8804c0 	stp	q0, q1, [x6,#256]!
  411288:	adc80440 	ldp	q0, q1, [x2,#256]!
  41128c:	adc80440 	ldp	q0, q1, [x2,#256]!
  411290:	adc80440 	ldp	q0, q1, [x2,#256]!
  411294:	ad8804c0 	stp	q0, q1, [x6,#256]!
  411298:	aa1e03eb 	mov	x11, x30
  41129c:	97ffe0fa 	bl	409684 <nop_>
  4112a0:	aa0b03fe 	mov	x30, x11
  4112a4:	adc80440 	ldp	q0, q1, [x2,#256]!
  4112a8:	adc80440 	ldp	q0, q1, [x2,#256]!
  4112ac:	adc80440 	ldp	q0, q1, [x2,#256]!
  4112b0:	ad8804c0 	stp	q0, q1, [x6,#256]!
  4112b4:	aa1e03eb 	mov	x11, x30
  4112b8:	97ffe0f3 	bl	409684 <nop_>
  4112bc:	aa0b03fe 	mov	x30, x11
  4112c0:	91320021 	add	x1, x1, #0xc80
  4112c4:	eb03003f 	cmp	x1, x3
  4112c8:	5401470d 	b.le	413ba8 <_Z15STREAM_copy_100PdS_PlPKi+0xe0>
  4112cc:	d503201f 	nop
  4112d0:	a8c37bfd 	ldp	x29, x30, [sp],#48
  4112d4:	d65f03c0 	ret

00000000004112d8 <_Z14STREAM_copy_76PdS_PlPKi>:
  4112d8:	a9bd7bfd 	stp	x29, x30, [sp,#-48]!
  4112dc:	910003fd 	mov	x29, sp
  4112e0:	f90017e0 	str	x0, [sp,#40]
  4112e4:	f90013e1 	str	x1, [sp,#32]
  4112e8:	f9000fe2 	str	x2, [sp,#24]
  4112ec:	f9000be3 	str	x3, [sp,#16]
  4112f0:	d2800000 	mov	x0, #0x0                   	// #0
  4112f4:	90000040 	adrp	x0, 419000 <_IO_stdin_used+0x8>
  4112f8:	91008001 	add	x1, x0, #0x20
  4112fc:	b00000e0 	adrp	x0, 42e000 <_Znam@GLIBCXX_3.4>
  411300:	91286000 	add	x0, x0, #0xa18
  411304:	97ffdefb 	bl	408ef0 <_ZStlsISt11char_traitsIcEERSt13basic_ostreamIcT_ES5_PKc@plt>
  411308:	aa0003e2 	mov	x2, x0
  41130c:	f9400be0 	ldr	x0, [sp,#16]
  411310:	b9400000 	ldr	w0, [x0]
  411314:	2a0003e1 	mov	w1, w0
  411318:	aa0203e0 	mov	x0, x2
  41131c:	97ffe029 	bl	4093c0 <_ZNSolsEi@plt>
  411320:	aa0003e2 	mov	x2, x0
  411324:	90000040 	adrp	x0, 419000 <_IO_stdin_used+0x8>
  411328:	9100c001 	add	x1, x0, #0x30
  41132c:	aa0203e0 	mov	x0, x2
  411330:	97ffdef0 	bl	408ef0 <_ZStlsISt11char_traitsIcEERSt13basic_ostreamIcT_ES5_PKc@plt>
  411334:	f94017e1 	ldr	x1, [sp,#40]
  411338:	97ffde92 	bl	408d80 <_ZNSolsEPKv@plt>
  41133c:	aa0003e2 	mov	x2, x0
  411340:	90000040 	adrp	x0, 419000 <_IO_stdin_used+0x8>
  411344:	91010001 	add	x1, x0, #0x40
  411348:	aa0203e0 	mov	x0, x2
  41134c:	97ffdee9 	bl	408ef0 <_ZStlsISt11char_traitsIcEERSt13basic_ostreamIcT_ES5_PKc@plt>
  411350:	f94013e1 	ldr	x1, [sp,#32]
  411354:	97ffde8b 	bl	408d80 <_ZNSolsEPKv@plt>
  411358:	aa0003e2 	mov	x2, x0
  41135c:	90000040 	adrp	x0, 419000 <_IO_stdin_used+0x8>
  411360:	91014001 	add	x1, x0, #0x50
  411364:	aa0203e0 	mov	x0, x2
  411368:	97ffdee2 	bl	408ef0 <_ZStlsISt11char_traitsIcEERSt13basic_ostreamIcT_ES5_PKc@plt>
  41136c:	aa0003e2 	mov	x2, x0
  411370:	f9400fe0 	ldr	x0, [sp,#24]
  411374:	f9400000 	ldr	x0, [x0]
  411378:	aa0003e1 	mov	x1, x0
  41137c:	aa0203e0 	mov	x0, x2
  411380:	97ffe030 	bl	409440 <_ZNSolsEl@plt>
  411384:	aa0003e2 	mov	x2, x0
  411388:	f0ffffa0 	adrp	x0, 408000 <_init-0x970>
  41138c:	912ec001 	add	x1, x0, #0xbb0
  411390:	aa0203e0 	mov	x0, x2
  411394:	97ffdeeb 	bl	408f40 <_ZNSolsEPFRSoS_E@plt>
  411398:	f9400fe1 	ldr	x1, [sp,#24]
  41139c:	f9400023 	ldr	x3, [x1]
  4113a0:	f9400be1 	ldr	x1, [sp,#16]
  4113a4:	b9400025 	ldr	w5, [x1]
  4113a8:	f94017e2 	ldr	x2, [sp,#40]
  4113ac:	f94013e6 	ldr	x6, [sp,#32]
  4113b0:	d2800001 	mov	x1, #0x0                   	// #0
  4113b4:	aa0503e4 	mov	x4, x5
  4113b8:	adc80440 	ldp	q0, q1, [x2,#256]!
  4113bc:	adc80440 	ldp	q0, q1, [x2,#256]!
  4113c0:	adc80440 	ldp	q0, q1, [x2,#256]!
  4113c4:	ad8804c0 	stp	q0, q1, [x6,#256]!
  4113c8:	adc80440 	ldp	q0, q1, [x2,#256]!
  4113cc:	adc80440 	ldp	q0, q1, [x2,#256]!
  4113d0:	aa1e03eb 	mov	x11, x30
  4113d4:	97ffe0ac 	bl	409684 <nop_>
  4113d8:	aa0b03fe 	mov	x30, x11
  4113dc:	ad8804c0 	stp	q0, q1, [x6,#256]!
  4113e0:	adc80440 	ldp	q0, q1, [x2,#256]!
  4113e4:	adc80440 	ldp	q0, q1, [x2,#256]!
  4113e8:	adc80440 	ldp	q0, q1, [x2,#256]!
  4113ec:	ad8804c0 	stp	q0, q1, [x6,#256]!
  4113f0:	adc80440 	ldp	q0, q1, [x2,#256]!
  4113f4:	aa1e03eb 	mov	x11, x30
  4113f8:	97ffe0a3 	bl	409684 <nop_>
  4113fc:	aa0b03fe 	mov	x30, x11
  411400:	adc80440 	ldp	q0, q1, [x2,#256]!
  411404:	adc80440 	ldp	q0, q1, [x2,#256]!
  411408:	adc80440 	ldp	q0, q1, [x2,#256]!
  41140c:	ad8804c0 	stp	q0, q1, [x6,#256]!
  411410:	adc80440 	ldp	q0, q1, [x2,#256]!
  411414:	adc80440 	ldp	q0, q1, [x2,#256]!
  411418:	aa1e03eb 	mov	x11, x30
  41141c:	97ffe09a 	bl	409684 <nop_>
  411420:	aa0b03fe 	mov	x30, x11
  411424:	ad8804c0 	stp	q0, q1, [x6,#256]!
  411428:	adc80440 	ldp	q0, q1, [x2,#256]!
  41142c:	adc80440 	ldp	q0, q1, [x2,#256]!
  411430:	ad8804c0 	stp	q0, q1, [x6,#256]!
  411434:	adc80440 	ldp	q0, q1, [x2,#256]!
  411438:	adc80440 	ldp	q0, q1, [x2,#256]!
  41143c:	aa1e03eb 	mov	x11, x30
  411440:	97ffe091 	bl	409684 <nop_>
  411444:	aa0b03fe 	mov	x30, x11
  411448:	ad8804c0 	stp	q0, q1, [x6,#256]!
  41144c:	adc80440 	ldp	q0, q1, [x2,#256]!
  411450:	adc80440 	ldp	q0, q1, [x2,#256]!
  411454:	adc80440 	ldp	q0, q1, [x2,#256]!
  411458:	adc80440 	ldp	q0, q1, [x2,#256]!
  41145c:	ad8804c0 	stp	q0, q1, [x6,#256]!
  411460:	aa1e03eb 	mov	x11, x30
  411464:	97ffe088 	bl	409684 <nop_>
  411468:	aa0b03fe 	mov	x30, x11
  41146c:	adc80440 	ldp	q0, q1, [x2,#256]!
  411470:	adc80440 	ldp	q0, q1, [x2,#256]!
  411474:	adc80440 	ldp	q0, q1, [x2,#256]!
  411478:	ad8804c0 	stp	q0, q1, [x6,#256]!
  41147c:	adc80440 	ldp	q0, q1, [x2,#256]!
  411480:	adc80440 	ldp	q0, q1, [x2,#256]!
  411484:	aa1e03eb 	mov	x11, x30
  411488:	97ffe07f 	bl	409684 <nop_>
  41148c:	aa0b03fe 	mov	x30, x11
  411490:	adc80440 	ldp	q0, q1, [x2,#256]!
  411494:	adc80440 	ldp	q0, q1, [x2,#256]!
  411498:	ad8804c0 	stp	q0, q1, [x6,#256]!
  41149c:	adc80440 	ldp	q0, q1, [x2,#256]!
  4114a0:	adc80440 	ldp	q0, q1, [x2,#256]!
  4114a4:	adc80440 	ldp	q0, q1, [x2,#256]!
  4114a8:	aa1e03eb 	mov	x11, x30
  4114ac:	97ffe076 	bl	409684 <nop_>
  4114b0:	aa0b03fe 	mov	x30, x11
  4114b4:	adc80440 	ldp	q0, q1, [x2,#256]!
  4114b8:	ad8804c0 	stp	q0, q1, [x6,#256]!
  4114bc:	adc80440 	ldp	q0, q1, [x2,#256]!
  4114c0:	adc80440 	ldp	q0, q1, [x2,#256]!
  4114c4:	adc80440 	ldp	q0, q1, [x2,#256]!
  4114c8:	ad8804c0 	stp	q0, q1, [x6,#256]!
  4114cc:	aa1e03eb 	mov	x11, x30
  4114d0:	97ffe06d 	bl	409684 <nop_>
  4114d4:	aa0b03fe 	mov	x30, x11
  4114d8:	adc80440 	ldp	q0, q1, [x2,#256]!
  4114dc:	ad8804c0 	stp	q0, q1, [x6,#256]!
  4114e0:	adc80440 	ldp	q0, q1, [x2,#256]!
  4114e4:	adc80440 	ldp	q0, q1, [x2,#256]!
  4114e8:	adc80440 	ldp	q0, q1, [x2,#256]!
  4114ec:	adc80440 	ldp	q0, q1, [x2,#256]!
  4114f0:	aa1e03eb 	mov	x11, x30
  4114f4:	97ffe064 	bl	409684 <nop_>
  4114f8:	aa0b03fe 	mov	x30, x11
  4114fc:	adc80440 	ldp	q0, q1, [x2,#256]!
  411500:	adc80440 	ldp	q0, q1, [x2,#256]!
  411504:	adc80440 	ldp	q0, q1, [x2,#256]!
  411508:	ad8804c0 	stp	q0, q1, [x6,#256]!
  41150c:	adc80440 	ldp	q0, q1, [x2,#256]!
  411510:	adc80440 	ldp	q0, q1, [x2,#256]!
  411514:	aa1e03eb 	mov	x11, x30
  411518:	97ffe05b 	bl	409684 <nop_>
  41151c:	aa0b03fe 	mov	x30, x11
  411520:	adc80440 	ldp	q0, q1, [x2,#256]!
  411524:	adc80440 	ldp	q0, q1, [x2,#256]!
  411528:	ad8804c0 	stp	q0, q1, [x6,#256]!
  41152c:	adc80440 	ldp	q0, q1, [x2,#256]!
  411530:	adc80440 	ldp	q0, q1, [x2,#256]!
  411534:	adc80440 	ldp	q0, q1, [x2,#256]!
  411538:	aa1e03eb 	mov	x11, x30
  41153c:	97ffe052 	bl	409684 <nop_>
  411540:	aa0b03fe 	mov	x30, x11
  411544:	ad8804c0 	stp	q0, q1, [x6,#256]!
  411548:	adc80440 	ldp	q0, q1, [x2,#256]!
  41154c:	adc80440 	ldp	q0, q1, [x2,#256]!
  411550:	ad8804c0 	stp	q0, q1, [x6,#256]!
  411554:	adc80440 	ldp	q0, q1, [x2,#256]!
  411558:	adc80440 	ldp	q0, q1, [x2,#256]!
  41155c:	aa1e03eb 	mov	x11, x30
  411560:	97ffe049 	bl	409684 <nop_>
  411564:	aa0b03fe 	mov	x30, x11
  411568:	adc80440 	ldp	q0, q1, [x2,#256]!
  41156c:	adc80440 	ldp	q0, q1, [x2,#256]!
  411570:	ad8804c0 	stp	q0, q1, [x6,#256]!
  411574:	adc80440 	ldp	q0, q1, [x2,#256]!
  411578:	adc80440 	ldp	q0, q1, [x2,#256]!
  41157c:	ad8804c0 	stp	q0, q1, [x6,#256]!
  411580:	aa1e03eb 	mov	x11, x30
  411584:	97ffe040 	bl	409684 <nop_>
  411588:	aa0b03fe 	mov	x30, x11
  41158c:	adc80440 	ldp	q0, q1, [x2,#256]!
  411590:	adc80440 	ldp	q0, q1, [x2,#256]!
  411594:	adc80440 	ldp	q0, q1, [x2,#256]!
  411598:	ad8804c0 	stp	q0, q1, [x6,#256]!
  41159c:	adc80440 	ldp	q0, q1, [x2,#256]!
  4115a0:	adc80440 	ldp	q0, q1, [x2,#256]!
  4115a4:	aa1e03eb 	mov	x11, x30
  4115a8:	97ffe037 	bl	409684 <nop_>
  4115ac:	aa0b03fe 	mov	x30, x11
  4115b0:	adc80440 	ldp	q0, q1, [x2,#256]!
  4115b4:	adc80440 	ldp	q0, q1, [x2,#256]!
  4115b8:	adc80440 	ldp	q0, q1, [x2,#256]!
  4115bc:	ad8804c0 	stp	q0, q1, [x6,#256]!
  4115c0:	adc80440 	ldp	q0, q1, [x2,#256]!
  4115c4:	adc80440 	ldp	q0, q1, [x2,#256]!
  4115c8:	aa1e03eb 	mov	x11, x30
  4115cc:	97ffe02e 	bl	409684 <nop_>
  4115d0:	aa0b03fe 	mov	x30, x11
  4115d4:	adc80440 	ldp	q0, q1, [x2,#256]!
  4115d8:	ad8804c0 	stp	q0, q1, [x6,#256]!
  4115dc:	adc80440 	ldp	q0, q1, [x2,#256]!
  4115e0:	adc80440 	ldp	q0, q1, [x2,#256]!
  4115e4:	adc80440 	ldp	q0, q1, [x2,#256]!
  4115e8:	ad8804c0 	stp	q0, q1, [x6,#256]!
  4115ec:	aa1e03eb 	mov	x11, x30
  4115f0:	97ffe025 	bl	409684 <nop_>
  4115f4:	aa0b03fe 	mov	x30, x11
  4115f8:	adc80440 	ldp	q0, q1, [x2,#256]!
  4115fc:	adc80440 	ldp	q0, q1, [x2,#256]!
  411600:	adc80440 	ldp	q0, q1, [x2,#256]!
  411604:	ad8804c0 	stp	q0, q1, [x6,#256]!
  411608:	aa1e03eb 	mov	x11, x30
  41160c:	97ffe01e 	bl	409684 <nop_>
  411610:	aa0b03fe 	mov	x30, x11
  411614:	91320021 	add	x1, x1, #0xc80
  411618:	eb03003f 	cmp	x1, x3
  41161c:	54012c6d 	b.le	413ba8 <_Z15STREAM_copy_100PdS_PlPKi+0xe0>
  411620:	d503201f 	nop
  411624:	a8c37bfd 	ldp	x29, x30, [sp],#48
  411628:	d65f03c0 	ret

000000000041162c <_Z14STREAM_copy_78PdS_PlPKi>:
  41162c:	a9bd7bfd 	stp	x29, x30, [sp,#-48]!
  411630:	910003fd 	mov	x29, sp
  411634:	f90017e0 	str	x0, [sp,#40]
  411638:	f90013e1 	str	x1, [sp,#32]
  41163c:	f9000fe2 	str	x2, [sp,#24]
  411640:	f9000be3 	str	x3, [sp,#16]
  411644:	d2800000 	mov	x0, #0x0                   	// #0
  411648:	90000040 	adrp	x0, 419000 <_IO_stdin_used+0x8>
  41164c:	91008001 	add	x1, x0, #0x20
  411650:	b00000e0 	adrp	x0, 42e000 <_Znam@GLIBCXX_3.4>
  411654:	91286000 	add	x0, x0, #0xa18
  411658:	97ffde26 	bl	408ef0 <_ZStlsISt11char_traitsIcEERSt13basic_ostreamIcT_ES5_PKc@plt>
  41165c:	aa0003e2 	mov	x2, x0
  411660:	f9400be0 	ldr	x0, [sp,#16]
  411664:	b9400000 	ldr	w0, [x0]
  411668:	2a0003e1 	mov	w1, w0
  41166c:	aa0203e0 	mov	x0, x2
  411670:	97ffdf54 	bl	4093c0 <_ZNSolsEi@plt>
  411674:	aa0003e2 	mov	x2, x0
  411678:	90000040 	adrp	x0, 419000 <_IO_stdin_used+0x8>
  41167c:	9100c001 	add	x1, x0, #0x30
  411680:	aa0203e0 	mov	x0, x2
  411684:	97ffde1b 	bl	408ef0 <_ZStlsISt11char_traitsIcEERSt13basic_ostreamIcT_ES5_PKc@plt>
  411688:	f94017e1 	ldr	x1, [sp,#40]
  41168c:	97ffddbd 	bl	408d80 <_ZNSolsEPKv@plt>
  411690:	aa0003e2 	mov	x2, x0
  411694:	90000040 	adrp	x0, 419000 <_IO_stdin_used+0x8>
  411698:	91010001 	add	x1, x0, #0x40
  41169c:	aa0203e0 	mov	x0, x2
  4116a0:	97ffde14 	bl	408ef0 <_ZStlsISt11char_traitsIcEERSt13basic_ostreamIcT_ES5_PKc@plt>
  4116a4:	f94013e1 	ldr	x1, [sp,#32]
  4116a8:	97ffddb6 	bl	408d80 <_ZNSolsEPKv@plt>
  4116ac:	aa0003e2 	mov	x2, x0
  4116b0:	90000040 	adrp	x0, 419000 <_IO_stdin_used+0x8>
  4116b4:	91014001 	add	x1, x0, #0x50
  4116b8:	aa0203e0 	mov	x0, x2
  4116bc:	97ffde0d 	bl	408ef0 <_ZStlsISt11char_traitsIcEERSt13basic_ostreamIcT_ES5_PKc@plt>
  4116c0:	aa0003e2 	mov	x2, x0
  4116c4:	f9400fe0 	ldr	x0, [sp,#24]
  4116c8:	f9400000 	ldr	x0, [x0]
  4116cc:	aa0003e1 	mov	x1, x0
  4116d0:	aa0203e0 	mov	x0, x2
  4116d4:	97ffdf5b 	bl	409440 <_ZNSolsEl@plt>
  4116d8:	aa0003e2 	mov	x2, x0
  4116dc:	f0ffffa0 	adrp	x0, 408000 <_init-0x970>
  4116e0:	912ec001 	add	x1, x0, #0xbb0
  4116e4:	aa0203e0 	mov	x0, x2
  4116e8:	97ffde16 	bl	408f40 <_ZNSolsEPFRSoS_E@plt>
  4116ec:	f9400fe1 	ldr	x1, [sp,#24]
  4116f0:	f9400023 	ldr	x3, [x1]
  4116f4:	f9400be1 	ldr	x1, [sp,#16]
  4116f8:	b9400025 	ldr	w5, [x1]
  4116fc:	f94017e2 	ldr	x2, [sp,#40]
  411700:	f94013e6 	ldr	x6, [sp,#32]
  411704:	d2800001 	mov	x1, #0x0                   	// #0
  411708:	aa0503e4 	mov	x4, x5
  41170c:	adc80440 	ldp	q0, q1, [x2,#256]!
  411710:	adc80440 	ldp	q0, q1, [x2,#256]!
  411714:	adc80440 	ldp	q0, q1, [x2,#256]!
  411718:	ad8804c0 	stp	q0, q1, [x6,#256]!
  41171c:	adc80440 	ldp	q0, q1, [x2,#256]!
  411720:	adc80440 	ldp	q0, q1, [x2,#256]!
  411724:	aa1e03eb 	mov	x11, x30
  411728:	97ffdfd7 	bl	409684 <nop_>
  41172c:	aa0b03fe 	mov	x30, x11
  411730:	ad8804c0 	stp	q0, q1, [x6,#256]!
  411734:	adc80440 	ldp	q0, q1, [x2,#256]!
  411738:	adc80440 	ldp	q0, q1, [x2,#256]!
  41173c:	adc80440 	ldp	q0, q1, [x2,#256]!
  411740:	ad8804c0 	stp	q0, q1, [x6,#256]!
  411744:	adc80440 	ldp	q0, q1, [x2,#256]!
  411748:	aa1e03eb 	mov	x11, x30
  41174c:	97ffdfce 	bl	409684 <nop_>
  411750:	aa0b03fe 	mov	x30, x11
  411754:	adc80440 	ldp	q0, q1, [x2,#256]!
  411758:	adc80440 	ldp	q0, q1, [x2,#256]!
  41175c:	adc80440 	ldp	q0, q1, [x2,#256]!
  411760:	ad8804c0 	stp	q0, q1, [x6,#256]!
  411764:	adc80440 	ldp	q0, q1, [x2,#256]!
  411768:	adc80440 	ldp	q0, q1, [x2,#256]!
  41176c:	aa1e03eb 	mov	x11, x30
  411770:	97ffdfc5 	bl	409684 <nop_>
  411774:	aa0b03fe 	mov	x30, x11
  411778:	adc80440 	ldp	q0, q1, [x2,#256]!
  41177c:	adc80440 	ldp	q0, q1, [x2,#256]!
  411780:	adc80440 	ldp	q0, q1, [x2,#256]!
  411784:	ad8804c0 	stp	q0, q1, [x6,#256]!
  411788:	adc80440 	ldp	q0, q1, [x2,#256]!
  41178c:	adc80440 	ldp	q0, q1, [x2,#256]!
  411790:	aa1e03eb 	mov	x11, x30
  411794:	97ffdfbc 	bl	409684 <nop_>
  411798:	aa0b03fe 	mov	x30, x11
  41179c:	ad8804c0 	stp	q0, q1, [x6,#256]!
  4117a0:	adc80440 	ldp	q0, q1, [x2,#256]!
  4117a4:	adc80440 	ldp	q0, q1, [x2,#256]!
  4117a8:	adc80440 	ldp	q0, q1, [x2,#256]!
  4117ac:	adc80440 	ldp	q0, q1, [x2,#256]!
  4117b0:	ad8804c0 	stp	q0, q1, [x6,#256]!
  4117b4:	aa1e03eb 	mov	x11, x30
  4117b8:	97ffdfb3 	bl	409684 <nop_>
  4117bc:	aa0b03fe 	mov	x30, x11
  4117c0:	adc80440 	ldp	q0, q1, [x2,#256]!
  4117c4:	adc80440 	ldp	q0, q1, [x2,#256]!
  4117c8:	adc80440 	ldp	q0, q1, [x2,#256]!
  4117cc:	ad8804c0 	stp	q0, q1, [x6,#256]!
  4117d0:	adc80440 	ldp	q0, q1, [x2,#256]!
  4117d4:	adc80440 	ldp	q0, q1, [x2,#256]!
  4117d8:	aa1e03eb 	mov	x11, x30
  4117dc:	97ffdfaa 	bl	409684 <nop_>
  4117e0:	aa0b03fe 	mov	x30, x11
  4117e4:	adc80440 	ldp	q0, q1, [x2,#256]!
  4117e8:	adc80440 	ldp	q0, q1, [x2,#256]!
  4117ec:	ad8804c0 	stp	q0, q1, [x6,#256]!
  4117f0:	adc80440 	ldp	q0, q1, [x2,#256]!
  4117f4:	adc80440 	ldp	q0, q1, [x2,#256]!
  4117f8:	adc80440 	ldp	q0, q1, [x2,#256]!
  4117fc:	aa1e03eb 	mov	x11, x30
  411800:	97ffdfa1 	bl	409684 <nop_>
  411804:	aa0b03fe 	mov	x30, x11
  411808:	adc80440 	ldp	q0, q1, [x2,#256]!
  41180c:	ad8804c0 	stp	q0, q1, [x6,#256]!
  411810:	adc80440 	ldp	q0, q1, [x2,#256]!
  411814:	adc80440 	ldp	q0, q1, [x2,#256]!
  411818:	adc80440 	ldp	q0, q1, [x2,#256]!
  41181c:	ad8804c0 	stp	q0, q1, [x6,#256]!
  411820:	aa1e03eb 	mov	x11, x30
  411824:	97ffdf98 	bl	409684 <nop_>
  411828:	aa0b03fe 	mov	x30, x11
  41182c:	adc80440 	ldp	q0, q1, [x2,#256]!
  411830:	ad8804c0 	stp	q0, q1, [x6,#256]!
  411834:	adc80440 	ldp	q0, q1, [x2,#256]!
  411838:	adc80440 	ldp	q0, q1, [x2,#256]!
  41183c:	adc80440 	ldp	q0, q1, [x2,#256]!
  411840:	adc80440 	ldp	q0, q1, [x2,#256]!
  411844:	aa1e03eb 	mov	x11, x30
  411848:	97ffdf8f 	bl	409684 <nop_>
  41184c:	aa0b03fe 	mov	x30, x11
  411850:	adc80440 	ldp	q0, q1, [x2,#256]!
  411854:	adc80440 	ldp	q0, q1, [x2,#256]!
  411858:	adc80440 	ldp	q0, q1, [x2,#256]!
  41185c:	ad8804c0 	stp	q0, q1, [x6,#256]!
  411860:	adc80440 	ldp	q0, q1, [x2,#256]!
  411864:	adc80440 	ldp	q0, q1, [x2,#256]!
  411868:	aa1e03eb 	mov	x11, x30
  41186c:	97ffdf86 	bl	409684 <nop_>
  411870:	aa0b03fe 	mov	x30, x11
  411874:	adc80440 	ldp	q0, q1, [x2,#256]!
  411878:	adc80440 	ldp	q0, q1, [x2,#256]!
  41187c:	ad8804c0 	stp	q0, q1, [x6,#256]!
  411880:	adc80440 	ldp	q0, q1, [x2,#256]!
  411884:	adc80440 	ldp	q0, q1, [x2,#256]!
  411888:	adc80440 	ldp	q0, q1, [x2,#256]!
  41188c:	aa1e03eb 	mov	x11, x30
  411890:	97ffdf7d 	bl	409684 <nop_>
  411894:	aa0b03fe 	mov	x30, x11
  411898:	ad8804c0 	stp	q0, q1, [x6,#256]!
  41189c:	adc80440 	ldp	q0, q1, [x2,#256]!
  4118a0:	adc80440 	ldp	q0, q1, [x2,#256]!
  4118a4:	ad8804c0 	stp	q0, q1, [x6,#256]!
  4118a8:	adc80440 	ldp	q0, q1, [x2,#256]!
  4118ac:	adc80440 	ldp	q0, q1, [x2,#256]!
  4118b0:	aa1e03eb 	mov	x11, x30
  4118b4:	97ffdf74 	bl	409684 <nop_>
  4118b8:	aa0b03fe 	mov	x30, x11
  4118bc:	adc80440 	ldp	q0, q1, [x2,#256]!
  4118c0:	adc80440 	ldp	q0, q1, [x2,#256]!
  4118c4:	ad8804c0 	stp	q0, q1, [x6,#256]!
  4118c8:	adc80440 	ldp	q0, q1, [x2,#256]!
  4118cc:	adc80440 	ldp	q0, q1, [x2,#256]!
  4118d0:	adc80440 	ldp	q0, q1, [x2,#256]!
  4118d4:	aa1e03eb 	mov	x11, x30
  4118d8:	97ffdf6b 	bl	409684 <nop_>
  4118dc:	aa0b03fe 	mov	x30, x11
  4118e0:	adc80440 	ldp	q0, q1, [x2,#256]!
  4118e4:	adc80440 	ldp	q0, q1, [x2,#256]!
  4118e8:	adc80440 	ldp	q0, q1, [x2,#256]!
  4118ec:	ad8804c0 	stp	q0, q1, [x6,#256]!
  4118f0:	adc80440 	ldp	q0, q1, [x2,#256]!
  4118f4:	adc80440 	ldp	q0, q1, [x2,#256]!
  4118f8:	aa1e03eb 	mov	x11, x30
  4118fc:	97ffdf62 	bl	409684 <nop_>
  411900:	aa0b03fe 	mov	x30, x11
  411904:	adc80440 	ldp	q0, q1, [x2,#256]!
  411908:	adc80440 	ldp	q0, q1, [x2,#256]!
  41190c:	adc80440 	ldp	q0, q1, [x2,#256]!
  411910:	ad8804c0 	stp	q0, q1, [x6,#256]!
  411914:	adc80440 	ldp	q0, q1, [x2,#256]!
  411918:	adc80440 	ldp	q0, q1, [x2,#256]!
  41191c:	aa1e03eb 	mov	x11, x30
  411920:	97ffdf59 	bl	409684 <nop_>
  411924:	aa0b03fe 	mov	x30, x11
  411928:	adc80440 	ldp	q0, q1, [x2,#256]!
  41192c:	ad8804c0 	stp	q0, q1, [x6,#256]!
  411930:	adc80440 	ldp	q0, q1, [x2,#256]!
  411934:	adc80440 	ldp	q0, q1, [x2,#256]!
  411938:	adc80440 	ldp	q0, q1, [x2,#256]!
  41193c:	ad8804c0 	stp	q0, q1, [x6,#256]!
  411940:	aa1e03eb 	mov	x11, x30
  411944:	97ffdf50 	bl	409684 <nop_>
  411948:	aa0b03fe 	mov	x30, x11
  41194c:	adc80440 	ldp	q0, q1, [x2,#256]!
  411950:	adc80440 	ldp	q0, q1, [x2,#256]!
  411954:	adc80440 	ldp	q0, q1, [x2,#256]!
  411958:	ad8804c0 	stp	q0, q1, [x6,#256]!
  41195c:	aa1e03eb 	mov	x11, x30
  411960:	97ffdf49 	bl	409684 <nop_>
  411964:	aa0b03fe 	mov	x30, x11
  411968:	91320021 	add	x1, x1, #0xc80
  41196c:	eb03003f 	cmp	x1, x3
  411970:	540111cd 	b.le	413ba8 <_Z15STREAM_copy_100PdS_PlPKi+0xe0>
  411974:	d503201f 	nop
  411978:	a8c37bfd 	ldp	x29, x30, [sp],#48
  41197c:	d65f03c0 	ret

0000000000411980 <_Z14STREAM_copy_80PdS_PlPKi>:
  411980:	a9bd7bfd 	stp	x29, x30, [sp,#-48]!
  411984:	910003fd 	mov	x29, sp
  411988:	f90017e0 	str	x0, [sp,#40]
  41198c:	f90013e1 	str	x1, [sp,#32]
  411990:	f9000fe2 	str	x2, [sp,#24]
  411994:	f9000be3 	str	x3, [sp,#16]
  411998:	d2800000 	mov	x0, #0x0                   	// #0
  41199c:	90000040 	adrp	x0, 419000 <_IO_stdin_used+0x8>
  4119a0:	91008001 	add	x1, x0, #0x20
  4119a4:	b00000e0 	adrp	x0, 42e000 <_Znam@GLIBCXX_3.4>
  4119a8:	91286000 	add	x0, x0, #0xa18
  4119ac:	97ffdd51 	bl	408ef0 <_ZStlsISt11char_traitsIcEERSt13basic_ostreamIcT_ES5_PKc@plt>
  4119b0:	aa0003e2 	mov	x2, x0
  4119b4:	f9400be0 	ldr	x0, [sp,#16]
  4119b8:	b9400000 	ldr	w0, [x0]
  4119bc:	2a0003e1 	mov	w1, w0
  4119c0:	aa0203e0 	mov	x0, x2
  4119c4:	97ffde7f 	bl	4093c0 <_ZNSolsEi@plt>
  4119c8:	aa0003e2 	mov	x2, x0
  4119cc:	90000040 	adrp	x0, 419000 <_IO_stdin_used+0x8>
  4119d0:	9100c001 	add	x1, x0, #0x30
  4119d4:	aa0203e0 	mov	x0, x2
  4119d8:	97ffdd46 	bl	408ef0 <_ZStlsISt11char_traitsIcEERSt13basic_ostreamIcT_ES5_PKc@plt>
  4119dc:	f94017e1 	ldr	x1, [sp,#40]
  4119e0:	97ffdce8 	bl	408d80 <_ZNSolsEPKv@plt>
  4119e4:	aa0003e2 	mov	x2, x0
  4119e8:	90000040 	adrp	x0, 419000 <_IO_stdin_used+0x8>
  4119ec:	91010001 	add	x1, x0, #0x40
  4119f0:	aa0203e0 	mov	x0, x2
  4119f4:	97ffdd3f 	bl	408ef0 <_ZStlsISt11char_traitsIcEERSt13basic_ostreamIcT_ES5_PKc@plt>
  4119f8:	f94013e1 	ldr	x1, [sp,#32]
  4119fc:	97ffdce1 	bl	408d80 <_ZNSolsEPKv@plt>
  411a00:	aa0003e2 	mov	x2, x0
  411a04:	90000040 	adrp	x0, 419000 <_IO_stdin_used+0x8>
  411a08:	91014001 	add	x1, x0, #0x50
  411a0c:	aa0203e0 	mov	x0, x2
  411a10:	97ffdd38 	bl	408ef0 <_ZStlsISt11char_traitsIcEERSt13basic_ostreamIcT_ES5_PKc@plt>
  411a14:	aa0003e2 	mov	x2, x0
  411a18:	f9400fe0 	ldr	x0, [sp,#24]
  411a1c:	f9400000 	ldr	x0, [x0]
  411a20:	aa0003e1 	mov	x1, x0
  411a24:	aa0203e0 	mov	x0, x2
  411a28:	97ffde86 	bl	409440 <_ZNSolsEl@plt>
  411a2c:	aa0003e2 	mov	x2, x0
  411a30:	f0ffffa0 	adrp	x0, 408000 <_init-0x970>
  411a34:	912ec001 	add	x1, x0, #0xbb0
  411a38:	aa0203e0 	mov	x0, x2
  411a3c:	97ffdd41 	bl	408f40 <_ZNSolsEPFRSoS_E@plt>
  411a40:	f9400fe1 	ldr	x1, [sp,#24]
  411a44:	f9400023 	ldr	x3, [x1]
  411a48:	f9400be1 	ldr	x1, [sp,#16]
  411a4c:	b9400025 	ldr	w5, [x1]
  411a50:	f94017e2 	ldr	x2, [sp,#40]
  411a54:	f94013e6 	ldr	x6, [sp,#32]
  411a58:	d2800001 	mov	x1, #0x0                   	// #0
  411a5c:	aa0503e4 	mov	x4, x5
  411a60:	adc80440 	ldp	q0, q1, [x2,#256]!
  411a64:	adc80440 	ldp	q0, q1, [x2,#256]!
  411a68:	adc80440 	ldp	q0, q1, [x2,#256]!
  411a6c:	ad8804c0 	stp	q0, q1, [x6,#256]!
  411a70:	adc80440 	ldp	q0, q1, [x2,#256]!
  411a74:	adc80440 	ldp	q0, q1, [x2,#256]!
  411a78:	aa1e03eb 	mov	x11, x30
  411a7c:	97ffdf02 	bl	409684 <nop_>
  411a80:	aa0b03fe 	mov	x30, x11
  411a84:	adc80440 	ldp	q0, q1, [x2,#256]!
  411a88:	adc80440 	ldp	q0, q1, [x2,#256]!
  411a8c:	adc80440 	ldp	q0, q1, [x2,#256]!
  411a90:	adc80440 	ldp	q0, q1, [x2,#256]!
  411a94:	ad8804c0 	stp	q0, q1, [x6,#256]!
  411a98:	adc80440 	ldp	q0, q1, [x2,#256]!
  411a9c:	aa1e03eb 	mov	x11, x30
  411aa0:	97ffdef9 	bl	409684 <nop_>
  411aa4:	aa0b03fe 	mov	x30, x11
  411aa8:	adc80440 	ldp	q0, q1, [x2,#256]!
  411aac:	adc80440 	ldp	q0, q1, [x2,#256]!
  411ab0:	adc80440 	ldp	q0, q1, [x2,#256]!
  411ab4:	ad8804c0 	stp	q0, q1, [x6,#256]!
  411ab8:	adc80440 	ldp	q0, q1, [x2,#256]!
  411abc:	adc80440 	ldp	q0, q1, [x2,#256]!
  411ac0:	aa1e03eb 	mov	x11, x30
  411ac4:	97ffdef0 	bl	409684 <nop_>
  411ac8:	aa0b03fe 	mov	x30, x11
  411acc:	adc80440 	ldp	q0, q1, [x2,#256]!
  411ad0:	adc80440 	ldp	q0, q1, [x2,#256]!
  411ad4:	adc80440 	ldp	q0, q1, [x2,#256]!
  411ad8:	ad8804c0 	stp	q0, q1, [x6,#256]!
  411adc:	adc80440 	ldp	q0, q1, [x2,#256]!
  411ae0:	adc80440 	ldp	q0, q1, [x2,#256]!
  411ae4:	aa1e03eb 	mov	x11, x30
  411ae8:	97ffdee7 	bl	409684 <nop_>
  411aec:	aa0b03fe 	mov	x30, x11
  411af0:	ad8804c0 	stp	q0, q1, [x6,#256]!
  411af4:	adc80440 	ldp	q0, q1, [x2,#256]!
  411af8:	adc80440 	ldp	q0, q1, [x2,#256]!
  411afc:	adc80440 	ldp	q0, q1, [x2,#256]!
  411b00:	adc80440 	ldp	q0, q1, [x2,#256]!
  411b04:	ad8804c0 	stp	q0, q1, [x6,#256]!
  411b08:	aa1e03eb 	mov	x11, x30
  411b0c:	97ffdede 	bl	409684 <nop_>
  411b10:	aa0b03fe 	mov	x30, x11
  411b14:	adc80440 	ldp	q0, q1, [x2,#256]!
  411b18:	adc80440 	ldp	q0, q1, [x2,#256]!
  411b1c:	adc80440 	ldp	q0, q1, [x2,#256]!
  411b20:	ad8804c0 	stp	q0, q1, [x6,#256]!
  411b24:	adc80440 	ldp	q0, q1, [x2,#256]!
  411b28:	adc80440 	ldp	q0, q1, [x2,#256]!
  411b2c:	aa1e03eb 	mov	x11, x30
  411b30:	97ffded5 	bl	409684 <nop_>
  411b34:	aa0b03fe 	mov	x30, x11
  411b38:	adc80440 	ldp	q0, q1, [x2,#256]!
  411b3c:	adc80440 	ldp	q0, q1, [x2,#256]!
  411b40:	ad8804c0 	stp	q0, q1, [x6,#256]!
  411b44:	adc80440 	ldp	q0, q1, [x2,#256]!
  411b48:	adc80440 	ldp	q0, q1, [x2,#256]!
  411b4c:	adc80440 	ldp	q0, q1, [x2,#256]!
  411b50:	aa1e03eb 	mov	x11, x30
  411b54:	97ffdecc 	bl	409684 <nop_>
  411b58:	aa0b03fe 	mov	x30, x11
  411b5c:	adc80440 	ldp	q0, q1, [x2,#256]!
  411b60:	ad8804c0 	stp	q0, q1, [x6,#256]!
  411b64:	adc80440 	ldp	q0, q1, [x2,#256]!
  411b68:	adc80440 	ldp	q0, q1, [x2,#256]!
  411b6c:	adc80440 	ldp	q0, q1, [x2,#256]!
  411b70:	ad8804c0 	stp	q0, q1, [x6,#256]!
  411b74:	aa1e03eb 	mov	x11, x30
  411b78:	97ffdec3 	bl	409684 <nop_>
  411b7c:	aa0b03fe 	mov	x30, x11
  411b80:	adc80440 	ldp	q0, q1, [x2,#256]!
  411b84:	ad8804c0 	stp	q0, q1, [x6,#256]!
  411b88:	adc80440 	ldp	q0, q1, [x2,#256]!
  411b8c:	adc80440 	ldp	q0, q1, [x2,#256]!
  411b90:	adc80440 	ldp	q0, q1, [x2,#256]!
  411b94:	adc80440 	ldp	q0, q1, [x2,#256]!
  411b98:	aa1e03eb 	mov	x11, x30
  411b9c:	97ffdeba 	bl	409684 <nop_>
  411ba0:	aa0b03fe 	mov	x30, x11
  411ba4:	adc80440 	ldp	q0, q1, [x2,#256]!
  411ba8:	adc80440 	ldp	q0, q1, [x2,#256]!
  411bac:	adc80440 	ldp	q0, q1, [x2,#256]!
  411bb0:	ad8804c0 	stp	q0, q1, [x6,#256]!
  411bb4:	adc80440 	ldp	q0, q1, [x2,#256]!
  411bb8:	adc80440 	ldp	q0, q1, [x2,#256]!
  411bbc:	aa1e03eb 	mov	x11, x30
  411bc0:	97ffdeb1 	bl	409684 <nop_>
  411bc4:	aa0b03fe 	mov	x30, x11
  411bc8:	adc80440 	ldp	q0, q1, [x2,#256]!
  411bcc:	adc80440 	ldp	q0, q1, [x2,#256]!
  411bd0:	ad8804c0 	stp	q0, q1, [x6,#256]!
  411bd4:	adc80440 	ldp	q0, q1, [x2,#256]!
  411bd8:	adc80440 	ldp	q0, q1, [x2,#256]!
  411bdc:	adc80440 	ldp	q0, q1, [x2,#256]!
  411be0:	aa1e03eb 	mov	x11, x30
  411be4:	97ffdea8 	bl	409684 <nop_>
  411be8:	aa0b03fe 	mov	x30, x11
  411bec:	adc80440 	ldp	q0, q1, [x2,#256]!
  411bf0:	adc80440 	ldp	q0, q1, [x2,#256]!
  411bf4:	adc80440 	ldp	q0, q1, [x2,#256]!
  411bf8:	ad8804c0 	stp	q0, q1, [x6,#256]!
  411bfc:	adc80440 	ldp	q0, q1, [x2,#256]!
  411c00:	adc80440 	ldp	q0, q1, [x2,#256]!
  411c04:	aa1e03eb 	mov	x11, x30
  411c08:	97ffde9f 	bl	409684 <nop_>
  411c0c:	aa0b03fe 	mov	x30, x11
  411c10:	adc80440 	ldp	q0, q1, [x2,#256]!
  411c14:	adc80440 	ldp	q0, q1, [x2,#256]!
  411c18:	ad8804c0 	stp	q0, q1, [x6,#256]!
  411c1c:	adc80440 	ldp	q0, q1, [x2,#256]!
  411c20:	adc80440 	ldp	q0, q1, [x2,#256]!
  411c24:	adc80440 	ldp	q0, q1, [x2,#256]!
  411c28:	aa1e03eb 	mov	x11, x30
  411c2c:	97ffde96 	bl	409684 <nop_>
  411c30:	aa0b03fe 	mov	x30, x11
  411c34:	adc80440 	ldp	q0, q1, [x2,#256]!
  411c38:	adc80440 	ldp	q0, q1, [x2,#256]!
  411c3c:	adc80440 	ldp	q0, q1, [x2,#256]!
  411c40:	ad8804c0 	stp	q0, q1, [x6,#256]!
  411c44:	adc80440 	ldp	q0, q1, [x2,#256]!
  411c48:	adc80440 	ldp	q0, q1, [x2,#256]!
  411c4c:	aa1e03eb 	mov	x11, x30
  411c50:	97ffde8d 	bl	409684 <nop_>
  411c54:	aa0b03fe 	mov	x30, x11
  411c58:	adc80440 	ldp	q0, q1, [x2,#256]!
  411c5c:	adc80440 	ldp	q0, q1, [x2,#256]!
  411c60:	adc80440 	ldp	q0, q1, [x2,#256]!
  411c64:	ad8804c0 	stp	q0, q1, [x6,#256]!
  411c68:	adc80440 	ldp	q0, q1, [x2,#256]!
  411c6c:	adc80440 	ldp	q0, q1, [x2,#256]!
  411c70:	aa1e03eb 	mov	x11, x30
  411c74:	97ffde84 	bl	409684 <nop_>
  411c78:	aa0b03fe 	mov	x30, x11
  411c7c:	adc80440 	ldp	q0, q1, [x2,#256]!
  411c80:	ad8804c0 	stp	q0, q1, [x6,#256]!
  411c84:	adc80440 	ldp	q0, q1, [x2,#256]!
  411c88:	adc80440 	ldp	q0, q1, [x2,#256]!
  411c8c:	adc80440 	ldp	q0, q1, [x2,#256]!
  411c90:	ad8804c0 	stp	q0, q1, [x6,#256]!
  411c94:	aa1e03eb 	mov	x11, x30
  411c98:	97ffde7b 	bl	409684 <nop_>
  411c9c:	aa0b03fe 	mov	x30, x11
  411ca0:	adc80440 	ldp	q0, q1, [x2,#256]!
  411ca4:	adc80440 	ldp	q0, q1, [x2,#256]!
  411ca8:	adc80440 	ldp	q0, q1, [x2,#256]!
  411cac:	ad8804c0 	stp	q0, q1, [x6,#256]!
  411cb0:	aa1e03eb 	mov	x11, x30
  411cb4:	97ffde74 	bl	409684 <nop_>
  411cb8:	aa0b03fe 	mov	x30, x11
  411cbc:	91320021 	add	x1, x1, #0xc80
  411cc0:	eb03003f 	cmp	x1, x3
  411cc4:	5400f72d 	b.le	413ba8 <_Z15STREAM_copy_100PdS_PlPKi+0xe0>
  411cc8:	d503201f 	nop
  411ccc:	a8c37bfd 	ldp	x29, x30, [sp],#48
  411cd0:	d65f03c0 	ret

0000000000411cd4 <_Z14STREAM_copy_82PdS_PlPKi>:
  411cd4:	a9bd7bfd 	stp	x29, x30, [sp,#-48]!
  411cd8:	910003fd 	mov	x29, sp
  411cdc:	f90017e0 	str	x0, [sp,#40]
  411ce0:	f90013e1 	str	x1, [sp,#32]
  411ce4:	f9000fe2 	str	x2, [sp,#24]
  411ce8:	f9000be3 	str	x3, [sp,#16]
  411cec:	d2800000 	mov	x0, #0x0                   	// #0
  411cf0:	90000040 	adrp	x0, 419000 <_IO_stdin_used+0x8>
  411cf4:	91008001 	add	x1, x0, #0x20
  411cf8:	b00000e0 	adrp	x0, 42e000 <_Znam@GLIBCXX_3.4>
  411cfc:	91286000 	add	x0, x0, #0xa18
  411d00:	97ffdc7c 	bl	408ef0 <_ZStlsISt11char_traitsIcEERSt13basic_ostreamIcT_ES5_PKc@plt>
  411d04:	aa0003e2 	mov	x2, x0
  411d08:	f9400be0 	ldr	x0, [sp,#16]
  411d0c:	b9400000 	ldr	w0, [x0]
  411d10:	2a0003e1 	mov	w1, w0
  411d14:	aa0203e0 	mov	x0, x2
  411d18:	97ffddaa 	bl	4093c0 <_ZNSolsEi@plt>
  411d1c:	aa0003e2 	mov	x2, x0
  411d20:	90000040 	adrp	x0, 419000 <_IO_stdin_used+0x8>
  411d24:	9100c001 	add	x1, x0, #0x30
  411d28:	aa0203e0 	mov	x0, x2
  411d2c:	97ffdc71 	bl	408ef0 <_ZStlsISt11char_traitsIcEERSt13basic_ostreamIcT_ES5_PKc@plt>
  411d30:	f94017e1 	ldr	x1, [sp,#40]
  411d34:	97ffdc13 	bl	408d80 <_ZNSolsEPKv@plt>
  411d38:	aa0003e2 	mov	x2, x0
  411d3c:	90000040 	adrp	x0, 419000 <_IO_stdin_used+0x8>
  411d40:	91010001 	add	x1, x0, #0x40
  411d44:	aa0203e0 	mov	x0, x2
  411d48:	97ffdc6a 	bl	408ef0 <_ZStlsISt11char_traitsIcEERSt13basic_ostreamIcT_ES5_PKc@plt>
  411d4c:	f94013e1 	ldr	x1, [sp,#32]
  411d50:	97ffdc0c 	bl	408d80 <_ZNSolsEPKv@plt>
  411d54:	aa0003e2 	mov	x2, x0
  411d58:	90000040 	adrp	x0, 419000 <_IO_stdin_used+0x8>
  411d5c:	91014001 	add	x1, x0, #0x50
  411d60:	aa0203e0 	mov	x0, x2
  411d64:	97ffdc63 	bl	408ef0 <_ZStlsISt11char_traitsIcEERSt13basic_ostreamIcT_ES5_PKc@plt>
  411d68:	aa0003e2 	mov	x2, x0
  411d6c:	f9400fe0 	ldr	x0, [sp,#24]
  411d70:	f9400000 	ldr	x0, [x0]
  411d74:	aa0003e1 	mov	x1, x0
  411d78:	aa0203e0 	mov	x0, x2
  411d7c:	97ffddb1 	bl	409440 <_ZNSolsEl@plt>
  411d80:	aa0003e2 	mov	x2, x0
  411d84:	f0ffffa0 	adrp	x0, 408000 <_init-0x970>
  411d88:	912ec001 	add	x1, x0, #0xbb0
  411d8c:	aa0203e0 	mov	x0, x2
  411d90:	97ffdc6c 	bl	408f40 <_ZNSolsEPFRSoS_E@plt>
  411d94:	f9400fe1 	ldr	x1, [sp,#24]
  411d98:	f9400023 	ldr	x3, [x1]
  411d9c:	f9400be1 	ldr	x1, [sp,#16]
  411da0:	b9400025 	ldr	w5, [x1]
  411da4:	f94017e2 	ldr	x2, [sp,#40]
  411da8:	f94013e6 	ldr	x6, [sp,#32]
  411dac:	d2800001 	mov	x1, #0x0                   	// #0
  411db0:	aa0503e4 	mov	x4, x5
  411db4:	adc80440 	ldp	q0, q1, [x2,#256]!
  411db8:	adc80440 	ldp	q0, q1, [x2,#256]!
  411dbc:	adc80440 	ldp	q0, q1, [x2,#256]!
  411dc0:	ad8804c0 	stp	q0, q1, [x6,#256]!
  411dc4:	adc80440 	ldp	q0, q1, [x2,#256]!
  411dc8:	adc80440 	ldp	q0, q1, [x2,#256]!
  411dcc:	aa1e03eb 	mov	x11, x30
  411dd0:	97ffde2d 	bl	409684 <nop_>
  411dd4:	aa0b03fe 	mov	x30, x11
  411dd8:	adc80440 	ldp	q0, q1, [x2,#256]!
  411ddc:	adc80440 	ldp	q0, q1, [x2,#256]!
  411de0:	adc80440 	ldp	q0, q1, [x2,#256]!
  411de4:	adc80440 	ldp	q0, q1, [x2,#256]!
  411de8:	ad8804c0 	stp	q0, q1, [x6,#256]!
  411dec:	adc80440 	ldp	q0, q1, [x2,#256]!
  411df0:	aa1e03eb 	mov	x11, x30
  411df4:	97ffde24 	bl	409684 <nop_>
  411df8:	aa0b03fe 	mov	x30, x11
  411dfc:	adc80440 	ldp	q0, q1, [x2,#256]!
  411e00:	adc80440 	ldp	q0, q1, [x2,#256]!
  411e04:	adc80440 	ldp	q0, q1, [x2,#256]!
  411e08:	ad8804c0 	stp	q0, q1, [x6,#256]!
  411e0c:	adc80440 	ldp	q0, q1, [x2,#256]!
  411e10:	adc80440 	ldp	q0, q1, [x2,#256]!
  411e14:	aa1e03eb 	mov	x11, x30
  411e18:	97ffde1b 	bl	409684 <nop_>
  411e1c:	aa0b03fe 	mov	x30, x11
  411e20:	adc80440 	ldp	q0, q1, [x2,#256]!
  411e24:	adc80440 	ldp	q0, q1, [x2,#256]!
  411e28:	adc80440 	ldp	q0, q1, [x2,#256]!
  411e2c:	ad8804c0 	stp	q0, q1, [x6,#256]!
  411e30:	adc80440 	ldp	q0, q1, [x2,#256]!
  411e34:	adc80440 	ldp	q0, q1, [x2,#256]!
  411e38:	aa1e03eb 	mov	x11, x30
  411e3c:	97ffde12 	bl	409684 <nop_>
  411e40:	aa0b03fe 	mov	x30, x11
  411e44:	ad8804c0 	stp	q0, q1, [x6,#256]!
  411e48:	adc80440 	ldp	q0, q1, [x2,#256]!
  411e4c:	adc80440 	ldp	q0, q1, [x2,#256]!
  411e50:	adc80440 	ldp	q0, q1, [x2,#256]!
  411e54:	adc80440 	ldp	q0, q1, [x2,#256]!
  411e58:	ad8804c0 	stp	q0, q1, [x6,#256]!
  411e5c:	aa1e03eb 	mov	x11, x30
  411e60:	97ffde09 	bl	409684 <nop_>
  411e64:	aa0b03fe 	mov	x30, x11
  411e68:	adc80440 	ldp	q0, q1, [x2,#256]!
  411e6c:	adc80440 	ldp	q0, q1, [x2,#256]!
  411e70:	adc80440 	ldp	q0, q1, [x2,#256]!
  411e74:	ad8804c0 	stp	q0, q1, [x6,#256]!
  411e78:	adc80440 	ldp	q0, q1, [x2,#256]!
  411e7c:	adc80440 	ldp	q0, q1, [x2,#256]!
  411e80:	aa1e03eb 	mov	x11, x30
  411e84:	97ffde00 	bl	409684 <nop_>
  411e88:	aa0b03fe 	mov	x30, x11
  411e8c:	adc80440 	ldp	q0, q1, [x2,#256]!
  411e90:	adc80440 	ldp	q0, q1, [x2,#256]!
  411e94:	ad8804c0 	stp	q0, q1, [x6,#256]!
  411e98:	adc80440 	ldp	q0, q1, [x2,#256]!
  411e9c:	adc80440 	ldp	q0, q1, [x2,#256]!
  411ea0:	adc80440 	ldp	q0, q1, [x2,#256]!
  411ea4:	aa1e03eb 	mov	x11, x30
  411ea8:	97ffddf7 	bl	409684 <nop_>
  411eac:	aa0b03fe 	mov	x30, x11
  411eb0:	adc80440 	ldp	q0, q1, [x2,#256]!
  411eb4:	ad8804c0 	stp	q0, q1, [x6,#256]!
  411eb8:	adc80440 	ldp	q0, q1, [x2,#256]!
  411ebc:	adc80440 	ldp	q0, q1, [x2,#256]!
  411ec0:	adc80440 	ldp	q0, q1, [x2,#256]!
  411ec4:	adc80440 	ldp	q0, q1, [x2,#256]!
  411ec8:	aa1e03eb 	mov	x11, x30
  411ecc:	97ffddee 	bl	409684 <nop_>
  411ed0:	aa0b03fe 	mov	x30, x11
  411ed4:	adc80440 	ldp	q0, q1, [x2,#256]!
  411ed8:	ad8804c0 	stp	q0, q1, [x6,#256]!
  411edc:	adc80440 	ldp	q0, q1, [x2,#256]!
  411ee0:	adc80440 	ldp	q0, q1, [x2,#256]!
  411ee4:	adc80440 	ldp	q0, q1, [x2,#256]!
  411ee8:	adc80440 	ldp	q0, q1, [x2,#256]!
  411eec:	aa1e03eb 	mov	x11, x30
  411ef0:	97ffdde5 	bl	409684 <nop_>
  411ef4:	aa0b03fe 	mov	x30, x11
  411ef8:	adc80440 	ldp	q0, q1, [x2,#256]!
  411efc:	adc80440 	ldp	q0, q1, [x2,#256]!
  411f00:	adc80440 	ldp	q0, q1, [x2,#256]!
  411f04:	ad8804c0 	stp	q0, q1, [x6,#256]!
  411f08:	adc80440 	ldp	q0, q1, [x2,#256]!
  411f0c:	adc80440 	ldp	q0, q1, [x2,#256]!
  411f10:	aa1e03eb 	mov	x11, x30
  411f14:	97ffdddc 	bl	409684 <nop_>
  411f18:	aa0b03fe 	mov	x30, x11
  411f1c:	adc80440 	ldp	q0, q1, [x2,#256]!
  411f20:	adc80440 	ldp	q0, q1, [x2,#256]!
  411f24:	ad8804c0 	stp	q0, q1, [x6,#256]!
  411f28:	adc80440 	ldp	q0, q1, [x2,#256]!
  411f2c:	adc80440 	ldp	q0, q1, [x2,#256]!
  411f30:	adc80440 	ldp	q0, q1, [x2,#256]!
  411f34:	aa1e03eb 	mov	x11, x30
  411f38:	97ffddd3 	bl	409684 <nop_>
  411f3c:	aa0b03fe 	mov	x30, x11
  411f40:	adc80440 	ldp	q0, q1, [x2,#256]!
  411f44:	adc80440 	ldp	q0, q1, [x2,#256]!
  411f48:	adc80440 	ldp	q0, q1, [x2,#256]!
  411f4c:	ad8804c0 	stp	q0, q1, [x6,#256]!
  411f50:	adc80440 	ldp	q0, q1, [x2,#256]!
  411f54:	adc80440 	ldp	q0, q1, [x2,#256]!
  411f58:	aa1e03eb 	mov	x11, x30
  411f5c:	97ffddca 	bl	409684 <nop_>
  411f60:	aa0b03fe 	mov	x30, x11
  411f64:	adc80440 	ldp	q0, q1, [x2,#256]!
  411f68:	adc80440 	ldp	q0, q1, [x2,#256]!
  411f6c:	ad8804c0 	stp	q0, q1, [x6,#256]!
  411f70:	adc80440 	ldp	q0, q1, [x2,#256]!
  411f74:	adc80440 	ldp	q0, q1, [x2,#256]!
  411f78:	adc80440 	ldp	q0, q1, [x2,#256]!
  411f7c:	aa1e03eb 	mov	x11, x30
  411f80:	97ffddc1 	bl	409684 <nop_>
  411f84:	aa0b03fe 	mov	x30, x11
  411f88:	adc80440 	ldp	q0, q1, [x2,#256]!
  411f8c:	adc80440 	ldp	q0, q1, [x2,#256]!
  411f90:	adc80440 	ldp	q0, q1, [x2,#256]!
  411f94:	ad8804c0 	stp	q0, q1, [x6,#256]!
  411f98:	adc80440 	ldp	q0, q1, [x2,#256]!
  411f9c:	adc80440 	ldp	q0, q1, [x2,#256]!
  411fa0:	aa1e03eb 	mov	x11, x30
  411fa4:	97ffddb8 	bl	409684 <nop_>
  411fa8:	aa0b03fe 	mov	x30, x11
  411fac:	adc80440 	ldp	q0, q1, [x2,#256]!
  411fb0:	adc80440 	ldp	q0, q1, [x2,#256]!
  411fb4:	adc80440 	ldp	q0, q1, [x2,#256]!
  411fb8:	ad8804c0 	stp	q0, q1, [x6,#256]!
  411fbc:	adc80440 	ldp	q0, q1, [x2,#256]!
  411fc0:	adc80440 	ldp	q0, q1, [x2,#256]!
  411fc4:	aa1e03eb 	mov	x11, x30
  411fc8:	97ffddaf 	bl	409684 <nop_>
  411fcc:	aa0b03fe 	mov	x30, x11
  411fd0:	adc80440 	ldp	q0, q1, [x2,#256]!
  411fd4:	adc80440 	ldp	q0, q1, [x2,#256]!
  411fd8:	adc80440 	ldp	q0, q1, [x2,#256]!
  411fdc:	adc80440 	ldp	q0, q1, [x2,#256]!
  411fe0:	adc80440 	ldp	q0, q1, [x2,#256]!
  411fe4:	ad8804c0 	stp	q0, q1, [x6,#256]!
  411fe8:	aa1e03eb 	mov	x11, x30
  411fec:	97ffdda6 	bl	409684 <nop_>
  411ff0:	aa0b03fe 	mov	x30, x11
  411ff4:	adc80440 	ldp	q0, q1, [x2,#256]!
  411ff8:	adc80440 	ldp	q0, q1, [x2,#256]!
  411ffc:	adc80440 	ldp	q0, q1, [x2,#256]!
  412000:	ad8804c0 	stp	q0, q1, [x6,#256]!
  412004:	aa1e03eb 	mov	x11, x30
  412008:	97ffdd9f 	bl	409684 <nop_>
  41200c:	aa0b03fe 	mov	x30, x11
  412010:	91320021 	add	x1, x1, #0xc80
  412014:	eb03003f 	cmp	x1, x3
  412018:	5400dc8d 	b.le	413ba8 <_Z15STREAM_copy_100PdS_PlPKi+0xe0>
  41201c:	d503201f 	nop
  412020:	a8c37bfd 	ldp	x29, x30, [sp],#48
  412024:	d65f03c0 	ret

0000000000412028 <_Z14STREAM_copy_84PdS_PlPKi>:
  412028:	a9bd7bfd 	stp	x29, x30, [sp,#-48]!
  41202c:	910003fd 	mov	x29, sp
  412030:	f90017e0 	str	x0, [sp,#40]
  412034:	f90013e1 	str	x1, [sp,#32]
  412038:	f9000fe2 	str	x2, [sp,#24]
  41203c:	f9000be3 	str	x3, [sp,#16]
  412040:	d2800000 	mov	x0, #0x0                   	// #0
  412044:	f0000020 	adrp	x0, 419000 <_IO_stdin_used+0x8>
  412048:	91008001 	add	x1, x0, #0x20
  41204c:	900000e0 	adrp	x0, 42e000 <_Znam@GLIBCXX_3.4>
  412050:	91286000 	add	x0, x0, #0xa18
  412054:	97ffdba7 	bl	408ef0 <_ZStlsISt11char_traitsIcEERSt13basic_ostreamIcT_ES5_PKc@plt>
  412058:	aa0003e2 	mov	x2, x0
  41205c:	f9400be0 	ldr	x0, [sp,#16]
  412060:	b9400000 	ldr	w0, [x0]
  412064:	2a0003e1 	mov	w1, w0
  412068:	aa0203e0 	mov	x0, x2
  41206c:	97ffdcd5 	bl	4093c0 <_ZNSolsEi@plt>
  412070:	aa0003e2 	mov	x2, x0
  412074:	f0000020 	adrp	x0, 419000 <_IO_stdin_used+0x8>
  412078:	9100c001 	add	x1, x0, #0x30
  41207c:	aa0203e0 	mov	x0, x2
  412080:	97ffdb9c 	bl	408ef0 <_ZStlsISt11char_traitsIcEERSt13basic_ostreamIcT_ES5_PKc@plt>
  412084:	f94017e1 	ldr	x1, [sp,#40]
  412088:	97ffdb3e 	bl	408d80 <_ZNSolsEPKv@plt>
  41208c:	aa0003e2 	mov	x2, x0
  412090:	f0000020 	adrp	x0, 419000 <_IO_stdin_used+0x8>
  412094:	91010001 	add	x1, x0, #0x40
  412098:	aa0203e0 	mov	x0, x2
  41209c:	97ffdb95 	bl	408ef0 <_ZStlsISt11char_traitsIcEERSt13basic_ostreamIcT_ES5_PKc@plt>
  4120a0:	f94013e1 	ldr	x1, [sp,#32]
  4120a4:	97ffdb37 	bl	408d80 <_ZNSolsEPKv@plt>
  4120a8:	aa0003e2 	mov	x2, x0
  4120ac:	f0000020 	adrp	x0, 419000 <_IO_stdin_used+0x8>
  4120b0:	91014001 	add	x1, x0, #0x50
  4120b4:	aa0203e0 	mov	x0, x2
  4120b8:	97ffdb8e 	bl	408ef0 <_ZStlsISt11char_traitsIcEERSt13basic_ostreamIcT_ES5_PKc@plt>
  4120bc:	aa0003e2 	mov	x2, x0
  4120c0:	f9400fe0 	ldr	x0, [sp,#24]
  4120c4:	f9400000 	ldr	x0, [x0]
  4120c8:	aa0003e1 	mov	x1, x0
  4120cc:	aa0203e0 	mov	x0, x2
  4120d0:	97ffdcdc 	bl	409440 <_ZNSolsEl@plt>
  4120d4:	aa0003e2 	mov	x2, x0
  4120d8:	d0ffffa0 	adrp	x0, 408000 <_init-0x970>
  4120dc:	912ec001 	add	x1, x0, #0xbb0
  4120e0:	aa0203e0 	mov	x0, x2
  4120e4:	97ffdb97 	bl	408f40 <_ZNSolsEPFRSoS_E@plt>
  4120e8:	f9400fe1 	ldr	x1, [sp,#24]
  4120ec:	f9400023 	ldr	x3, [x1]
  4120f0:	f9400be1 	ldr	x1, [sp,#16]
  4120f4:	b9400025 	ldr	w5, [x1]
  4120f8:	f94017e2 	ldr	x2, [sp,#40]
  4120fc:	f94013e6 	ldr	x6, [sp,#32]
  412100:	d2800001 	mov	x1, #0x0                   	// #0
  412104:	aa0503e4 	mov	x4, x5
  412108:	adc80440 	ldp	q0, q1, [x2,#256]!
  41210c:	adc80440 	ldp	q0, q1, [x2,#256]!
  412110:	adc80440 	ldp	q0, q1, [x2,#256]!
  412114:	ad8804c0 	stp	q0, q1, [x6,#256]!
  412118:	adc80440 	ldp	q0, q1, [x2,#256]!
  41211c:	adc80440 	ldp	q0, q1, [x2,#256]!
  412120:	aa1e03eb 	mov	x11, x30
  412124:	97ffdd58 	bl	409684 <nop_>
  412128:	aa0b03fe 	mov	x30, x11
  41212c:	adc80440 	ldp	q0, q1, [x2,#256]!
  412130:	adc80440 	ldp	q0, q1, [x2,#256]!
  412134:	adc80440 	ldp	q0, q1, [x2,#256]!
  412138:	adc80440 	ldp	q0, q1, [x2,#256]!
  41213c:	ad8804c0 	stp	q0, q1, [x6,#256]!
  412140:	adc80440 	ldp	q0, q1, [x2,#256]!
  412144:	aa1e03eb 	mov	x11, x30
  412148:	97ffdd4f 	bl	409684 <nop_>
  41214c:	aa0b03fe 	mov	x30, x11
  412150:	adc80440 	ldp	q0, q1, [x2,#256]!
  412154:	adc80440 	ldp	q0, q1, [x2,#256]!
  412158:	adc80440 	ldp	q0, q1, [x2,#256]!
  41215c:	ad8804c0 	stp	q0, q1, [x6,#256]!
  412160:	adc80440 	ldp	q0, q1, [x2,#256]!
  412164:	adc80440 	ldp	q0, q1, [x2,#256]!
  412168:	aa1e03eb 	mov	x11, x30
  41216c:	97ffdd46 	bl	409684 <nop_>
  412170:	aa0b03fe 	mov	x30, x11
  412174:	adc80440 	ldp	q0, q1, [x2,#256]!
  412178:	adc80440 	ldp	q0, q1, [x2,#256]!
  41217c:	adc80440 	ldp	q0, q1, [x2,#256]!
  412180:	ad8804c0 	stp	q0, q1, [x6,#256]!
  412184:	adc80440 	ldp	q0, q1, [x2,#256]!
  412188:	adc80440 	ldp	q0, q1, [x2,#256]!
  41218c:	aa1e03eb 	mov	x11, x30
  412190:	97ffdd3d 	bl	409684 <nop_>
  412194:	aa0b03fe 	mov	x30, x11
  412198:	ad8804c0 	stp	q0, q1, [x6,#256]!
  41219c:	adc80440 	ldp	q0, q1, [x2,#256]!
  4121a0:	adc80440 	ldp	q0, q1, [x2,#256]!
  4121a4:	adc80440 	ldp	q0, q1, [x2,#256]!
  4121a8:	adc80440 	ldp	q0, q1, [x2,#256]!
  4121ac:	ad8804c0 	stp	q0, q1, [x6,#256]!
  4121b0:	aa1e03eb 	mov	x11, x30
  4121b4:	97ffdd34 	bl	409684 <nop_>
  4121b8:	aa0b03fe 	mov	x30, x11
  4121bc:	adc80440 	ldp	q0, q1, [x2,#256]!
  4121c0:	adc80440 	ldp	q0, q1, [x2,#256]!
  4121c4:	adc80440 	ldp	q0, q1, [x2,#256]!
  4121c8:	ad8804c0 	stp	q0, q1, [x6,#256]!
  4121cc:	adc80440 	ldp	q0, q1, [x2,#256]!
  4121d0:	adc80440 	ldp	q0, q1, [x2,#256]!
  4121d4:	aa1e03eb 	mov	x11, x30
  4121d8:	97ffdd2b 	bl	409684 <nop_>
  4121dc:	aa0b03fe 	mov	x30, x11
  4121e0:	adc80440 	ldp	q0, q1, [x2,#256]!
  4121e4:	adc80440 	ldp	q0, q1, [x2,#256]!
  4121e8:	ad8804c0 	stp	q0, q1, [x6,#256]!
  4121ec:	adc80440 	ldp	q0, q1, [x2,#256]!
  4121f0:	adc80440 	ldp	q0, q1, [x2,#256]!
  4121f4:	adc80440 	ldp	q0, q1, [x2,#256]!
  4121f8:	aa1e03eb 	mov	x11, x30
  4121fc:	97ffdd22 	bl	409684 <nop_>
  412200:	aa0b03fe 	mov	x30, x11
  412204:	adc80440 	ldp	q0, q1, [x2,#256]!
  412208:	ad8804c0 	stp	q0, q1, [x6,#256]!
  41220c:	adc80440 	ldp	q0, q1, [x2,#256]!
  412210:	adc80440 	ldp	q0, q1, [x2,#256]!
  412214:	adc80440 	ldp	q0, q1, [x2,#256]!
  412218:	adc80440 	ldp	q0, q1, [x2,#256]!
  41221c:	aa1e03eb 	mov	x11, x30
  412220:	97ffdd19 	bl	409684 <nop_>
  412224:	aa0b03fe 	mov	x30, x11
  412228:	adc80440 	ldp	q0, q1, [x2,#256]!
  41222c:	ad8804c0 	stp	q0, q1, [x6,#256]!
  412230:	adc80440 	ldp	q0, q1, [x2,#256]!
  412234:	adc80440 	ldp	q0, q1, [x2,#256]!
  412238:	adc80440 	ldp	q0, q1, [x2,#256]!
  41223c:	adc80440 	ldp	q0, q1, [x2,#256]!
  412240:	aa1e03eb 	mov	x11, x30
  412244:	97ffdd10 	bl	409684 <nop_>
  412248:	aa0b03fe 	mov	x30, x11
  41224c:	adc80440 	ldp	q0, q1, [x2,#256]!
  412250:	adc80440 	ldp	q0, q1, [x2,#256]!
  412254:	adc80440 	ldp	q0, q1, [x2,#256]!
  412258:	ad8804c0 	stp	q0, q1, [x6,#256]!
  41225c:	adc80440 	ldp	q0, q1, [x2,#256]!
  412260:	adc80440 	ldp	q0, q1, [x2,#256]!
  412264:	aa1e03eb 	mov	x11, x30
  412268:	97ffdd07 	bl	409684 <nop_>
  41226c:	aa0b03fe 	mov	x30, x11
  412270:	adc80440 	ldp	q0, q1, [x2,#256]!
  412274:	adc80440 	ldp	q0, q1, [x2,#256]!
  412278:	ad8804c0 	stp	q0, q1, [x6,#256]!
  41227c:	adc80440 	ldp	q0, q1, [x2,#256]!
  412280:	adc80440 	ldp	q0, q1, [x2,#256]!
  412284:	adc80440 	ldp	q0, q1, [x2,#256]!
  412288:	aa1e03eb 	mov	x11, x30
  41228c:	97ffdcfe 	bl	409684 <nop_>
  412290:	aa0b03fe 	mov	x30, x11
  412294:	adc80440 	ldp	q0, q1, [x2,#256]!
  412298:	adc80440 	ldp	q0, q1, [x2,#256]!
  41229c:	adc80440 	ldp	q0, q1, [x2,#256]!
  4122a0:	ad8804c0 	stp	q0, q1, [x6,#256]!
  4122a4:	adc80440 	ldp	q0, q1, [x2,#256]!
  4122a8:	adc80440 	ldp	q0, q1, [x2,#256]!
  4122ac:	aa1e03eb 	mov	x11, x30
  4122b0:	97ffdcf5 	bl	409684 <nop_>
  4122b4:	aa0b03fe 	mov	x30, x11
  4122b8:	adc80440 	ldp	q0, q1, [x2,#256]!
  4122bc:	adc80440 	ldp	q0, q1, [x2,#256]!
  4122c0:	ad8804c0 	stp	q0, q1, [x6,#256]!
  4122c4:	adc80440 	ldp	q0, q1, [x2,#256]!
  4122c8:	adc80440 	ldp	q0, q1, [x2,#256]!
  4122cc:	adc80440 	ldp	q0, q1, [x2,#256]!
  4122d0:	aa1e03eb 	mov	x11, x30
  4122d4:	97ffdcec 	bl	409684 <nop_>
  4122d8:	aa0b03fe 	mov	x30, x11
  4122dc:	adc80440 	ldp	q0, q1, [x2,#256]!
  4122e0:	adc80440 	ldp	q0, q1, [x2,#256]!
  4122e4:	adc80440 	ldp	q0, q1, [x2,#256]!
  4122e8:	adc80440 	ldp	q0, q1, [x2,#256]!
  4122ec:	adc80440 	ldp	q0, q1, [x2,#256]!
  4122f0:	adc80440 	ldp	q0, q1, [x2,#256]!
  4122f4:	aa1e03eb 	mov	x11, x30
  4122f8:	97ffdce3 	bl	409684 <nop_>
  4122fc:	aa0b03fe 	mov	x30, x11
  412300:	adc80440 	ldp	q0, q1, [x2,#256]!
  412304:	adc80440 	ldp	q0, q1, [x2,#256]!
  412308:	adc80440 	ldp	q0, q1, [x2,#256]!
  41230c:	adc80440 	ldp	q0, q1, [x2,#256]!
  412310:	adc80440 	ldp	q0, q1, [x2,#256]!
  412314:	adc80440 	ldp	q0, q1, [x2,#256]!
  412318:	aa1e03eb 	mov	x11, x30
  41231c:	97ffdcda 	bl	409684 <nop_>
  412320:	aa0b03fe 	mov	x30, x11
  412324:	adc80440 	ldp	q0, q1, [x2,#256]!
  412328:	adc80440 	ldp	q0, q1, [x2,#256]!
  41232c:	adc80440 	ldp	q0, q1, [x2,#256]!
  412330:	adc80440 	ldp	q0, q1, [x2,#256]!
  412334:	adc80440 	ldp	q0, q1, [x2,#256]!
  412338:	ad8804c0 	stp	q0, q1, [x6,#256]!
  41233c:	aa1e03eb 	mov	x11, x30
  412340:	97ffdcd1 	bl	409684 <nop_>
  412344:	aa0b03fe 	mov	x30, x11
  412348:	adc80440 	ldp	q0, q1, [x2,#256]!
  41234c:	adc80440 	ldp	q0, q1, [x2,#256]!
  412350:	adc80440 	ldp	q0, q1, [x2,#256]!
  412354:	ad8804c0 	stp	q0, q1, [x6,#256]!
  412358:	aa1e03eb 	mov	x11, x30
  41235c:	97ffdcca 	bl	409684 <nop_>
  412360:	aa0b03fe 	mov	x30, x11
  412364:	91320021 	add	x1, x1, #0xc80
  412368:	eb03003f 	cmp	x1, x3
  41236c:	5400c1ed 	b.le	413ba8 <_Z15STREAM_copy_100PdS_PlPKi+0xe0>
  412370:	d503201f 	nop
  412374:	a8c37bfd 	ldp	x29, x30, [sp],#48
  412378:	d65f03c0 	ret

000000000041237c <_Z14STREAM_copy_86PdS_PlPKi>:
  41237c:	a9bd7bfd 	stp	x29, x30, [sp,#-48]!
  412380:	910003fd 	mov	x29, sp
  412384:	f90017e0 	str	x0, [sp,#40]
  412388:	f90013e1 	str	x1, [sp,#32]
  41238c:	f9000fe2 	str	x2, [sp,#24]
  412390:	f9000be3 	str	x3, [sp,#16]
  412394:	d2800000 	mov	x0, #0x0                   	// #0
  412398:	f0000020 	adrp	x0, 419000 <_IO_stdin_used+0x8>
  41239c:	91008001 	add	x1, x0, #0x20
  4123a0:	900000e0 	adrp	x0, 42e000 <_Znam@GLIBCXX_3.4>
  4123a4:	91286000 	add	x0, x0, #0xa18
  4123a8:	97ffdad2 	bl	408ef0 <_ZStlsISt11char_traitsIcEERSt13basic_ostreamIcT_ES5_PKc@plt>
  4123ac:	aa0003e2 	mov	x2, x0
  4123b0:	f9400be0 	ldr	x0, [sp,#16]
  4123b4:	b9400000 	ldr	w0, [x0]
  4123b8:	2a0003e1 	mov	w1, w0
  4123bc:	aa0203e0 	mov	x0, x2
  4123c0:	97ffdc00 	bl	4093c0 <_ZNSolsEi@plt>
  4123c4:	aa0003e2 	mov	x2, x0
  4123c8:	f0000020 	adrp	x0, 419000 <_IO_stdin_used+0x8>
  4123cc:	9100c001 	add	x1, x0, #0x30
  4123d0:	aa0203e0 	mov	x0, x2
  4123d4:	97ffdac7 	bl	408ef0 <_ZStlsISt11char_traitsIcEERSt13basic_ostreamIcT_ES5_PKc@plt>
  4123d8:	f94017e1 	ldr	x1, [sp,#40]
  4123dc:	97ffda69 	bl	408d80 <_ZNSolsEPKv@plt>
  4123e0:	aa0003e2 	mov	x2, x0
  4123e4:	f0000020 	adrp	x0, 419000 <_IO_stdin_used+0x8>
  4123e8:	91010001 	add	x1, x0, #0x40
  4123ec:	aa0203e0 	mov	x0, x2
  4123f0:	97ffdac0 	bl	408ef0 <_ZStlsISt11char_traitsIcEERSt13basic_ostreamIcT_ES5_PKc@plt>
  4123f4:	f94013e1 	ldr	x1, [sp,#32]
  4123f8:	97ffda62 	bl	408d80 <_ZNSolsEPKv@plt>
  4123fc:	aa0003e2 	mov	x2, x0
  412400:	f0000020 	adrp	x0, 419000 <_IO_stdin_used+0x8>
  412404:	91014001 	add	x1, x0, #0x50
  412408:	aa0203e0 	mov	x0, x2
  41240c:	97ffdab9 	bl	408ef0 <_ZStlsISt11char_traitsIcEERSt13basic_ostreamIcT_ES5_PKc@plt>
  412410:	aa0003e2 	mov	x2, x0
  412414:	f9400fe0 	ldr	x0, [sp,#24]
  412418:	f9400000 	ldr	x0, [x0]
  41241c:	aa0003e1 	mov	x1, x0
  412420:	aa0203e0 	mov	x0, x2
  412424:	97ffdc07 	bl	409440 <_ZNSolsEl@plt>
  412428:	aa0003e2 	mov	x2, x0
  41242c:	d0ffffa0 	adrp	x0, 408000 <_init-0x970>
  412430:	912ec001 	add	x1, x0, #0xbb0
  412434:	aa0203e0 	mov	x0, x2
  412438:	97ffdac2 	bl	408f40 <_ZNSolsEPFRSoS_E@plt>
  41243c:	f9400fe1 	ldr	x1, [sp,#24]
  412440:	f9400023 	ldr	x3, [x1]
  412444:	f9400be1 	ldr	x1, [sp,#16]
  412448:	b9400025 	ldr	w5, [x1]
  41244c:	f94017e2 	ldr	x2, [sp,#40]
  412450:	f94013e6 	ldr	x6, [sp,#32]
  412454:	d2800001 	mov	x1, #0x0                   	// #0
  412458:	aa0503e4 	mov	x4, x5
  41245c:	adc80440 	ldp	q0, q1, [x2,#256]!
  412460:	adc80440 	ldp	q0, q1, [x2,#256]!
  412464:	adc80440 	ldp	q0, q1, [x2,#256]!
  412468:	ad8804c0 	stp	q0, q1, [x6,#256]!
  41246c:	adc80440 	ldp	q0, q1, [x2,#256]!
  412470:	adc80440 	ldp	q0, q1, [x2,#256]!
  412474:	aa1e03eb 	mov	x11, x30
  412478:	97ffdc83 	bl	409684 <nop_>
  41247c:	aa0b03fe 	mov	x30, x11
  412480:	adc80440 	ldp	q0, q1, [x2,#256]!
  412484:	adc80440 	ldp	q0, q1, [x2,#256]!
  412488:	adc80440 	ldp	q0, q1, [x2,#256]!
  41248c:	adc80440 	ldp	q0, q1, [x2,#256]!
  412490:	ad8804c0 	stp	q0, q1, [x6,#256]!
  412494:	adc80440 	ldp	q0, q1, [x2,#256]!
  412498:	aa1e03eb 	mov	x11, x30
  41249c:	97ffdc7a 	bl	409684 <nop_>
  4124a0:	aa0b03fe 	mov	x30, x11
  4124a4:	adc80440 	ldp	q0, q1, [x2,#256]!
  4124a8:	adc80440 	ldp	q0, q1, [x2,#256]!
  4124ac:	adc80440 	ldp	q0, q1, [x2,#256]!
  4124b0:	ad8804c0 	stp	q0, q1, [x6,#256]!
  4124b4:	adc80440 	ldp	q0, q1, [x2,#256]!
  4124b8:	adc80440 	ldp	q0, q1, [x2,#256]!
  4124bc:	aa1e03eb 	mov	x11, x30
  4124c0:	97ffdc71 	bl	409684 <nop_>
  4124c4:	aa0b03fe 	mov	x30, x11
  4124c8:	adc80440 	ldp	q0, q1, [x2,#256]!
  4124cc:	adc80440 	ldp	q0, q1, [x2,#256]!
  4124d0:	adc80440 	ldp	q0, q1, [x2,#256]!
  4124d4:	ad8804c0 	stp	q0, q1, [x6,#256]!
  4124d8:	adc80440 	ldp	q0, q1, [x2,#256]!
  4124dc:	adc80440 	ldp	q0, q1, [x2,#256]!
  4124e0:	aa1e03eb 	mov	x11, x30
  4124e4:	97ffdc68 	bl	409684 <nop_>
  4124e8:	aa0b03fe 	mov	x30, x11
  4124ec:	ad8804c0 	stp	q0, q1, [x6,#256]!
  4124f0:	adc80440 	ldp	q0, q1, [x2,#256]!
  4124f4:	adc80440 	ldp	q0, q1, [x2,#256]!
  4124f8:	adc80440 	ldp	q0, q1, [x2,#256]!
  4124fc:	adc80440 	ldp	q0, q1, [x2,#256]!
  412500:	adc80440 	ldp	q0, q1, [x2,#256]!
  412504:	aa1e03eb 	mov	x11, x30
  412508:	97ffdc5f 	bl	409684 <nop_>
  41250c:	aa0b03fe 	mov	x30, x11
  412510:	adc80440 	ldp	q0, q1, [x2,#256]!
  412514:	adc80440 	ldp	q0, q1, [x2,#256]!
  412518:	adc80440 	ldp	q0, q1, [x2,#256]!
  41251c:	ad8804c0 	stp	q0, q1, [x6,#256]!
  412520:	adc80440 	ldp	q0, q1, [x2,#256]!
  412524:	adc80440 	ldp	q0, q1, [x2,#256]!
  412528:	aa1e03eb 	mov	x11, x30
  41252c:	97ffdc56 	bl	409684 <nop_>
  412530:	aa0b03fe 	mov	x30, x11
  412534:	adc80440 	ldp	q0, q1, [x2,#256]!
  412538:	adc80440 	ldp	q0, q1, [x2,#256]!
  41253c:	ad8804c0 	stp	q0, q1, [x6,#256]!
  412540:	adc80440 	ldp	q0, q1, [x2,#256]!
  412544:	adc80440 	ldp	q0, q1, [x2,#256]!
  412548:	adc80440 	ldp	q0, q1, [x2,#256]!
  41254c:	aa1e03eb 	mov	x11, x30
  412550:	97ffdc4d 	bl	409684 <nop_>
  412554:	aa0b03fe 	mov	x30, x11
  412558:	adc80440 	ldp	q0, q1, [x2,#256]!
  41255c:	ad8804c0 	stp	q0, q1, [x6,#256]!
  412560:	adc80440 	ldp	q0, q1, [x2,#256]!
  412564:	adc80440 	ldp	q0, q1, [x2,#256]!
  412568:	adc80440 	ldp	q0, q1, [x2,#256]!
  41256c:	adc80440 	ldp	q0, q1, [x2,#256]!
  412570:	aa1e03eb 	mov	x11, x30
  412574:	97ffdc44 	bl	409684 <nop_>
  412578:	aa0b03fe 	mov	x30, x11
  41257c:	adc80440 	ldp	q0, q1, [x2,#256]!
  412580:	ad8804c0 	stp	q0, q1, [x6,#256]!
  412584:	adc80440 	ldp	q0, q1, [x2,#256]!
  412588:	adc80440 	ldp	q0, q1, [x2,#256]!
  41258c:	adc80440 	ldp	q0, q1, [x2,#256]!
  412590:	adc80440 	ldp	q0, q1, [x2,#256]!
  412594:	aa1e03eb 	mov	x11, x30
  412598:	97ffdc3b 	bl	409684 <nop_>
  41259c:	aa0b03fe 	mov	x30, x11
  4125a0:	adc80440 	ldp	q0, q1, [x2,#256]!
  4125a4:	adc80440 	ldp	q0, q1, [x2,#256]!
  4125a8:	adc80440 	ldp	q0, q1, [x2,#256]!
  4125ac:	ad8804c0 	stp	q0, q1, [x6,#256]!
  4125b0:	adc80440 	ldp	q0, q1, [x2,#256]!
  4125b4:	adc80440 	ldp	q0, q1, [x2,#256]!
  4125b8:	aa1e03eb 	mov	x11, x30
  4125bc:	97ffdc32 	bl	409684 <nop_>
  4125c0:	aa0b03fe 	mov	x30, x11
  4125c4:	adc80440 	ldp	q0, q1, [x2,#256]!
  4125c8:	adc80440 	ldp	q0, q1, [x2,#256]!
  4125cc:	ad8804c0 	stp	q0, q1, [x6,#256]!
  4125d0:	adc80440 	ldp	q0, q1, [x2,#256]!
  4125d4:	adc80440 	ldp	q0, q1, [x2,#256]!
  4125d8:	adc80440 	ldp	q0, q1, [x2,#256]!
  4125dc:	aa1e03eb 	mov	x11, x30
  4125e0:	97ffdc29 	bl	409684 <nop_>
  4125e4:	aa0b03fe 	mov	x30, x11
  4125e8:	adc80440 	ldp	q0, q1, [x2,#256]!
  4125ec:	adc80440 	ldp	q0, q1, [x2,#256]!
  4125f0:	adc80440 	ldp	q0, q1, [x2,#256]!
  4125f4:	adc80440 	ldp	q0, q1, [x2,#256]!
  4125f8:	adc80440 	ldp	q0, q1, [x2,#256]!
  4125fc:	adc80440 	ldp	q0, q1, [x2,#256]!
  412600:	aa1e03eb 	mov	x11, x30
  412604:	97ffdc20 	bl	409684 <nop_>
  412608:	aa0b03fe 	mov	x30, x11
  41260c:	adc80440 	ldp	q0, q1, [x2,#256]!
  412610:	adc80440 	ldp	q0, q1, [x2,#256]!
  412614:	ad8804c0 	stp	q0, q1, [x6,#256]!
  412618:	adc80440 	ldp	q0, q1, [x2,#256]!
  41261c:	adc80440 	ldp	q0, q1, [x2,#256]!
  412620:	adc80440 	ldp	q0, q1, [x2,#256]!
  412624:	aa1e03eb 	mov	x11, x30
  412628:	97ffdc17 	bl	409684 <nop_>
  41262c:	aa0b03fe 	mov	x30, x11
  412630:	adc80440 	ldp	q0, q1, [x2,#256]!
  412634:	adc80440 	ldp	q0, q1, [x2,#256]!
  412638:	adc80440 	ldp	q0, q1, [x2,#256]!
  41263c:	adc80440 	ldp	q0, q1, [x2,#256]!
  412640:	adc80440 	ldp	q0, q1, [x2,#256]!
  412644:	adc80440 	ldp	q0, q1, [x2,#256]!
  412648:	aa1e03eb 	mov	x11, x30
  41264c:	97ffdc0e 	bl	409684 <nop_>
  412650:	aa0b03fe 	mov	x30, x11
  412654:	adc80440 	ldp	q0, q1, [x2,#256]!
  412658:	adc80440 	ldp	q0, q1, [x2,#256]!
  41265c:	adc80440 	ldp	q0, q1, [x2,#256]!
  412660:	adc80440 	ldp	q0, q1, [x2,#256]!
  412664:	adc80440 	ldp	q0, q1, [x2,#256]!
  412668:	adc80440 	ldp	q0, q1, [x2,#256]!
  41266c:	aa1e03eb 	mov	x11, x30
  412670:	97ffdc05 	bl	409684 <nop_>
  412674:	aa0b03fe 	mov	x30, x11
  412678:	adc80440 	ldp	q0, q1, [x2,#256]!
  41267c:	adc80440 	ldp	q0, q1, [x2,#256]!
  412680:	adc80440 	ldp	q0, q1, [x2,#256]!
  412684:	adc80440 	ldp	q0, q1, [x2,#256]!
  412688:	adc80440 	ldp	q0, q1, [x2,#256]!
  41268c:	ad8804c0 	stp	q0, q1, [x6,#256]!
  412690:	aa1e03eb 	mov	x11, x30
  412694:	97ffdbfc 	bl	409684 <nop_>
  412698:	aa0b03fe 	mov	x30, x11
  41269c:	adc80440 	ldp	q0, q1, [x2,#256]!
  4126a0:	adc80440 	ldp	q0, q1, [x2,#256]!
  4126a4:	adc80440 	ldp	q0, q1, [x2,#256]!
  4126a8:	ad8804c0 	stp	q0, q1, [x6,#256]!
  4126ac:	aa1e03eb 	mov	x11, x30
  4126b0:	97ffdbf5 	bl	409684 <nop_>
  4126b4:	aa0b03fe 	mov	x30, x11
  4126b8:	91320021 	add	x1, x1, #0xc80
  4126bc:	eb03003f 	cmp	x1, x3
  4126c0:	5400a74d 	b.le	413ba8 <_Z15STREAM_copy_100PdS_PlPKi+0xe0>
  4126c4:	d503201f 	nop
  4126c8:	a8c37bfd 	ldp	x29, x30, [sp],#48
  4126cc:	d65f03c0 	ret

00000000004126d0 <_Z14STREAM_copy_88PdS_PlPKi>:
  4126d0:	a9bd7bfd 	stp	x29, x30, [sp,#-48]!
  4126d4:	910003fd 	mov	x29, sp
  4126d8:	f90017e0 	str	x0, [sp,#40]
  4126dc:	f90013e1 	str	x1, [sp,#32]
  4126e0:	f9000fe2 	str	x2, [sp,#24]
  4126e4:	f9000be3 	str	x3, [sp,#16]
  4126e8:	d2800000 	mov	x0, #0x0                   	// #0
  4126ec:	f0000020 	adrp	x0, 419000 <_IO_stdin_used+0x8>
  4126f0:	91008001 	add	x1, x0, #0x20
  4126f4:	900000e0 	adrp	x0, 42e000 <_Znam@GLIBCXX_3.4>
  4126f8:	91286000 	add	x0, x0, #0xa18
  4126fc:	97ffd9fd 	bl	408ef0 <_ZStlsISt11char_traitsIcEERSt13basic_ostreamIcT_ES5_PKc@plt>
  412700:	aa0003e2 	mov	x2, x0
  412704:	f9400be0 	ldr	x0, [sp,#16]
  412708:	b9400000 	ldr	w0, [x0]
  41270c:	2a0003e1 	mov	w1, w0
  412710:	aa0203e0 	mov	x0, x2
  412714:	97ffdb2b 	bl	4093c0 <_ZNSolsEi@plt>
  412718:	aa0003e2 	mov	x2, x0
  41271c:	f0000020 	adrp	x0, 419000 <_IO_stdin_used+0x8>
  412720:	9100c001 	add	x1, x0, #0x30
  412724:	aa0203e0 	mov	x0, x2
  412728:	97ffd9f2 	bl	408ef0 <_ZStlsISt11char_traitsIcEERSt13basic_ostreamIcT_ES5_PKc@plt>
  41272c:	f94017e1 	ldr	x1, [sp,#40]
  412730:	97ffd994 	bl	408d80 <_ZNSolsEPKv@plt>
  412734:	aa0003e2 	mov	x2, x0
  412738:	f0000020 	adrp	x0, 419000 <_IO_stdin_used+0x8>
  41273c:	91010001 	add	x1, x0, #0x40
  412740:	aa0203e0 	mov	x0, x2
  412744:	97ffd9eb 	bl	408ef0 <_ZStlsISt11char_traitsIcEERSt13basic_ostreamIcT_ES5_PKc@plt>
  412748:	f94013e1 	ldr	x1, [sp,#32]
  41274c:	97ffd98d 	bl	408d80 <_ZNSolsEPKv@plt>
  412750:	aa0003e2 	mov	x2, x0
  412754:	f0000020 	adrp	x0, 419000 <_IO_stdin_used+0x8>
  412758:	91014001 	add	x1, x0, #0x50
  41275c:	aa0203e0 	mov	x0, x2
  412760:	97ffd9e4 	bl	408ef0 <_ZStlsISt11char_traitsIcEERSt13basic_ostreamIcT_ES5_PKc@plt>
  412764:	aa0003e2 	mov	x2, x0
  412768:	f9400fe0 	ldr	x0, [sp,#24]
  41276c:	f9400000 	ldr	x0, [x0]
  412770:	aa0003e1 	mov	x1, x0
  412774:	aa0203e0 	mov	x0, x2
  412778:	97ffdb32 	bl	409440 <_ZNSolsEl@plt>
  41277c:	aa0003e2 	mov	x2, x0
  412780:	d0ffffa0 	adrp	x0, 408000 <_init-0x970>
  412784:	912ec001 	add	x1, x0, #0xbb0
  412788:	aa0203e0 	mov	x0, x2
  41278c:	97ffd9ed 	bl	408f40 <_ZNSolsEPFRSoS_E@plt>
  412790:	f9400fe1 	ldr	x1, [sp,#24]
  412794:	f9400023 	ldr	x3, [x1]
  412798:	f9400be1 	ldr	x1, [sp,#16]
  41279c:	b9400025 	ldr	w5, [x1]
  4127a0:	f94017e2 	ldr	x2, [sp,#40]
  4127a4:	f94013e6 	ldr	x6, [sp,#32]
  4127a8:	d2800001 	mov	x1, #0x0                   	// #0
  4127ac:	aa0503e4 	mov	x4, x5
  4127b0:	adc80440 	ldp	q0, q1, [x2,#256]!
  4127b4:	adc80440 	ldp	q0, q1, [x2,#256]!
  4127b8:	adc80440 	ldp	q0, q1, [x2,#256]!
  4127bc:	ad8804c0 	stp	q0, q1, [x6,#256]!
  4127c0:	adc80440 	ldp	q0, q1, [x2,#256]!
  4127c4:	adc80440 	ldp	q0, q1, [x2,#256]!
  4127c8:	aa1e03eb 	mov	x11, x30
  4127cc:	97ffdbae 	bl	409684 <nop_>
  4127d0:	aa0b03fe 	mov	x30, x11
  4127d4:	adc80440 	ldp	q0, q1, [x2,#256]!
  4127d8:	adc80440 	ldp	q0, q1, [x2,#256]!
  4127dc:	adc80440 	ldp	q0, q1, [x2,#256]!
  4127e0:	adc80440 	ldp	q0, q1, [x2,#256]!
  4127e4:	ad8804c0 	stp	q0, q1, [x6,#256]!
  4127e8:	adc80440 	ldp	q0, q1, [x2,#256]!
  4127ec:	aa1e03eb 	mov	x11, x30
  4127f0:	97ffdba5 	bl	409684 <nop_>
  4127f4:	aa0b03fe 	mov	x30, x11
  4127f8:	adc80440 	ldp	q0, q1, [x2,#256]!
  4127fc:	adc80440 	ldp	q0, q1, [x2,#256]!
  412800:	adc80440 	ldp	q0, q1, [x2,#256]!
  412804:	ad8804c0 	stp	q0, q1, [x6,#256]!
  412808:	adc80440 	ldp	q0, q1, [x2,#256]!
  41280c:	adc80440 	ldp	q0, q1, [x2,#256]!
  412810:	aa1e03eb 	mov	x11, x30
  412814:	97ffdb9c 	bl	409684 <nop_>
  412818:	aa0b03fe 	mov	x30, x11
  41281c:	adc80440 	ldp	q0, q1, [x2,#256]!
  412820:	adc80440 	ldp	q0, q1, [x2,#256]!
  412824:	adc80440 	ldp	q0, q1, [x2,#256]!
  412828:	ad8804c0 	stp	q0, q1, [x6,#256]!
  41282c:	adc80440 	ldp	q0, q1, [x2,#256]!
  412830:	adc80440 	ldp	q0, q1, [x2,#256]!
  412834:	aa1e03eb 	mov	x11, x30
  412838:	97ffdb93 	bl	409684 <nop_>
  41283c:	aa0b03fe 	mov	x30, x11
  412840:	ad8804c0 	stp	q0, q1, [x6,#256]!
  412844:	adc80440 	ldp	q0, q1, [x2,#256]!
  412848:	adc80440 	ldp	q0, q1, [x2,#256]!
  41284c:	adc80440 	ldp	q0, q1, [x2,#256]!
  412850:	adc80440 	ldp	q0, q1, [x2,#256]!
  412854:	adc80440 	ldp	q0, q1, [x2,#256]!
  412858:	aa1e03eb 	mov	x11, x30
  41285c:	97ffdb8a 	bl	409684 <nop_>
  412860:	aa0b03fe 	mov	x30, x11
  412864:	adc80440 	ldp	q0, q1, [x2,#256]!
  412868:	adc80440 	ldp	q0, q1, [x2,#256]!
  41286c:	adc80440 	ldp	q0, q1, [x2,#256]!
  412870:	ad8804c0 	stp	q0, q1, [x6,#256]!
  412874:	adc80440 	ldp	q0, q1, [x2,#256]!
  412878:	adc80440 	ldp	q0, q1, [x2,#256]!
  41287c:	aa1e03eb 	mov	x11, x30
  412880:	97ffdb81 	bl	409684 <nop_>
  412884:	aa0b03fe 	mov	x30, x11
  412888:	adc80440 	ldp	q0, q1, [x2,#256]!
  41288c:	adc80440 	ldp	q0, q1, [x2,#256]!
  412890:	adc80440 	ldp	q0, q1, [x2,#256]!
  412894:	adc80440 	ldp	q0, q1, [x2,#256]!
  412898:	adc80440 	ldp	q0, q1, [x2,#256]!
  41289c:	adc80440 	ldp	q0, q1, [x2,#256]!
  4128a0:	aa1e03eb 	mov	x11, x30
  4128a4:	97ffdb78 	bl	409684 <nop_>
  4128a8:	aa0b03fe 	mov	x30, x11
  4128ac:	adc80440 	ldp	q0, q1, [x2,#256]!
  4128b0:	ad8804c0 	stp	q0, q1, [x6,#256]!
  4128b4:	adc80440 	ldp	q0, q1, [x2,#256]!
  4128b8:	adc80440 	ldp	q0, q1, [x2,#256]!
  4128bc:	adc80440 	ldp	q0, q1, [x2,#256]!
  4128c0:	adc80440 	ldp	q0, q1, [x2,#256]!
  4128c4:	aa1e03eb 	mov	x11, x30
  4128c8:	97ffdb6f 	bl	409684 <nop_>
  4128cc:	aa0b03fe 	mov	x30, x11
  4128d0:	adc80440 	ldp	q0, q1, [x2,#256]!
  4128d4:	ad8804c0 	stp	q0, q1, [x6,#256]!
  4128d8:	adc80440 	ldp	q0, q1, [x2,#256]!
  4128dc:	adc80440 	ldp	q0, q1, [x2,#256]!
  4128e0:	adc80440 	ldp	q0, q1, [x2,#256]!
  4128e4:	adc80440 	ldp	q0, q1, [x2,#256]!
  4128e8:	aa1e03eb 	mov	x11, x30
  4128ec:	97ffdb66 	bl	409684 <nop_>
  4128f0:	aa0b03fe 	mov	x30, x11
  4128f4:	adc80440 	ldp	q0, q1, [x2,#256]!
  4128f8:	adc80440 	ldp	q0, q1, [x2,#256]!
  4128fc:	adc80440 	ldp	q0, q1, [x2,#256]!
  412900:	adc80440 	ldp	q0, q1, [x2,#256]!
  412904:	adc80440 	ldp	q0, q1, [x2,#256]!
  412908:	adc80440 	ldp	q0, q1, [x2,#256]!
  41290c:	aa1e03eb 	mov	x11, x30
  412910:	97ffdb5d 	bl	409684 <nop_>
  412914:	aa0b03fe 	mov	x30, x11
  412918:	adc80440 	ldp	q0, q1, [x2,#256]!
  41291c:	adc80440 	ldp	q0, q1, [x2,#256]!
  412920:	ad8804c0 	stp	q0, q1, [x6,#256]!
  412924:	adc80440 	ldp	q0, q1, [x2,#256]!
  412928:	adc80440 	ldp	q0, q1, [x2,#256]!
  41292c:	adc80440 	ldp	q0, q1, [x2,#256]!
  412930:	aa1e03eb 	mov	x11, x30
  412934:	97ffdb54 	bl	409684 <nop_>
  412938:	aa0b03fe 	mov	x30, x11
  41293c:	adc80440 	ldp	q0, q1, [x2,#256]!
  412940:	adc80440 	ldp	q0, q1, [x2,#256]!
  412944:	adc80440 	ldp	q0, q1, [x2,#256]!
  412948:	adc80440 	ldp	q0, q1, [x2,#256]!
  41294c:	adc80440 	ldp	q0, q1, [x2,#256]!
  412950:	adc80440 	ldp	q0, q1, [x2,#256]!
  412954:	aa1e03eb 	mov	x11, x30
  412958:	97ffdb4b 	bl	409684 <nop_>
  41295c:	aa0b03fe 	mov	x30, x11
  412960:	adc80440 	ldp	q0, q1, [x2,#256]!
  412964:	adc80440 	ldp	q0, q1, [x2,#256]!
  412968:	ad8804c0 	stp	q0, q1, [x6,#256]!
  41296c:	adc80440 	ldp	q0, q1, [x2,#256]!
  412970:	adc80440 	ldp	q0, q1, [x2,#256]!
  412974:	adc80440 	ldp	q0, q1, [x2,#256]!
  412978:	aa1e03eb 	mov	x11, x30
  41297c:	97ffdb42 	bl	409684 <nop_>
  412980:	aa0b03fe 	mov	x30, x11
  412984:	adc80440 	ldp	q0, q1, [x2,#256]!
  412988:	adc80440 	ldp	q0, q1, [x2,#256]!
  41298c:	adc80440 	ldp	q0, q1, [x2,#256]!
  412990:	adc80440 	ldp	q0, q1, [x2,#256]!
  412994:	adc80440 	ldp	q0, q1, [x2,#256]!
  412998:	adc80440 	ldp	q0, q1, [x2,#256]!
  41299c:	aa1e03eb 	mov	x11, x30
  4129a0:	97ffdb39 	bl	409684 <nop_>
  4129a4:	aa0b03fe 	mov	x30, x11
  4129a8:	adc80440 	ldp	q0, q1, [x2,#256]!
  4129ac:	adc80440 	ldp	q0, q1, [x2,#256]!
  4129b0:	adc80440 	ldp	q0, q1, [x2,#256]!
  4129b4:	adc80440 	ldp	q0, q1, [x2,#256]!
  4129b8:	adc80440 	ldp	q0, q1, [x2,#256]!
  4129bc:	adc80440 	ldp	q0, q1, [x2,#256]!
  4129c0:	aa1e03eb 	mov	x11, x30
  4129c4:	97ffdb30 	bl	409684 <nop_>
  4129c8:	aa0b03fe 	mov	x30, x11
  4129cc:	adc80440 	ldp	q0, q1, [x2,#256]!
  4129d0:	adc80440 	ldp	q0, q1, [x2,#256]!
  4129d4:	adc80440 	ldp	q0, q1, [x2,#256]!
  4129d8:	adc80440 	ldp	q0, q1, [x2,#256]!
  4129dc:	adc80440 	ldp	q0, q1, [x2,#256]!
  4129e0:	ad8804c0 	stp	q0, q1, [x6,#256]!
  4129e4:	aa1e03eb 	mov	x11, x30
  4129e8:	97ffdb27 	bl	409684 <nop_>
  4129ec:	aa0b03fe 	mov	x30, x11
  4129f0:	adc80440 	ldp	q0, q1, [x2,#256]!
  4129f4:	adc80440 	ldp	q0, q1, [x2,#256]!
  4129f8:	adc80440 	ldp	q0, q1, [x2,#256]!
  4129fc:	ad8804c0 	stp	q0, q1, [x6,#256]!
  412a00:	aa1e03eb 	mov	x11, x30
  412a04:	97ffdb20 	bl	409684 <nop_>
  412a08:	aa0b03fe 	mov	x30, x11
  412a0c:	91320021 	add	x1, x1, #0xc80
  412a10:	eb03003f 	cmp	x1, x3
  412a14:	54008cad 	b.le	413ba8 <_Z15STREAM_copy_100PdS_PlPKi+0xe0>
  412a18:	d503201f 	nop
  412a1c:	a8c37bfd 	ldp	x29, x30, [sp],#48
  412a20:	d65f03c0 	ret

0000000000412a24 <_Z14STREAM_copy_90PdS_PlPKi>:
  412a24:	a9bd7bfd 	stp	x29, x30, [sp,#-48]!
  412a28:	910003fd 	mov	x29, sp
  412a2c:	f90017e0 	str	x0, [sp,#40]
  412a30:	f90013e1 	str	x1, [sp,#32]
  412a34:	f9000fe2 	str	x2, [sp,#24]
  412a38:	f9000be3 	str	x3, [sp,#16]
  412a3c:	d2800000 	mov	x0, #0x0                   	// #0
  412a40:	f0000020 	adrp	x0, 419000 <_IO_stdin_used+0x8>
  412a44:	91008001 	add	x1, x0, #0x20
  412a48:	900000e0 	adrp	x0, 42e000 <_Znam@GLIBCXX_3.4>
  412a4c:	91286000 	add	x0, x0, #0xa18
  412a50:	97ffd928 	bl	408ef0 <_ZStlsISt11char_traitsIcEERSt13basic_ostreamIcT_ES5_PKc@plt>
  412a54:	aa0003e2 	mov	x2, x0
  412a58:	f9400be0 	ldr	x0, [sp,#16]
  412a5c:	b9400000 	ldr	w0, [x0]
  412a60:	2a0003e1 	mov	w1, w0
  412a64:	aa0203e0 	mov	x0, x2
  412a68:	97ffda56 	bl	4093c0 <_ZNSolsEi@plt>
  412a6c:	aa0003e2 	mov	x2, x0
  412a70:	f0000020 	adrp	x0, 419000 <_IO_stdin_used+0x8>
  412a74:	9100c001 	add	x1, x0, #0x30
  412a78:	aa0203e0 	mov	x0, x2
  412a7c:	97ffd91d 	bl	408ef0 <_ZStlsISt11char_traitsIcEERSt13basic_ostreamIcT_ES5_PKc@plt>
  412a80:	f94017e1 	ldr	x1, [sp,#40]
  412a84:	97ffd8bf 	bl	408d80 <_ZNSolsEPKv@plt>
  412a88:	aa0003e2 	mov	x2, x0
  412a8c:	f0000020 	adrp	x0, 419000 <_IO_stdin_used+0x8>
  412a90:	91010001 	add	x1, x0, #0x40
  412a94:	aa0203e0 	mov	x0, x2
  412a98:	97ffd916 	bl	408ef0 <_ZStlsISt11char_traitsIcEERSt13basic_ostreamIcT_ES5_PKc@plt>
  412a9c:	f94013e1 	ldr	x1, [sp,#32]
  412aa0:	97ffd8b8 	bl	408d80 <_ZNSolsEPKv@plt>
  412aa4:	aa0003e2 	mov	x2, x0
  412aa8:	f0000020 	adrp	x0, 419000 <_IO_stdin_used+0x8>
  412aac:	91014001 	add	x1, x0, #0x50
  412ab0:	aa0203e0 	mov	x0, x2
  412ab4:	97ffd90f 	bl	408ef0 <_ZStlsISt11char_traitsIcEERSt13basic_ostreamIcT_ES5_PKc@plt>
  412ab8:	aa0003e2 	mov	x2, x0
  412abc:	f9400fe0 	ldr	x0, [sp,#24]
  412ac0:	f9400000 	ldr	x0, [x0]
  412ac4:	aa0003e1 	mov	x1, x0
  412ac8:	aa0203e0 	mov	x0, x2
  412acc:	97ffda5d 	bl	409440 <_ZNSolsEl@plt>
  412ad0:	aa0003e2 	mov	x2, x0
  412ad4:	d0ffffa0 	adrp	x0, 408000 <_init-0x970>
  412ad8:	912ec001 	add	x1, x0, #0xbb0
  412adc:	aa0203e0 	mov	x0, x2
  412ae0:	97ffd918 	bl	408f40 <_ZNSolsEPFRSoS_E@plt>
  412ae4:	f9400fe1 	ldr	x1, [sp,#24]
  412ae8:	f9400023 	ldr	x3, [x1]
  412aec:	f9400be1 	ldr	x1, [sp,#16]
  412af0:	b9400025 	ldr	w5, [x1]
  412af4:	f94017e2 	ldr	x2, [sp,#40]
  412af8:	f94013e6 	ldr	x6, [sp,#32]
  412afc:	d2800001 	mov	x1, #0x0                   	// #0
  412b00:	aa0503e4 	mov	x4, x5
  412b04:	adc80440 	ldp	q0, q1, [x2,#256]!
  412b08:	adc80440 	ldp	q0, q1, [x2,#256]!
  412b0c:	adc80440 	ldp	q0, q1, [x2,#256]!
  412b10:	ad8804c0 	stp	q0, q1, [x6,#256]!
  412b14:	adc80440 	ldp	q0, q1, [x2,#256]!
  412b18:	adc80440 	ldp	q0, q1, [x2,#256]!
  412b1c:	aa1e03eb 	mov	x11, x30
  412b20:	97ffdad9 	bl	409684 <nop_>
  412b24:	aa0b03fe 	mov	x30, x11
  412b28:	adc80440 	ldp	q0, q1, [x2,#256]!
  412b2c:	adc80440 	ldp	q0, q1, [x2,#256]!
  412b30:	adc80440 	ldp	q0, q1, [x2,#256]!
  412b34:	adc80440 	ldp	q0, q1, [x2,#256]!
  412b38:	adc80440 	ldp	q0, q1, [x2,#256]!
  412b3c:	adc80440 	ldp	q0, q1, [x2,#256]!
  412b40:	aa1e03eb 	mov	x11, x30
  412b44:	97ffdad0 	bl	409684 <nop_>
  412b48:	aa0b03fe 	mov	x30, x11
  412b4c:	adc80440 	ldp	q0, q1, [x2,#256]!
  412b50:	adc80440 	ldp	q0, q1, [x2,#256]!
  412b54:	adc80440 	ldp	q0, q1, [x2,#256]!
  412b58:	ad8804c0 	stp	q0, q1, [x6,#256]!
  412b5c:	adc80440 	ldp	q0, q1, [x2,#256]!
  412b60:	adc80440 	ldp	q0, q1, [x2,#256]!
  412b64:	aa1e03eb 	mov	x11, x30
  412b68:	97ffdac7 	bl	409684 <nop_>
  412b6c:	aa0b03fe 	mov	x30, x11
  412b70:	adc80440 	ldp	q0, q1, [x2,#256]!
  412b74:	adc80440 	ldp	q0, q1, [x2,#256]!
  412b78:	adc80440 	ldp	q0, q1, [x2,#256]!
  412b7c:	ad8804c0 	stp	q0, q1, [x6,#256]!
  412b80:	adc80440 	ldp	q0, q1, [x2,#256]!
  412b84:	adc80440 	ldp	q0, q1, [x2,#256]!
  412b88:	aa1e03eb 	mov	x11, x30
  412b8c:	97ffdabe 	bl	409684 <nop_>
  412b90:	aa0b03fe 	mov	x30, x11
  412b94:	ad8804c0 	stp	q0, q1, [x6,#256]!
  412b98:	adc80440 	ldp	q0, q1, [x2,#256]!
  412b9c:	adc80440 	ldp	q0, q1, [x2,#256]!
  412ba0:	adc80440 	ldp	q0, q1, [x2,#256]!
  412ba4:	adc80440 	ldp	q0, q1, [x2,#256]!
  412ba8:	adc80440 	ldp	q0, q1, [x2,#256]!
  412bac:	aa1e03eb 	mov	x11, x30
  412bb0:	97ffdab5 	bl	409684 <nop_>
  412bb4:	aa0b03fe 	mov	x30, x11
  412bb8:	adc80440 	ldp	q0, q1, [x2,#256]!
  412bbc:	adc80440 	ldp	q0, q1, [x2,#256]!
  412bc0:	adc80440 	ldp	q0, q1, [x2,#256]!
  412bc4:	ad8804c0 	stp	q0, q1, [x6,#256]!
  412bc8:	adc80440 	ldp	q0, q1, [x2,#256]!
  412bcc:	adc80440 	ldp	q0, q1, [x2,#256]!
  412bd0:	aa1e03eb 	mov	x11, x30
  412bd4:	97ffdaac 	bl	409684 <nop_>
  412bd8:	aa0b03fe 	mov	x30, x11
  412bdc:	adc80440 	ldp	q0, q1, [x2,#256]!
  412be0:	adc80440 	ldp	q0, q1, [x2,#256]!
  412be4:	adc80440 	ldp	q0, q1, [x2,#256]!
  412be8:	adc80440 	ldp	q0, q1, [x2,#256]!
  412bec:	adc80440 	ldp	q0, q1, [x2,#256]!
  412bf0:	adc80440 	ldp	q0, q1, [x2,#256]!
  412bf4:	aa1e03eb 	mov	x11, x30
  412bf8:	97ffdaa3 	bl	409684 <nop_>
  412bfc:	aa0b03fe 	mov	x30, x11
  412c00:	adc80440 	ldp	q0, q1, [x2,#256]!
  412c04:	adc80440 	ldp	q0, q1, [x2,#256]!
  412c08:	adc80440 	ldp	q0, q1, [x2,#256]!
  412c0c:	adc80440 	ldp	q0, q1, [x2,#256]!
  412c10:	adc80440 	ldp	q0, q1, [x2,#256]!
  412c14:	adc80440 	ldp	q0, q1, [x2,#256]!
  412c18:	aa1e03eb 	mov	x11, x30
  412c1c:	97ffda9a 	bl	409684 <nop_>
  412c20:	aa0b03fe 	mov	x30, x11
  412c24:	adc80440 	ldp	q0, q1, [x2,#256]!
  412c28:	ad8804c0 	stp	q0, q1, [x6,#256]!
  412c2c:	adc80440 	ldp	q0, q1, [x2,#256]!
  412c30:	adc80440 	ldp	q0, q1, [x2,#256]!
  412c34:	adc80440 	ldp	q0, q1, [x2,#256]!
  412c38:	adc80440 	ldp	q0, q1, [x2,#256]!
  412c3c:	aa1e03eb 	mov	x11, x30
  412c40:	97ffda91 	bl	409684 <nop_>
  412c44:	aa0b03fe 	mov	x30, x11
  412c48:	adc80440 	ldp	q0, q1, [x2,#256]!
  412c4c:	adc80440 	ldp	q0, q1, [x2,#256]!
  412c50:	adc80440 	ldp	q0, q1, [x2,#256]!
  412c54:	adc80440 	ldp	q0, q1, [x2,#256]!
  412c58:	adc80440 	ldp	q0, q1, [x2,#256]!
  412c5c:	adc80440 	ldp	q0, q1, [x2,#256]!
  412c60:	aa1e03eb 	mov	x11, x30
  412c64:	97ffda88 	bl	409684 <nop_>
  412c68:	aa0b03fe 	mov	x30, x11
  412c6c:	adc80440 	ldp	q0, q1, [x2,#256]!
  412c70:	adc80440 	ldp	q0, q1, [x2,#256]!
  412c74:	ad8804c0 	stp	q0, q1, [x6,#256]!
  412c78:	adc80440 	ldp	q0, q1, [x2,#256]!
  412c7c:	adc80440 	ldp	q0, q1, [x2,#256]!
  412c80:	adc80440 	ldp	q0, q1, [x2,#256]!
  412c84:	aa1e03eb 	mov	x11, x30
  412c88:	97ffda7f 	bl	409684 <nop_>
  412c8c:	aa0b03fe 	mov	x30, x11
  412c90:	adc80440 	ldp	q0, q1, [x2,#256]!
  412c94:	adc80440 	ldp	q0, q1, [x2,#256]!
  412c98:	adc80440 	ldp	q0, q1, [x2,#256]!
  412c9c:	adc80440 	ldp	q0, q1, [x2,#256]!
  412ca0:	adc80440 	ldp	q0, q1, [x2,#256]!
  412ca4:	adc80440 	ldp	q0, q1, [x2,#256]!
  412ca8:	aa1e03eb 	mov	x11, x30
  412cac:	97ffda76 	bl	409684 <nop_>
  412cb0:	aa0b03fe 	mov	x30, x11
  412cb4:	adc80440 	ldp	q0, q1, [x2,#256]!
  412cb8:	adc80440 	ldp	q0, q1, [x2,#256]!
  412cbc:	ad8804c0 	stp	q0, q1, [x6,#256]!
  412cc0:	adc80440 	ldp	q0, q1, [x2,#256]!
  412cc4:	adc80440 	ldp	q0, q1, [x2,#256]!
  412cc8:	adc80440 	ldp	q0, q1, [x2,#256]!
  412ccc:	aa1e03eb 	mov	x11, x30
  412cd0:	97ffda6d 	bl	409684 <nop_>
  412cd4:	aa0b03fe 	mov	x30, x11
  412cd8:	adc80440 	ldp	q0, q1, [x2,#256]!
  412cdc:	adc80440 	ldp	q0, q1, [x2,#256]!
  412ce0:	adc80440 	ldp	q0, q1, [x2,#256]!
  412ce4:	adc80440 	ldp	q0, q1, [x2,#256]!
  412ce8:	adc80440 	ldp	q0, q1, [x2,#256]!
  412cec:	adc80440 	ldp	q0, q1, [x2,#256]!
  412cf0:	aa1e03eb 	mov	x11, x30
  412cf4:	97ffda64 	bl	409684 <nop_>
  412cf8:	aa0b03fe 	mov	x30, x11
  412cfc:	adc80440 	ldp	q0, q1, [x2,#256]!
  412d00:	adc80440 	ldp	q0, q1, [x2,#256]!
  412d04:	adc80440 	ldp	q0, q1, [x2,#256]!
  412d08:	adc80440 	ldp	q0, q1, [x2,#256]!
  412d0c:	adc80440 	ldp	q0, q1, [x2,#256]!
  412d10:	adc80440 	ldp	q0, q1, [x2,#256]!
  412d14:	aa1e03eb 	mov	x11, x30
  412d18:	97ffda5b 	bl	409684 <nop_>
  412d1c:	aa0b03fe 	mov	x30, x11
  412d20:	adc80440 	ldp	q0, q1, [x2,#256]!
  412d24:	adc80440 	ldp	q0, q1, [x2,#256]!
  412d28:	adc80440 	ldp	q0, q1, [x2,#256]!
  412d2c:	adc80440 	ldp	q0, q1, [x2,#256]!
  412d30:	adc80440 	ldp	q0, q1, [x2,#256]!
  412d34:	ad8804c0 	stp	q0, q1, [x6,#256]!
  412d38:	aa1e03eb 	mov	x11, x30
  412d3c:	97ffda52 	bl	409684 <nop_>
  412d40:	aa0b03fe 	mov	x30, x11
  412d44:	adc80440 	ldp	q0, q1, [x2,#256]!
  412d48:	adc80440 	ldp	q0, q1, [x2,#256]!
  412d4c:	adc80440 	ldp	q0, q1, [x2,#256]!
  412d50:	ad8804c0 	stp	q0, q1, [x6,#256]!
  412d54:	aa1e03eb 	mov	x11, x30
  412d58:	97ffda4b 	bl	409684 <nop_>
  412d5c:	aa0b03fe 	mov	x30, x11
  412d60:	91320021 	add	x1, x1, #0xc80
  412d64:	eb03003f 	cmp	x1, x3
  412d68:	5400720d 	b.le	413ba8 <_Z15STREAM_copy_100PdS_PlPKi+0xe0>
  412d6c:	d503201f 	nop
  412d70:	a8c37bfd 	ldp	x29, x30, [sp],#48
  412d74:	d65f03c0 	ret

0000000000412d78 <_Z14STREAM_copy_92PdS_PlPKi>:
  412d78:	a9bd7bfd 	stp	x29, x30, [sp,#-48]!
  412d7c:	910003fd 	mov	x29, sp
  412d80:	f90017e0 	str	x0, [sp,#40]
  412d84:	f90013e1 	str	x1, [sp,#32]
  412d88:	f9000fe2 	str	x2, [sp,#24]
  412d8c:	f9000be3 	str	x3, [sp,#16]
  412d90:	d2800000 	mov	x0, #0x0                   	// #0
  412d94:	f0000020 	adrp	x0, 419000 <_IO_stdin_used+0x8>
  412d98:	91008001 	add	x1, x0, #0x20
  412d9c:	900000e0 	adrp	x0, 42e000 <_Znam@GLIBCXX_3.4>
  412da0:	91286000 	add	x0, x0, #0xa18
  412da4:	97ffd853 	bl	408ef0 <_ZStlsISt11char_traitsIcEERSt13basic_ostreamIcT_ES5_PKc@plt>
  412da8:	aa0003e2 	mov	x2, x0
  412dac:	f9400be0 	ldr	x0, [sp,#16]
  412db0:	b9400000 	ldr	w0, [x0]
  412db4:	2a0003e1 	mov	w1, w0
  412db8:	aa0203e0 	mov	x0, x2
  412dbc:	97ffd981 	bl	4093c0 <_ZNSolsEi@plt>
  412dc0:	aa0003e2 	mov	x2, x0
  412dc4:	f0000020 	adrp	x0, 419000 <_IO_stdin_used+0x8>
  412dc8:	9100c001 	add	x1, x0, #0x30
  412dcc:	aa0203e0 	mov	x0, x2
  412dd0:	97ffd848 	bl	408ef0 <_ZStlsISt11char_traitsIcEERSt13basic_ostreamIcT_ES5_PKc@plt>
  412dd4:	f94017e1 	ldr	x1, [sp,#40]
  412dd8:	97ffd7ea 	bl	408d80 <_ZNSolsEPKv@plt>
  412ddc:	aa0003e2 	mov	x2, x0
  412de0:	f0000020 	adrp	x0, 419000 <_IO_stdin_used+0x8>
  412de4:	91010001 	add	x1, x0, #0x40
  412de8:	aa0203e0 	mov	x0, x2
  412dec:	97ffd841 	bl	408ef0 <_ZStlsISt11char_traitsIcEERSt13basic_ostreamIcT_ES5_PKc@plt>
  412df0:	f94013e1 	ldr	x1, [sp,#32]
  412df4:	97ffd7e3 	bl	408d80 <_ZNSolsEPKv@plt>
  412df8:	aa0003e2 	mov	x2, x0
  412dfc:	f0000020 	adrp	x0, 419000 <_IO_stdin_used+0x8>
  412e00:	91014001 	add	x1, x0, #0x50
  412e04:	aa0203e0 	mov	x0, x2
  412e08:	97ffd83a 	bl	408ef0 <_ZStlsISt11char_traitsIcEERSt13basic_ostreamIcT_ES5_PKc@plt>
  412e0c:	aa0003e2 	mov	x2, x0
  412e10:	f9400fe0 	ldr	x0, [sp,#24]
  412e14:	f9400000 	ldr	x0, [x0]
  412e18:	aa0003e1 	mov	x1, x0
  412e1c:	aa0203e0 	mov	x0, x2
  412e20:	97ffd988 	bl	409440 <_ZNSolsEl@plt>
  412e24:	aa0003e2 	mov	x2, x0
  412e28:	d0ffffa0 	adrp	x0, 408000 <_init-0x970>
  412e2c:	912ec001 	add	x1, x0, #0xbb0
  412e30:	aa0203e0 	mov	x0, x2
  412e34:	97ffd843 	bl	408f40 <_ZNSolsEPFRSoS_E@plt>
  412e38:	f9400fe1 	ldr	x1, [sp,#24]
  412e3c:	f9400023 	ldr	x3, [x1]
  412e40:	f9400be1 	ldr	x1, [sp,#16]
  412e44:	b9400025 	ldr	w5, [x1]
  412e48:	f94017e2 	ldr	x2, [sp,#40]
  412e4c:	f94013e6 	ldr	x6, [sp,#32]
  412e50:	d2800001 	mov	x1, #0x0                   	// #0
  412e54:	aa0503e4 	mov	x4, x5
  412e58:	adc80440 	ldp	q0, q1, [x2,#256]!
  412e5c:	adc80440 	ldp	q0, q1, [x2,#256]!
  412e60:	adc80440 	ldp	q0, q1, [x2,#256]!
  412e64:	ad8804c0 	stp	q0, q1, [x6,#256]!
  412e68:	adc80440 	ldp	q0, q1, [x2,#256]!
  412e6c:	adc80440 	ldp	q0, q1, [x2,#256]!
  412e70:	aa1e03eb 	mov	x11, x30
  412e74:	97ffda04 	bl	409684 <nop_>
  412e78:	aa0b03fe 	mov	x30, x11
  412e7c:	adc80440 	ldp	q0, q1, [x2,#256]!
  412e80:	adc80440 	ldp	q0, q1, [x2,#256]!
  412e84:	adc80440 	ldp	q0, q1, [x2,#256]!
  412e88:	adc80440 	ldp	q0, q1, [x2,#256]!
  412e8c:	adc80440 	ldp	q0, q1, [x2,#256]!
  412e90:	adc80440 	ldp	q0, q1, [x2,#256]!
  412e94:	aa1e03eb 	mov	x11, x30
  412e98:	97ffd9fb 	bl	409684 <nop_>
  412e9c:	aa0b03fe 	mov	x30, x11
  412ea0:	adc80440 	ldp	q0, q1, [x2,#256]!
  412ea4:	adc80440 	ldp	q0, q1, [x2,#256]!
  412ea8:	adc80440 	ldp	q0, q1, [x2,#256]!
  412eac:	ad8804c0 	stp	q0, q1, [x6,#256]!
  412eb0:	adc80440 	ldp	q0, q1, [x2,#256]!
  412eb4:	adc80440 	ldp	q0, q1, [x2,#256]!
  412eb8:	aa1e03eb 	mov	x11, x30
  412ebc:	97ffd9f2 	bl	409684 <nop_>
  412ec0:	aa0b03fe 	mov	x30, x11
  412ec4:	adc80440 	ldp	q0, q1, [x2,#256]!
  412ec8:	adc80440 	ldp	q0, q1, [x2,#256]!
  412ecc:	adc80440 	ldp	q0, q1, [x2,#256]!
  412ed0:	ad8804c0 	stp	q0, q1, [x6,#256]!
  412ed4:	adc80440 	ldp	q0, q1, [x2,#256]!
  412ed8:	adc80440 	ldp	q0, q1, [x2,#256]!
  412edc:	aa1e03eb 	mov	x11, x30
  412ee0:	97ffd9e9 	bl	409684 <nop_>
  412ee4:	aa0b03fe 	mov	x30, x11
  412ee8:	ad8804c0 	stp	q0, q1, [x6,#256]!
  412eec:	adc80440 	ldp	q0, q1, [x2,#256]!
  412ef0:	adc80440 	ldp	q0, q1, [x2,#256]!
  412ef4:	adc80440 	ldp	q0, q1, [x2,#256]!
  412ef8:	adc80440 	ldp	q0, q1, [x2,#256]!
  412efc:	adc80440 	ldp	q0, q1, [x2,#256]!
  412f00:	aa1e03eb 	mov	x11, x30
  412f04:	97ffd9e0 	bl	409684 <nop_>
  412f08:	aa0b03fe 	mov	x30, x11
  412f0c:	adc80440 	ldp	q0, q1, [x2,#256]!
  412f10:	adc80440 	ldp	q0, q1, [x2,#256]!
  412f14:	adc80440 	ldp	q0, q1, [x2,#256]!
  412f18:	adc80440 	ldp	q0, q1, [x2,#256]!
  412f1c:	adc80440 	ldp	q0, q1, [x2,#256]!
  412f20:	adc80440 	ldp	q0, q1, [x2,#256]!
  412f24:	aa1e03eb 	mov	x11, x30
  412f28:	97ffd9d7 	bl	409684 <nop_>
  412f2c:	aa0b03fe 	mov	x30, x11
  412f30:	adc80440 	ldp	q0, q1, [x2,#256]!
  412f34:	adc80440 	ldp	q0, q1, [x2,#256]!
  412f38:	adc80440 	ldp	q0, q1, [x2,#256]!
  412f3c:	adc80440 	ldp	q0, q1, [x2,#256]!
  412f40:	adc80440 	ldp	q0, q1, [x2,#256]!
  412f44:	adc80440 	ldp	q0, q1, [x2,#256]!
  412f48:	aa1e03eb 	mov	x11, x30
  412f4c:	97ffd9ce 	bl	409684 <nop_>
  412f50:	aa0b03fe 	mov	x30, x11
  412f54:	adc80440 	ldp	q0, q1, [x2,#256]!
  412f58:	adc80440 	ldp	q0, q1, [x2,#256]!
  412f5c:	adc80440 	ldp	q0, q1, [x2,#256]!
  412f60:	adc80440 	ldp	q0, q1, [x2,#256]!
  412f64:	adc80440 	ldp	q0, q1, [x2,#256]!
  412f68:	adc80440 	ldp	q0, q1, [x2,#256]!
  412f6c:	aa1e03eb 	mov	x11, x30
  412f70:	97ffd9c5 	bl	409684 <nop_>
  412f74:	aa0b03fe 	mov	x30, x11
  412f78:	adc80440 	ldp	q0, q1, [x2,#256]!
  412f7c:	ad8804c0 	stp	q0, q1, [x6,#256]!
  412f80:	adc80440 	ldp	q0, q1, [x2,#256]!
  412f84:	adc80440 	ldp	q0, q1, [x2,#256]!
  412f88:	adc80440 	ldp	q0, q1, [x2,#256]!
  412f8c:	adc80440 	ldp	q0, q1, [x2,#256]!
  412f90:	aa1e03eb 	mov	x11, x30
  412f94:	97ffd9bc 	bl	409684 <nop_>
  412f98:	aa0b03fe 	mov	x30, x11
  412f9c:	adc80440 	ldp	q0, q1, [x2,#256]!
  412fa0:	adc80440 	ldp	q0, q1, [x2,#256]!
  412fa4:	adc80440 	ldp	q0, q1, [x2,#256]!
  412fa8:	adc80440 	ldp	q0, q1, [x2,#256]!
  412fac:	adc80440 	ldp	q0, q1, [x2,#256]!
  412fb0:	adc80440 	ldp	q0, q1, [x2,#256]!
  412fb4:	aa1e03eb 	mov	x11, x30
  412fb8:	97ffd9b3 	bl	409684 <nop_>
  412fbc:	aa0b03fe 	mov	x30, x11
  412fc0:	adc80440 	ldp	q0, q1, [x2,#256]!
  412fc4:	adc80440 	ldp	q0, q1, [x2,#256]!
  412fc8:	adc80440 	ldp	q0, q1, [x2,#256]!
  412fcc:	adc80440 	ldp	q0, q1, [x2,#256]!
  412fd0:	adc80440 	ldp	q0, q1, [x2,#256]!
  412fd4:	adc80440 	ldp	q0, q1, [x2,#256]!
  412fd8:	aa1e03eb 	mov	x11, x30
  412fdc:	97ffd9aa 	bl	409684 <nop_>
  412fe0:	aa0b03fe 	mov	x30, x11
  412fe4:	adc80440 	ldp	q0, q1, [x2,#256]!
  412fe8:	adc80440 	ldp	q0, q1, [x2,#256]!
  412fec:	adc80440 	ldp	q0, q1, [x2,#256]!
  412ff0:	adc80440 	ldp	q0, q1, [x2,#256]!
  412ff4:	adc80440 	ldp	q0, q1, [x2,#256]!
  412ff8:	adc80440 	ldp	q0, q1, [x2,#256]!
  412ffc:	aa1e03eb 	mov	x11, x30
  413000:	97ffd9a1 	bl	409684 <nop_>
  413004:	aa0b03fe 	mov	x30, x11
  413008:	adc80440 	ldp	q0, q1, [x2,#256]!
  41300c:	adc80440 	ldp	q0, q1, [x2,#256]!
  413010:	ad8804c0 	stp	q0, q1, [x6,#256]!
  413014:	adc80440 	ldp	q0, q1, [x2,#256]!
  413018:	adc80440 	ldp	q0, q1, [x2,#256]!
  41301c:	adc80440 	ldp	q0, q1, [x2,#256]!
  413020:	aa1e03eb 	mov	x11, x30
  413024:	97ffd998 	bl	409684 <nop_>
  413028:	aa0b03fe 	mov	x30, x11
  41302c:	adc80440 	ldp	q0, q1, [x2,#256]!
  413030:	adc80440 	ldp	q0, q1, [x2,#256]!
  413034:	adc80440 	ldp	q0, q1, [x2,#256]!
  413038:	adc80440 	ldp	q0, q1, [x2,#256]!
  41303c:	adc80440 	ldp	q0, q1, [x2,#256]!
  413040:	adc80440 	ldp	q0, q1, [x2,#256]!
  413044:	aa1e03eb 	mov	x11, x30
  413048:	97ffd98f 	bl	409684 <nop_>
  41304c:	aa0b03fe 	mov	x30, x11
  413050:	adc80440 	ldp	q0, q1, [x2,#256]!
  413054:	adc80440 	ldp	q0, q1, [x2,#256]!
  413058:	adc80440 	ldp	q0, q1, [x2,#256]!
  41305c:	adc80440 	ldp	q0, q1, [x2,#256]!
  413060:	adc80440 	ldp	q0, q1, [x2,#256]!
  413064:	adc80440 	ldp	q0, q1, [x2,#256]!
  413068:	aa1e03eb 	mov	x11, x30
  41306c:	97ffd986 	bl	409684 <nop_>
  413070:	aa0b03fe 	mov	x30, x11
  413074:	adc80440 	ldp	q0, q1, [x2,#256]!
  413078:	adc80440 	ldp	q0, q1, [x2,#256]!
  41307c:	adc80440 	ldp	q0, q1, [x2,#256]!
  413080:	adc80440 	ldp	q0, q1, [x2,#256]!
  413084:	adc80440 	ldp	q0, q1, [x2,#256]!
  413088:	ad8804c0 	stp	q0, q1, [x6,#256]!
  41308c:	aa1e03eb 	mov	x11, x30
  413090:	97ffd97d 	bl	409684 <nop_>
  413094:	aa0b03fe 	mov	x30, x11
  413098:	adc80440 	ldp	q0, q1, [x2,#256]!
  41309c:	adc80440 	ldp	q0, q1, [x2,#256]!
  4130a0:	adc80440 	ldp	q0, q1, [x2,#256]!
  4130a4:	ad8804c0 	stp	q0, q1, [x6,#256]!
  4130a8:	aa1e03eb 	mov	x11, x30
  4130ac:	97ffd976 	bl	409684 <nop_>
  4130b0:	aa0b03fe 	mov	x30, x11
  4130b4:	91320021 	add	x1, x1, #0xc80
  4130b8:	eb03003f 	cmp	x1, x3
  4130bc:	5400576d 	b.le	413ba8 <_Z15STREAM_copy_100PdS_PlPKi+0xe0>
  4130c0:	d503201f 	nop
  4130c4:	a8c37bfd 	ldp	x29, x30, [sp],#48
  4130c8:	d65f03c0 	ret

00000000004130cc <_Z14STREAM_copy_94PdS_PlPKi>:
  4130cc:	a9bd7bfd 	stp	x29, x30, [sp,#-48]!
  4130d0:	910003fd 	mov	x29, sp
  4130d4:	f90017e0 	str	x0, [sp,#40]
  4130d8:	f90013e1 	str	x1, [sp,#32]
  4130dc:	f9000fe2 	str	x2, [sp,#24]
  4130e0:	f9000be3 	str	x3, [sp,#16]
  4130e4:	d2800000 	mov	x0, #0x0                   	// #0
  4130e8:	d0000020 	adrp	x0, 419000 <_IO_stdin_used+0x8>
  4130ec:	91008001 	add	x1, x0, #0x20
  4130f0:	f00000c0 	adrp	x0, 42e000 <_Znam@GLIBCXX_3.4>
  4130f4:	91286000 	add	x0, x0, #0xa18
  4130f8:	97ffd77e 	bl	408ef0 <_ZStlsISt11char_traitsIcEERSt13basic_ostreamIcT_ES5_PKc@plt>
  4130fc:	aa0003e2 	mov	x2, x0
  413100:	f9400be0 	ldr	x0, [sp,#16]
  413104:	b9400000 	ldr	w0, [x0]
  413108:	2a0003e1 	mov	w1, w0
  41310c:	aa0203e0 	mov	x0, x2
  413110:	97ffd8ac 	bl	4093c0 <_ZNSolsEi@plt>
  413114:	aa0003e2 	mov	x2, x0
  413118:	d0000020 	adrp	x0, 419000 <_IO_stdin_used+0x8>
  41311c:	9100c001 	add	x1, x0, #0x30
  413120:	aa0203e0 	mov	x0, x2
  413124:	97ffd773 	bl	408ef0 <_ZStlsISt11char_traitsIcEERSt13basic_ostreamIcT_ES5_PKc@plt>
  413128:	f94017e1 	ldr	x1, [sp,#40]
  41312c:	97ffd715 	bl	408d80 <_ZNSolsEPKv@plt>
  413130:	aa0003e2 	mov	x2, x0
  413134:	d0000020 	adrp	x0, 419000 <_IO_stdin_used+0x8>
  413138:	91010001 	add	x1, x0, #0x40
  41313c:	aa0203e0 	mov	x0, x2
  413140:	97ffd76c 	bl	408ef0 <_ZStlsISt11char_traitsIcEERSt13basic_ostreamIcT_ES5_PKc@plt>
  413144:	f94013e1 	ldr	x1, [sp,#32]
  413148:	97ffd70e 	bl	408d80 <_ZNSolsEPKv@plt>
  41314c:	aa0003e2 	mov	x2, x0
  413150:	d0000020 	adrp	x0, 419000 <_IO_stdin_used+0x8>
  413154:	91014001 	add	x1, x0, #0x50
  413158:	aa0203e0 	mov	x0, x2
  41315c:	97ffd765 	bl	408ef0 <_ZStlsISt11char_traitsIcEERSt13basic_ostreamIcT_ES5_PKc@plt>
  413160:	aa0003e2 	mov	x2, x0
  413164:	f9400fe0 	ldr	x0, [sp,#24]
  413168:	f9400000 	ldr	x0, [x0]
  41316c:	aa0003e1 	mov	x1, x0
  413170:	aa0203e0 	mov	x0, x2
  413174:	97ffd8b3 	bl	409440 <_ZNSolsEl@plt>
  413178:	aa0003e2 	mov	x2, x0
  41317c:	b0ffffa0 	adrp	x0, 408000 <_init-0x970>
  413180:	912ec001 	add	x1, x0, #0xbb0
  413184:	aa0203e0 	mov	x0, x2
  413188:	97ffd76e 	bl	408f40 <_ZNSolsEPFRSoS_E@plt>
  41318c:	f9400fe1 	ldr	x1, [sp,#24]
  413190:	f9400023 	ldr	x3, [x1]
  413194:	f9400be1 	ldr	x1, [sp,#16]
  413198:	b9400025 	ldr	w5, [x1]
  41319c:	f94017e2 	ldr	x2, [sp,#40]
  4131a0:	f94013e6 	ldr	x6, [sp,#32]
  4131a4:	d2800001 	mov	x1, #0x0                   	// #0
  4131a8:	aa0503e4 	mov	x4, x5
  4131ac:	adc80440 	ldp	q0, q1, [x2,#256]!
  4131b0:	adc80440 	ldp	q0, q1, [x2,#256]!
  4131b4:	adc80440 	ldp	q0, q1, [x2,#256]!
  4131b8:	adc80440 	ldp	q0, q1, [x2,#256]!
  4131bc:	adc80440 	ldp	q0, q1, [x2,#256]!
  4131c0:	adc80440 	ldp	q0, q1, [x2,#256]!
  4131c4:	aa1e03eb 	mov	x11, x30
  4131c8:	97ffd92f 	bl	409684 <nop_>
  4131cc:	aa0b03fe 	mov	x30, x11
  4131d0:	adc80440 	ldp	q0, q1, [x2,#256]!
  4131d4:	adc80440 	ldp	q0, q1, [x2,#256]!
  4131d8:	adc80440 	ldp	q0, q1, [x2,#256]!
  4131dc:	adc80440 	ldp	q0, q1, [x2,#256]!
  4131e0:	adc80440 	ldp	q0, q1, [x2,#256]!
  4131e4:	adc80440 	ldp	q0, q1, [x2,#256]!
  4131e8:	aa1e03eb 	mov	x11, x30
  4131ec:	97ffd926 	bl	409684 <nop_>
  4131f0:	aa0b03fe 	mov	x30, x11
  4131f4:	adc80440 	ldp	q0, q1, [x2,#256]!
  4131f8:	adc80440 	ldp	q0, q1, [x2,#256]!
  4131fc:	adc80440 	ldp	q0, q1, [x2,#256]!
  413200:	ad8804c0 	stp	q0, q1, [x6,#256]!
  413204:	adc80440 	ldp	q0, q1, [x2,#256]!
  413208:	adc80440 	ldp	q0, q1, [x2,#256]!
  41320c:	aa1e03eb 	mov	x11, x30
  413210:	97ffd91d 	bl	409684 <nop_>
  413214:	aa0b03fe 	mov	x30, x11
  413218:	adc80440 	ldp	q0, q1, [x2,#256]!
  41321c:	adc80440 	ldp	q0, q1, [x2,#256]!
  413220:	adc80440 	ldp	q0, q1, [x2,#256]!
  413224:	adc80440 	ldp	q0, q1, [x2,#256]!
  413228:	adc80440 	ldp	q0, q1, [x2,#256]!
  41322c:	adc80440 	ldp	q0, q1, [x2,#256]!
  413230:	aa1e03eb 	mov	x11, x30
  413234:	97ffd914 	bl	409684 <nop_>
  413238:	aa0b03fe 	mov	x30, x11
  41323c:	ad8804c0 	stp	q0, q1, [x6,#256]!
  413240:	adc80440 	ldp	q0, q1, [x2,#256]!
  413244:	adc80440 	ldp	q0, q1, [x2,#256]!
  413248:	adc80440 	ldp	q0, q1, [x2,#256]!
  41324c:	adc80440 	ldp	q0, q1, [x2,#256]!
  413250:	adc80440 	ldp	q0, q1, [x2,#256]!
  413254:	aa1e03eb 	mov	x11, x30
  413258:	97ffd90b 	bl	409684 <nop_>
  41325c:	aa0b03fe 	mov	x30, x11
  413260:	adc80440 	ldp	q0, q1, [x2,#256]!
  413264:	adc80440 	ldp	q0, q1, [x2,#256]!
  413268:	adc80440 	ldp	q0, q1, [x2,#256]!
  41326c:	adc80440 	ldp	q0, q1, [x2,#256]!
  413270:	adc80440 	ldp	q0, q1, [x2,#256]!
  413274:	adc80440 	ldp	q0, q1, [x2,#256]!
  413278:	aa1e03eb 	mov	x11, x30
  41327c:	97ffd902 	bl	409684 <nop_>
  413280:	aa0b03fe 	mov	x30, x11
  413284:	adc80440 	ldp	q0, q1, [x2,#256]!
  413288:	adc80440 	ldp	q0, q1, [x2,#256]!
  41328c:	adc80440 	ldp	q0, q1, [x2,#256]!
  413290:	adc80440 	ldp	q0, q1, [x2,#256]!
  413294:	adc80440 	ldp	q0, q1, [x2,#256]!
  413298:	adc80440 	ldp	q0, q1, [x2,#256]!
  41329c:	aa1e03eb 	mov	x11, x30
  4132a0:	97ffd8f9 	bl	409684 <nop_>
  4132a4:	aa0b03fe 	mov	x30, x11
  4132a8:	adc80440 	ldp	q0, q1, [x2,#256]!
  4132ac:	adc80440 	ldp	q0, q1, [x2,#256]!
  4132b0:	adc80440 	ldp	q0, q1, [x2,#256]!
  4132b4:	adc80440 	ldp	q0, q1, [x2,#256]!
  4132b8:	adc80440 	ldp	q0, q1, [x2,#256]!
  4132bc:	adc80440 	ldp	q0, q1, [x2,#256]!
  4132c0:	aa1e03eb 	mov	x11, x30
  4132c4:	97ffd8f0 	bl	409684 <nop_>
  4132c8:	aa0b03fe 	mov	x30, x11
  4132cc:	adc80440 	ldp	q0, q1, [x2,#256]!
  4132d0:	ad8804c0 	stp	q0, q1, [x6,#256]!
  4132d4:	adc80440 	ldp	q0, q1, [x2,#256]!
  4132d8:	adc80440 	ldp	q0, q1, [x2,#256]!
  4132dc:	adc80440 	ldp	q0, q1, [x2,#256]!
  4132e0:	adc80440 	ldp	q0, q1, [x2,#256]!
  4132e4:	aa1e03eb 	mov	x11, x30
  4132e8:	97ffd8e7 	bl	409684 <nop_>
  4132ec:	aa0b03fe 	mov	x30, x11
  4132f0:	adc80440 	ldp	q0, q1, [x2,#256]!
  4132f4:	adc80440 	ldp	q0, q1, [x2,#256]!
  4132f8:	adc80440 	ldp	q0, q1, [x2,#256]!
  4132fc:	adc80440 	ldp	q0, q1, [x2,#256]!
  413300:	adc80440 	ldp	q0, q1, [x2,#256]!
  413304:	adc80440 	ldp	q0, q1, [x2,#256]!
  413308:	aa1e03eb 	mov	x11, x30
  41330c:	97ffd8de 	bl	409684 <nop_>
  413310:	aa0b03fe 	mov	x30, x11
  413314:	adc80440 	ldp	q0, q1, [x2,#256]!
  413318:	adc80440 	ldp	q0, q1, [x2,#256]!
  41331c:	adc80440 	ldp	q0, q1, [x2,#256]!
  413320:	adc80440 	ldp	q0, q1, [x2,#256]!
  413324:	adc80440 	ldp	q0, q1, [x2,#256]!
  413328:	adc80440 	ldp	q0, q1, [x2,#256]!
  41332c:	aa1e03eb 	mov	x11, x30
  413330:	97ffd8d5 	bl	409684 <nop_>
  413334:	aa0b03fe 	mov	x30, x11
  413338:	adc80440 	ldp	q0, q1, [x2,#256]!
  41333c:	adc80440 	ldp	q0, q1, [x2,#256]!
  413340:	adc80440 	ldp	q0, q1, [x2,#256]!
  413344:	adc80440 	ldp	q0, q1, [x2,#256]!
  413348:	adc80440 	ldp	q0, q1, [x2,#256]!
  41334c:	adc80440 	ldp	q0, q1, [x2,#256]!
  413350:	aa1e03eb 	mov	x11, x30
  413354:	97ffd8cc 	bl	409684 <nop_>
  413358:	aa0b03fe 	mov	x30, x11
  41335c:	adc80440 	ldp	q0, q1, [x2,#256]!
  413360:	adc80440 	ldp	q0, q1, [x2,#256]!
  413364:	ad8804c0 	stp	q0, q1, [x6,#256]!
  413368:	adc80440 	ldp	q0, q1, [x2,#256]!
  41336c:	adc80440 	ldp	q0, q1, [x2,#256]!
  413370:	adc80440 	ldp	q0, q1, [x2,#256]!
  413374:	aa1e03eb 	mov	x11, x30
  413378:	97ffd8c3 	bl	409684 <nop_>
  41337c:	aa0b03fe 	mov	x30, x11
  413380:	adc80440 	ldp	q0, q1, [x2,#256]!
  413384:	adc80440 	ldp	q0, q1, [x2,#256]!
  413388:	adc80440 	ldp	q0, q1, [x2,#256]!
  41338c:	adc80440 	ldp	q0, q1, [x2,#256]!
  413390:	adc80440 	ldp	q0, q1, [x2,#256]!
  413394:	adc80440 	ldp	q0, q1, [x2,#256]!
  413398:	aa1e03eb 	mov	x11, x30
  41339c:	97ffd8ba 	bl	409684 <nop_>
  4133a0:	aa0b03fe 	mov	x30, x11
  4133a4:	adc80440 	ldp	q0, q1, [x2,#256]!
  4133a8:	adc80440 	ldp	q0, q1, [x2,#256]!
  4133ac:	adc80440 	ldp	q0, q1, [x2,#256]!
  4133b0:	adc80440 	ldp	q0, q1, [x2,#256]!
  4133b4:	adc80440 	ldp	q0, q1, [x2,#256]!
  4133b8:	adc80440 	ldp	q0, q1, [x2,#256]!
  4133bc:	aa1e03eb 	mov	x11, x30
  4133c0:	97ffd8b1 	bl	409684 <nop_>
  4133c4:	aa0b03fe 	mov	x30, x11
  4133c8:	adc80440 	ldp	q0, q1, [x2,#256]!
  4133cc:	adc80440 	ldp	q0, q1, [x2,#256]!
  4133d0:	adc80440 	ldp	q0, q1, [x2,#256]!
  4133d4:	adc80440 	ldp	q0, q1, [x2,#256]!
  4133d8:	adc80440 	ldp	q0, q1, [x2,#256]!
  4133dc:	ad8804c0 	stp	q0, q1, [x6,#256]!
  4133e0:	aa1e03eb 	mov	x11, x30
  4133e4:	97ffd8a8 	bl	409684 <nop_>
  4133e8:	aa0b03fe 	mov	x30, x11
  4133ec:	adc80440 	ldp	q0, q1, [x2,#256]!
  4133f0:	adc80440 	ldp	q0, q1, [x2,#256]!
  4133f4:	adc80440 	ldp	q0, q1, [x2,#256]!
  4133f8:	ad8804c0 	stp	q0, q1, [x6,#256]!
  4133fc:	aa1e03eb 	mov	x11, x30
  413400:	97ffd8a1 	bl	409684 <nop_>
  413404:	aa0b03fe 	mov	x30, x11
  413408:	91320021 	add	x1, x1, #0xc80
  41340c:	eb03003f 	cmp	x1, x3
  413410:	54003ccd 	b.le	413ba8 <_Z15STREAM_copy_100PdS_PlPKi+0xe0>
  413414:	d503201f 	nop
  413418:	a8c37bfd 	ldp	x29, x30, [sp],#48
  41341c:	d65f03c0 	ret

0000000000413420 <_Z14STREAM_copy_96PdS_PlPKi>:
  413420:	a9bd7bfd 	stp	x29, x30, [sp,#-48]!
  413424:	910003fd 	mov	x29, sp
  413428:	f90017e0 	str	x0, [sp,#40]
  41342c:	f90013e1 	str	x1, [sp,#32]
  413430:	f9000fe2 	str	x2, [sp,#24]
  413434:	f9000be3 	str	x3, [sp,#16]
  413438:	d2800000 	mov	x0, #0x0                   	// #0
  41343c:	d0000020 	adrp	x0, 419000 <_IO_stdin_used+0x8>
  413440:	91008001 	add	x1, x0, #0x20
  413444:	f00000c0 	adrp	x0, 42e000 <_Znam@GLIBCXX_3.4>
  413448:	91286000 	add	x0, x0, #0xa18
  41344c:	97ffd6a9 	bl	408ef0 <_ZStlsISt11char_traitsIcEERSt13basic_ostreamIcT_ES5_PKc@plt>
  413450:	aa0003e2 	mov	x2, x0
  413454:	f9400be0 	ldr	x0, [sp,#16]
  413458:	b9400000 	ldr	w0, [x0]
  41345c:	2a0003e1 	mov	w1, w0
  413460:	aa0203e0 	mov	x0, x2
  413464:	97ffd7d7 	bl	4093c0 <_ZNSolsEi@plt>
  413468:	aa0003e2 	mov	x2, x0
  41346c:	d0000020 	adrp	x0, 419000 <_IO_stdin_used+0x8>
  413470:	9100c001 	add	x1, x0, #0x30
  413474:	aa0203e0 	mov	x0, x2
  413478:	97ffd69e 	bl	408ef0 <_ZStlsISt11char_traitsIcEERSt13basic_ostreamIcT_ES5_PKc@plt>
  41347c:	f94017e1 	ldr	x1, [sp,#40]
  413480:	97ffd640 	bl	408d80 <_ZNSolsEPKv@plt>
  413484:	aa0003e2 	mov	x2, x0
  413488:	d0000020 	adrp	x0, 419000 <_IO_stdin_used+0x8>
  41348c:	91010001 	add	x1, x0, #0x40
  413490:	aa0203e0 	mov	x0, x2
  413494:	97ffd697 	bl	408ef0 <_ZStlsISt11char_traitsIcEERSt13basic_ostreamIcT_ES5_PKc@plt>
  413498:	f94013e1 	ldr	x1, [sp,#32]
  41349c:	97ffd639 	bl	408d80 <_ZNSolsEPKv@plt>
  4134a0:	aa0003e2 	mov	x2, x0
  4134a4:	d0000020 	adrp	x0, 419000 <_IO_stdin_used+0x8>
  4134a8:	91014001 	add	x1, x0, #0x50
  4134ac:	aa0203e0 	mov	x0, x2
  4134b0:	97ffd690 	bl	408ef0 <_ZStlsISt11char_traitsIcEERSt13basic_ostreamIcT_ES5_PKc@plt>
  4134b4:	aa0003e2 	mov	x2, x0
  4134b8:	f9400fe0 	ldr	x0, [sp,#24]
  4134bc:	f9400000 	ldr	x0, [x0]
  4134c0:	aa0003e1 	mov	x1, x0
  4134c4:	aa0203e0 	mov	x0, x2
  4134c8:	97ffd7de 	bl	409440 <_ZNSolsEl@plt>
  4134cc:	aa0003e2 	mov	x2, x0
  4134d0:	b0ffffa0 	adrp	x0, 408000 <_init-0x970>
  4134d4:	912ec001 	add	x1, x0, #0xbb0
  4134d8:	aa0203e0 	mov	x0, x2
  4134dc:	97ffd699 	bl	408f40 <_ZNSolsEPFRSoS_E@plt>
  4134e0:	f9400fe1 	ldr	x1, [sp,#24]
  4134e4:	f9400023 	ldr	x3, [x1]
  4134e8:	f9400be1 	ldr	x1, [sp,#16]
  4134ec:	b9400025 	ldr	w5, [x1]
  4134f0:	f94017e2 	ldr	x2, [sp,#40]
  4134f4:	f94013e6 	ldr	x6, [sp,#32]
  4134f8:	d2800001 	mov	x1, #0x0                   	// #0
  4134fc:	aa0503e4 	mov	x4, x5
  413500:	adc80440 	ldp	q0, q1, [x2,#256]!
  413504:	adc80440 	ldp	q0, q1, [x2,#256]!
  413508:	adc80440 	ldp	q0, q1, [x2,#256]!
  41350c:	adc80440 	ldp	q0, q1, [x2,#256]!
  413510:	adc80440 	ldp	q0, q1, [x2,#256]!
  413514:	adc80440 	ldp	q0, q1, [x2,#256]!
  413518:	aa1e03eb 	mov	x11, x30
  41351c:	97ffd85a 	bl	409684 <nop_>
  413520:	aa0b03fe 	mov	x30, x11
  413524:	adc80440 	ldp	q0, q1, [x2,#256]!
  413528:	adc80440 	ldp	q0, q1, [x2,#256]!
  41352c:	adc80440 	ldp	q0, q1, [x2,#256]!
  413530:	adc80440 	ldp	q0, q1, [x2,#256]!
  413534:	adc80440 	ldp	q0, q1, [x2,#256]!
  413538:	adc80440 	ldp	q0, q1, [x2,#256]!
  41353c:	aa1e03eb 	mov	x11, x30
  413540:	97ffd851 	bl	409684 <nop_>
  413544:	aa0b03fe 	mov	x30, x11
  413548:	adc80440 	ldp	q0, q1, [x2,#256]!
  41354c:	adc80440 	ldp	q0, q1, [x2,#256]!
  413550:	adc80440 	ldp	q0, q1, [x2,#256]!
  413554:	adc80440 	ldp	q0, q1, [x2,#256]!
  413558:	adc80440 	ldp	q0, q1, [x2,#256]!
  41355c:	adc80440 	ldp	q0, q1, [x2,#256]!
  413560:	aa1e03eb 	mov	x11, x30
  413564:	97ffd848 	bl	409684 <nop_>
  413568:	aa0b03fe 	mov	x30, x11
  41356c:	adc80440 	ldp	q0, q1, [x2,#256]!
  413570:	adc80440 	ldp	q0, q1, [x2,#256]!
  413574:	adc80440 	ldp	q0, q1, [x2,#256]!
  413578:	adc80440 	ldp	q0, q1, [x2,#256]!
  41357c:	adc80440 	ldp	q0, q1, [x2,#256]!
  413580:	adc80440 	ldp	q0, q1, [x2,#256]!
  413584:	aa1e03eb 	mov	x11, x30
  413588:	97ffd83f 	bl	409684 <nop_>
  41358c:	aa0b03fe 	mov	x30, x11
  413590:	ad8804c0 	stp	q0, q1, [x6,#256]!
  413594:	adc80440 	ldp	q0, q1, [x2,#256]!
  413598:	adc80440 	ldp	q0, q1, [x2,#256]!
  41359c:	adc80440 	ldp	q0, q1, [x2,#256]!
  4135a0:	adc80440 	ldp	q0, q1, [x2,#256]!
  4135a4:	adc80440 	ldp	q0, q1, [x2,#256]!
  4135a8:	aa1e03eb 	mov	x11, x30
  4135ac:	97ffd836 	bl	409684 <nop_>
  4135b0:	aa0b03fe 	mov	x30, x11
  4135b4:	adc80440 	ldp	q0, q1, [x2,#256]!
  4135b8:	adc80440 	ldp	q0, q1, [x2,#256]!
  4135bc:	adc80440 	ldp	q0, q1, [x2,#256]!
  4135c0:	adc80440 	ldp	q0, q1, [x2,#256]!
  4135c4:	adc80440 	ldp	q0, q1, [x2,#256]!
  4135c8:	adc80440 	ldp	q0, q1, [x2,#256]!
  4135cc:	aa1e03eb 	mov	x11, x30
  4135d0:	97ffd82d 	bl	409684 <nop_>
  4135d4:	aa0b03fe 	mov	x30, x11
  4135d8:	adc80440 	ldp	q0, q1, [x2,#256]!
  4135dc:	adc80440 	ldp	q0, q1, [x2,#256]!
  4135e0:	adc80440 	ldp	q0, q1, [x2,#256]!
  4135e4:	adc80440 	ldp	q0, q1, [x2,#256]!
  4135e8:	adc80440 	ldp	q0, q1, [x2,#256]!
  4135ec:	adc80440 	ldp	q0, q1, [x2,#256]!
  4135f0:	aa1e03eb 	mov	x11, x30
  4135f4:	97ffd824 	bl	409684 <nop_>
  4135f8:	aa0b03fe 	mov	x30, x11
  4135fc:	adc80440 	ldp	q0, q1, [x2,#256]!
  413600:	adc80440 	ldp	q0, q1, [x2,#256]!
  413604:	adc80440 	ldp	q0, q1, [x2,#256]!
  413608:	adc80440 	ldp	q0, q1, [x2,#256]!
  41360c:	adc80440 	ldp	q0, q1, [x2,#256]!
  413610:	adc80440 	ldp	q0, q1, [x2,#256]!
  413614:	aa1e03eb 	mov	x11, x30
  413618:	97ffd81b 	bl	409684 <nop_>
  41361c:	aa0b03fe 	mov	x30, x11
  413620:	adc80440 	ldp	q0, q1, [x2,#256]!
  413624:	ad8804c0 	stp	q0, q1, [x6,#256]!
  413628:	adc80440 	ldp	q0, q1, [x2,#256]!
  41362c:	adc80440 	ldp	q0, q1, [x2,#256]!
  413630:	adc80440 	ldp	q0, q1, [x2,#256]!
  413634:	adc80440 	ldp	q0, q1, [x2,#256]!
  413638:	aa1e03eb 	mov	x11, x30
  41363c:	97ffd812 	bl	409684 <nop_>
  413640:	aa0b03fe 	mov	x30, x11
  413644:	adc80440 	ldp	q0, q1, [x2,#256]!
  413648:	adc80440 	ldp	q0, q1, [x2,#256]!
  41364c:	adc80440 	ldp	q0, q1, [x2,#256]!
  413650:	adc80440 	ldp	q0, q1, [x2,#256]!
  413654:	adc80440 	ldp	q0, q1, [x2,#256]!
  413658:	adc80440 	ldp	q0, q1, [x2,#256]!
  41365c:	aa1e03eb 	mov	x11, x30
  413660:	97ffd809 	bl	409684 <nop_>
  413664:	aa0b03fe 	mov	x30, x11
  413668:	adc80440 	ldp	q0, q1, [x2,#256]!
  41366c:	adc80440 	ldp	q0, q1, [x2,#256]!
  413670:	adc80440 	ldp	q0, q1, [x2,#256]!
  413674:	adc80440 	ldp	q0, q1, [x2,#256]!
  413678:	adc80440 	ldp	q0, q1, [x2,#256]!
  41367c:	adc80440 	ldp	q0, q1, [x2,#256]!
  413680:	aa1e03eb 	mov	x11, x30
  413684:	97ffd800 	bl	409684 <nop_>
  413688:	aa0b03fe 	mov	x30, x11
  41368c:	adc80440 	ldp	q0, q1, [x2,#256]!
  413690:	adc80440 	ldp	q0, q1, [x2,#256]!
  413694:	adc80440 	ldp	q0, q1, [x2,#256]!
  413698:	adc80440 	ldp	q0, q1, [x2,#256]!
  41369c:	adc80440 	ldp	q0, q1, [x2,#256]!
  4136a0:	adc80440 	ldp	q0, q1, [x2,#256]!
  4136a4:	aa1e03eb 	mov	x11, x30
  4136a8:	97ffd7f7 	bl	409684 <nop_>
  4136ac:	aa0b03fe 	mov	x30, x11
  4136b0:	adc80440 	ldp	q0, q1, [x2,#256]!
  4136b4:	adc80440 	ldp	q0, q1, [x2,#256]!
  4136b8:	ad8804c0 	stp	q0, q1, [x6,#256]!
  4136bc:	adc80440 	ldp	q0, q1, [x2,#256]!
  4136c0:	adc80440 	ldp	q0, q1, [x2,#256]!
  4136c4:	adc80440 	ldp	q0, q1, [x2,#256]!
  4136c8:	aa1e03eb 	mov	x11, x30
  4136cc:	97ffd7ee 	bl	409684 <nop_>
  4136d0:	aa0b03fe 	mov	x30, x11
  4136d4:	adc80440 	ldp	q0, q1, [x2,#256]!
  4136d8:	adc80440 	ldp	q0, q1, [x2,#256]!
  4136dc:	adc80440 	ldp	q0, q1, [x2,#256]!
  4136e0:	adc80440 	ldp	q0, q1, [x2,#256]!
  4136e4:	adc80440 	ldp	q0, q1, [x2,#256]!
  4136e8:	adc80440 	ldp	q0, q1, [x2,#256]!
  4136ec:	aa1e03eb 	mov	x11, x30
  4136f0:	97ffd7e5 	bl	409684 <nop_>
  4136f4:	aa0b03fe 	mov	x30, x11
  4136f8:	adc80440 	ldp	q0, q1, [x2,#256]!
  4136fc:	adc80440 	ldp	q0, q1, [x2,#256]!
  413700:	adc80440 	ldp	q0, q1, [x2,#256]!
  413704:	adc80440 	ldp	q0, q1, [x2,#256]!
  413708:	adc80440 	ldp	q0, q1, [x2,#256]!
  41370c:	adc80440 	ldp	q0, q1, [x2,#256]!
  413710:	aa1e03eb 	mov	x11, x30
  413714:	97ffd7dc 	bl	409684 <nop_>
  413718:	aa0b03fe 	mov	x30, x11
  41371c:	adc80440 	ldp	q0, q1, [x2,#256]!
  413720:	adc80440 	ldp	q0, q1, [x2,#256]!
  413724:	adc80440 	ldp	q0, q1, [x2,#256]!
  413728:	adc80440 	ldp	q0, q1, [x2,#256]!
  41372c:	adc80440 	ldp	q0, q1, [x2,#256]!
  413730:	adc80440 	ldp	q0, q1, [x2,#256]!
  413734:	aa1e03eb 	mov	x11, x30
  413738:	97ffd7d3 	bl	409684 <nop_>
  41373c:	aa0b03fe 	mov	x30, x11
  413740:	adc80440 	ldp	q0, q1, [x2,#256]!
  413744:	adc80440 	ldp	q0, q1, [x2,#256]!
  413748:	adc80440 	ldp	q0, q1, [x2,#256]!
  41374c:	ad8804c0 	stp	q0, q1, [x6,#256]!
  413750:	aa1e03eb 	mov	x11, x30
  413754:	97ffd7cc 	bl	409684 <nop_>
  413758:	aa0b03fe 	mov	x30, x11
  41375c:	91320021 	add	x1, x1, #0xc80
  413760:	eb03003f 	cmp	x1, x3
  413764:	5400222d 	b.le	413ba8 <_Z15STREAM_copy_100PdS_PlPKi+0xe0>
  413768:	d503201f 	nop
  41376c:	a8c37bfd 	ldp	x29, x30, [sp],#48
  413770:	d65f03c0 	ret

0000000000413774 <_Z14STREAM_copy_98PdS_PlPKi>:
  413774:	a9bd7bfd 	stp	x29, x30, [sp,#-48]!
  413778:	910003fd 	mov	x29, sp
  41377c:	f90017e0 	str	x0, [sp,#40]
  413780:	f90013e1 	str	x1, [sp,#32]
  413784:	f9000fe2 	str	x2, [sp,#24]
  413788:	f9000be3 	str	x3, [sp,#16]
  41378c:	d2800000 	mov	x0, #0x0                   	// #0
  413790:	d0000020 	adrp	x0, 419000 <_IO_stdin_used+0x8>
  413794:	91008001 	add	x1, x0, #0x20
  413798:	f00000c0 	adrp	x0, 42e000 <_Znam@GLIBCXX_3.4>
  41379c:	91286000 	add	x0, x0, #0xa18
  4137a0:	97ffd5d4 	bl	408ef0 <_ZStlsISt11char_traitsIcEERSt13basic_ostreamIcT_ES5_PKc@plt>
  4137a4:	aa0003e2 	mov	x2, x0
  4137a8:	f9400be0 	ldr	x0, [sp,#16]
  4137ac:	b9400000 	ldr	w0, [x0]
  4137b0:	2a0003e1 	mov	w1, w0
  4137b4:	aa0203e0 	mov	x0, x2
  4137b8:	97ffd702 	bl	4093c0 <_ZNSolsEi@plt>
  4137bc:	aa0003e2 	mov	x2, x0
  4137c0:	d0000020 	adrp	x0, 419000 <_IO_stdin_used+0x8>
  4137c4:	9100c001 	add	x1, x0, #0x30
  4137c8:	aa0203e0 	mov	x0, x2
  4137cc:	97ffd5c9 	bl	408ef0 <_ZStlsISt11char_traitsIcEERSt13basic_ostreamIcT_ES5_PKc@plt>
  4137d0:	f94017e1 	ldr	x1, [sp,#40]
  4137d4:	97ffd56b 	bl	408d80 <_ZNSolsEPKv@plt>
  4137d8:	aa0003e2 	mov	x2, x0
  4137dc:	d0000020 	adrp	x0, 419000 <_IO_stdin_used+0x8>
  4137e0:	91010001 	add	x1, x0, #0x40
  4137e4:	aa0203e0 	mov	x0, x2
  4137e8:	97ffd5c2 	bl	408ef0 <_ZStlsISt11char_traitsIcEERSt13basic_ostreamIcT_ES5_PKc@plt>
  4137ec:	f94013e1 	ldr	x1, [sp,#32]
  4137f0:	97ffd564 	bl	408d80 <_ZNSolsEPKv@plt>
  4137f4:	aa0003e2 	mov	x2, x0
  4137f8:	d0000020 	adrp	x0, 419000 <_IO_stdin_used+0x8>
  4137fc:	91014001 	add	x1, x0, #0x50
  413800:	aa0203e0 	mov	x0, x2
  413804:	97ffd5bb 	bl	408ef0 <_ZStlsISt11char_traitsIcEERSt13basic_ostreamIcT_ES5_PKc@plt>
  413808:	aa0003e2 	mov	x2, x0
  41380c:	f9400fe0 	ldr	x0, [sp,#24]
  413810:	f9400000 	ldr	x0, [x0]
  413814:	aa0003e1 	mov	x1, x0
  413818:	aa0203e0 	mov	x0, x2
  41381c:	97ffd709 	bl	409440 <_ZNSolsEl@plt>
  413820:	aa0003e2 	mov	x2, x0
  413824:	b0ffffa0 	adrp	x0, 408000 <_init-0x970>
  413828:	912ec001 	add	x1, x0, #0xbb0
  41382c:	aa0203e0 	mov	x0, x2
  413830:	97ffd5c4 	bl	408f40 <_ZNSolsEPFRSoS_E@plt>
  413834:	f9400fe1 	ldr	x1, [sp,#24]
  413838:	f9400023 	ldr	x3, [x1]
  41383c:	f9400be1 	ldr	x1, [sp,#16]
  413840:	b9400025 	ldr	w5, [x1]
  413844:	f94017e2 	ldr	x2, [sp,#40]
  413848:	f94013e6 	ldr	x6, [sp,#32]
  41384c:	d2800001 	mov	x1, #0x0                   	// #0
  413850:	aa0503e4 	mov	x4, x5
  413854:	adc80440 	ldp	q0, q1, [x2,#256]!
  413858:	adc80440 	ldp	q0, q1, [x2,#256]!
  41385c:	adc80440 	ldp	q0, q1, [x2,#256]!
  413860:	adc80440 	ldp	q0, q1, [x2,#256]!
  413864:	adc80440 	ldp	q0, q1, [x2,#256]!
  413868:	adc80440 	ldp	q0, q1, [x2,#256]!
  41386c:	aa1e03eb 	mov	x11, x30
  413870:	97ffd785 	bl	409684 <nop_>
  413874:	aa0b03fe 	mov	x30, x11
  413878:	adc80440 	ldp	q0, q1, [x2,#256]!
  41387c:	adc80440 	ldp	q0, q1, [x2,#256]!
  413880:	adc80440 	ldp	q0, q1, [x2,#256]!
  413884:	adc80440 	ldp	q0, q1, [x2,#256]!
  413888:	adc80440 	ldp	q0, q1, [x2,#256]!
  41388c:	adc80440 	ldp	q0, q1, [x2,#256]!
  413890:	aa1e03eb 	mov	x11, x30
  413894:	97ffd77c 	bl	409684 <nop_>
  413898:	aa0b03fe 	mov	x30, x11
  41389c:	adc80440 	ldp	q0, q1, [x2,#256]!
  4138a0:	adc80440 	ldp	q0, q1, [x2,#256]!
  4138a4:	adc80440 	ldp	q0, q1, [x2,#256]!
  4138a8:	adc80440 	ldp	q0, q1, [x2,#256]!
  4138ac:	adc80440 	ldp	q0, q1, [x2,#256]!
  4138b0:	adc80440 	ldp	q0, q1, [x2,#256]!
  4138b4:	aa1e03eb 	mov	x11, x30
  4138b8:	97ffd773 	bl	409684 <nop_>
  4138bc:	aa0b03fe 	mov	x30, x11
  4138c0:	adc80440 	ldp	q0, q1, [x2,#256]!
  4138c4:	adc80440 	ldp	q0, q1, [x2,#256]!
  4138c8:	adc80440 	ldp	q0, q1, [x2,#256]!
  4138cc:	adc80440 	ldp	q0, q1, [x2,#256]!
  4138d0:	adc80440 	ldp	q0, q1, [x2,#256]!
  4138d4:	adc80440 	ldp	q0, q1, [x2,#256]!
  4138d8:	aa1e03eb 	mov	x11, x30
  4138dc:	97ffd76a 	bl	409684 <nop_>
  4138e0:	aa0b03fe 	mov	x30, x11
  4138e4:	adc80440 	ldp	q0, q1, [x2,#256]!
  4138e8:	adc80440 	ldp	q0, q1, [x2,#256]!
  4138ec:	adc80440 	ldp	q0, q1, [x2,#256]!
  4138f0:	adc80440 	ldp	q0, q1, [x2,#256]!
  4138f4:	adc80440 	ldp	q0, q1, [x2,#256]!
  4138f8:	adc80440 	ldp	q0, q1, [x2,#256]!
  4138fc:	aa1e03eb 	mov	x11, x30
  413900:	97ffd761 	bl	409684 <nop_>
  413904:	aa0b03fe 	mov	x30, x11
  413908:	adc80440 	ldp	q0, q1, [x2,#256]!
  41390c:	adc80440 	ldp	q0, q1, [x2,#256]!
  413910:	adc80440 	ldp	q0, q1, [x2,#256]!
  413914:	adc80440 	ldp	q0, q1, [x2,#256]!
  413918:	adc80440 	ldp	q0, q1, [x2,#256]!
  41391c:	adc80440 	ldp	q0, q1, [x2,#256]!
  413920:	aa1e03eb 	mov	x11, x30
  413924:	97ffd758 	bl	409684 <nop_>
  413928:	aa0b03fe 	mov	x30, x11
  41392c:	adc80440 	ldp	q0, q1, [x2,#256]!
  413930:	adc80440 	ldp	q0, q1, [x2,#256]!
  413934:	adc80440 	ldp	q0, q1, [x2,#256]!
  413938:	adc80440 	ldp	q0, q1, [x2,#256]!
  41393c:	adc80440 	ldp	q0, q1, [x2,#256]!
  413940:	adc80440 	ldp	q0, q1, [x2,#256]!
  413944:	aa1e03eb 	mov	x11, x30
  413948:	97ffd74f 	bl	409684 <nop_>
  41394c:	aa0b03fe 	mov	x30, x11
  413950:	adc80440 	ldp	q0, q1, [x2,#256]!
  413954:	adc80440 	ldp	q0, q1, [x2,#256]!
  413958:	adc80440 	ldp	q0, q1, [x2,#256]!
  41395c:	adc80440 	ldp	q0, q1, [x2,#256]!
  413960:	adc80440 	ldp	q0, q1, [x2,#256]!
  413964:	adc80440 	ldp	q0, q1, [x2,#256]!
  413968:	aa1e03eb 	mov	x11, x30
  41396c:	97ffd746 	bl	409684 <nop_>
  413970:	aa0b03fe 	mov	x30, x11
  413974:	adc80440 	ldp	q0, q1, [x2,#256]!
  413978:	ad8804c0 	stp	q0, q1, [x6,#256]!
  41397c:	adc80440 	ldp	q0, q1, [x2,#256]!
  413980:	adc80440 	ldp	q0, q1, [x2,#256]!
  413984:	adc80440 	ldp	q0, q1, [x2,#256]!
  413988:	adc80440 	ldp	q0, q1, [x2,#256]!
  41398c:	aa1e03eb 	mov	x11, x30
  413990:	97ffd73d 	bl	409684 <nop_>
  413994:	aa0b03fe 	mov	x30, x11
  413998:	adc80440 	ldp	q0, q1, [x2,#256]!
  41399c:	adc80440 	ldp	q0, q1, [x2,#256]!
  4139a0:	adc80440 	ldp	q0, q1, [x2,#256]!
  4139a4:	adc80440 	ldp	q0, q1, [x2,#256]!
  4139a8:	adc80440 	ldp	q0, q1, [x2,#256]!
  4139ac:	adc80440 	ldp	q0, q1, [x2,#256]!
  4139b0:	aa1e03eb 	mov	x11, x30
  4139b4:	97ffd734 	bl	409684 <nop_>
  4139b8:	aa0b03fe 	mov	x30, x11
  4139bc:	adc80440 	ldp	q0, q1, [x2,#256]!
  4139c0:	adc80440 	ldp	q0, q1, [x2,#256]!
  4139c4:	adc80440 	ldp	q0, q1, [x2,#256]!
  4139c8:	adc80440 	ldp	q0, q1, [x2,#256]!
  4139cc:	adc80440 	ldp	q0, q1, [x2,#256]!
  4139d0:	adc80440 	ldp	q0, q1, [x2,#256]!
  4139d4:	aa1e03eb 	mov	x11, x30
  4139d8:	97ffd72b 	bl	409684 <nop_>
  4139dc:	aa0b03fe 	mov	x30, x11
  4139e0:	adc80440 	ldp	q0, q1, [x2,#256]!
  4139e4:	adc80440 	ldp	q0, q1, [x2,#256]!
  4139e8:	adc80440 	ldp	q0, q1, [x2,#256]!
  4139ec:	adc80440 	ldp	q0, q1, [x2,#256]!
  4139f0:	adc80440 	ldp	q0, q1, [x2,#256]!
  4139f4:	adc80440 	ldp	q0, q1, [x2,#256]!
  4139f8:	aa1e03eb 	mov	x11, x30
  4139fc:	97ffd722 	bl	409684 <nop_>
  413a00:	aa0b03fe 	mov	x30, x11
  413a04:	adc80440 	ldp	q0, q1, [x2,#256]!
  413a08:	adc80440 	ldp	q0, q1, [x2,#256]!
  413a0c:	adc80440 	ldp	q0, q1, [x2,#256]!
  413a10:	adc80440 	ldp	q0, q1, [x2,#256]!
  413a14:	adc80440 	ldp	q0, q1, [x2,#256]!
  413a18:	adc80440 	ldp	q0, q1, [x2,#256]!
  413a1c:	aa1e03eb 	mov	x11, x30
  413a20:	97ffd719 	bl	409684 <nop_>
  413a24:	aa0b03fe 	mov	x30, x11
  413a28:	adc80440 	ldp	q0, q1, [x2,#256]!
  413a2c:	adc80440 	ldp	q0, q1, [x2,#256]!
  413a30:	adc80440 	ldp	q0, q1, [x2,#256]!
  413a34:	adc80440 	ldp	q0, q1, [x2,#256]!
  413a38:	adc80440 	ldp	q0, q1, [x2,#256]!
  413a3c:	adc80440 	ldp	q0, q1, [x2,#256]!
  413a40:	aa1e03eb 	mov	x11, x30
  413a44:	97ffd710 	bl	409684 <nop_>
  413a48:	aa0b03fe 	mov	x30, x11
  413a4c:	adc80440 	ldp	q0, q1, [x2,#256]!
  413a50:	adc80440 	ldp	q0, q1, [x2,#256]!
  413a54:	adc80440 	ldp	q0, q1, [x2,#256]!
  413a58:	adc80440 	ldp	q0, q1, [x2,#256]!
  413a5c:	adc80440 	ldp	q0, q1, [x2,#256]!
  413a60:	adc80440 	ldp	q0, q1, [x2,#256]!
  413a64:	aa1e03eb 	mov	x11, x30
  413a68:	97ffd707 	bl	409684 <nop_>
  413a6c:	aa0b03fe 	mov	x30, x11
  413a70:	adc80440 	ldp	q0, q1, [x2,#256]!
  413a74:	adc80440 	ldp	q0, q1, [x2,#256]!
  413a78:	adc80440 	ldp	q0, q1, [x2,#256]!
  413a7c:	adc80440 	ldp	q0, q1, [x2,#256]!
  413a80:	adc80440 	ldp	q0, q1, [x2,#256]!
  413a84:	adc80440 	ldp	q0, q1, [x2,#256]!
  413a88:	aa1e03eb 	mov	x11, x30
  413a8c:	97ffd6fe 	bl	409684 <nop_>
  413a90:	aa0b03fe 	mov	x30, x11
  413a94:	adc80440 	ldp	q0, q1, [x2,#256]!
  413a98:	adc80440 	ldp	q0, q1, [x2,#256]!
  413a9c:	adc80440 	ldp	q0, q1, [x2,#256]!
  413aa0:	ad8804c0 	stp	q0, q1, [x6,#256]!
  413aa4:	aa1e03eb 	mov	x11, x30
  413aa8:	97ffd6f7 	bl	409684 <nop_>
  413aac:	aa0b03fe 	mov	x30, x11
  413ab0:	91320021 	add	x1, x1, #0xc80
  413ab4:	eb03003f 	cmp	x1, x3
  413ab8:	5400078d 	b.le	413ba8 <_Z15STREAM_copy_100PdS_PlPKi+0xe0>
  413abc:	d503201f 	nop
  413ac0:	a8c37bfd 	ldp	x29, x30, [sp],#48
  413ac4:	d65f03c0 	ret

0000000000413ac8 <_Z15STREAM_copy_100PdS_PlPKi>:
  413ac8:	a9bd7bfd 	stp	x29, x30, [sp,#-48]!
  413acc:	910003fd 	mov	x29, sp
  413ad0:	f90017e0 	str	x0, [sp,#40]
  413ad4:	f90013e1 	str	x1, [sp,#32]
  413ad8:	f9000fe2 	str	x2, [sp,#24]
  413adc:	f9000be3 	str	x3, [sp,#16]
  413ae0:	d2800000 	mov	x0, #0x0                   	// #0
  413ae4:	d0000020 	adrp	x0, 419000 <_IO_stdin_used+0x8>
  413ae8:	91008001 	add	x1, x0, #0x20
  413aec:	f00000c0 	adrp	x0, 42e000 <_Znam@GLIBCXX_3.4>
  413af0:	91286000 	add	x0, x0, #0xa18
  413af4:	97ffd4ff 	bl	408ef0 <_ZStlsISt11char_traitsIcEERSt13basic_ostreamIcT_ES5_PKc@plt>
  413af8:	aa0003e2 	mov	x2, x0
  413afc:	f9400be0 	ldr	x0, [sp,#16]
  413b00:	b9400000 	ldr	w0, [x0]
  413b04:	2a0003e1 	mov	w1, w0
  413b08:	aa0203e0 	mov	x0, x2
  413b0c:	97ffd62d 	bl	4093c0 <_ZNSolsEi@plt>
  413b10:	aa0003e2 	mov	x2, x0
  413b14:	d0000020 	adrp	x0, 419000 <_IO_stdin_used+0x8>
  413b18:	9100c001 	add	x1, x0, #0x30
  413b1c:	aa0203e0 	mov	x0, x2
  413b20:	97ffd4f4 	bl	408ef0 <_ZStlsISt11char_traitsIcEERSt13basic_ostreamIcT_ES5_PKc@plt>
  413b24:	f94017e1 	ldr	x1, [sp,#40]
  413b28:	97ffd496 	bl	408d80 <_ZNSolsEPKv@plt>
  413b2c:	aa0003e2 	mov	x2, x0
  413b30:	d0000020 	adrp	x0, 419000 <_IO_stdin_used+0x8>
  413b34:	91010001 	add	x1, x0, #0x40
  413b38:	aa0203e0 	mov	x0, x2
  413b3c:	97ffd4ed 	bl	408ef0 <_ZStlsISt11char_traitsIcEERSt13basic_ostreamIcT_ES5_PKc@plt>
  413b40:	f94013e1 	ldr	x1, [sp,#32]
  413b44:	97ffd48f 	bl	408d80 <_ZNSolsEPKv@plt>
  413b48:	aa0003e2 	mov	x2, x0
  413b4c:	d0000020 	adrp	x0, 419000 <_IO_stdin_used+0x8>
  413b50:	91014001 	add	x1, x0, #0x50
  413b54:	aa0203e0 	mov	x0, x2
  413b58:	97ffd4e6 	bl	408ef0 <_ZStlsISt11char_traitsIcEERSt13basic_ostreamIcT_ES5_PKc@plt>
  413b5c:	aa0003e2 	mov	x2, x0
  413b60:	f9400fe0 	ldr	x0, [sp,#24]
  413b64:	f9400000 	ldr	x0, [x0]
  413b68:	aa0003e1 	mov	x1, x0
  413b6c:	aa0203e0 	mov	x0, x2
  413b70:	97ffd634 	bl	409440 <_ZNSolsEl@plt>
  413b74:	aa0003e2 	mov	x2, x0
  413b78:	b0ffffa0 	adrp	x0, 408000 <_init-0x970>
  413b7c:	912ec001 	add	x1, x0, #0xbb0
  413b80:	aa0203e0 	mov	x0, x2
  413b84:	97ffd4ef 	bl	408f40 <_ZNSolsEPFRSoS_E@plt>
  413b88:	f9400fe1 	ldr	x1, [sp,#24]
  413b8c:	f9400023 	ldr	x3, [x1]
  413b90:	f9400be1 	ldr	x1, [sp,#16]
  413b94:	b9400025 	ldr	w5, [x1]
  413b98:	f94017e2 	ldr	x2, [sp,#40]
  413b9c:	f94013e6 	ldr	x6, [sp,#32]
  413ba0:	d2800001 	mov	x1, #0x0                   	// #0
  413ba4:	aa0503e4 	mov	x4, x5
  413ba8:	adc80440 	ldp	q0, q1, [x2,#256]!
  413bac:	adc80440 	ldp	q0, q1, [x2,#256]!
  413bb0:	adc80440 	ldp	q0, q1, [x2,#256]!
  413bb4:	adc80440 	ldp	q0, q1, [x2,#256]!
  413bb8:	adc80440 	ldp	q0, q1, [x2,#256]!
  413bbc:	adc80440 	ldp	q0, q1, [x2,#256]!
  413bc0:	aa1e03eb 	mov	x11, x30
  413bc4:	97ffd6b0 	bl	409684 <nop_>
  413bc8:	aa0b03fe 	mov	x30, x11
  413bcc:	adc80440 	ldp	q0, q1, [x2,#256]!
  413bd0:	adc80440 	ldp	q0, q1, [x2,#256]!
  413bd4:	adc80440 	ldp	q0, q1, [x2,#256]!
  413bd8:	adc80440 	ldp	q0, q1, [x2,#256]!
  413bdc:	adc80440 	ldp	q0, q1, [x2,#256]!
  413be0:	adc80440 	ldp	q0, q1, [x2,#256]!
  413be4:	aa1e03eb 	mov	x11, x30
  413be8:	97ffd6a7 	bl	409684 <nop_>
  413bec:	aa0b03fe 	mov	x30, x11
  413bf0:	adc80440 	ldp	q0, q1, [x2,#256]!
  413bf4:	adc80440 	ldp	q0, q1, [x2,#256]!
  413bf8:	adc80440 	ldp	q0, q1, [x2,#256]!
  413bfc:	adc80440 	ldp	q0, q1, [x2,#256]!
  413c00:	adc80440 	ldp	q0, q1, [x2,#256]!
  413c04:	adc80440 	ldp	q0, q1, [x2,#256]!
  413c08:	aa1e03eb 	mov	x11, x30
  413c0c:	97ffd69e 	bl	409684 <nop_>
  413c10:	aa0b03fe 	mov	x30, x11
  413c14:	adc80440 	ldp	q0, q1, [x2,#256]!
  413c18:	adc80440 	ldp	q0, q1, [x2,#256]!
  413c1c:	adc80440 	ldp	q0, q1, [x2,#256]!
  413c20:	adc80440 	ldp	q0, q1, [x2,#256]!
  413c24:	adc80440 	ldp	q0, q1, [x2,#256]!
  413c28:	adc80440 	ldp	q0, q1, [x2,#256]!
  413c2c:	aa1e03eb 	mov	x11, x30
  413c30:	97ffd695 	bl	409684 <nop_>
  413c34:	aa0b03fe 	mov	x30, x11
  413c38:	adc80440 	ldp	q0, q1, [x2,#256]!
  413c3c:	adc80440 	ldp	q0, q1, [x2,#256]!
  413c40:	adc80440 	ldp	q0, q1, [x2,#256]!
  413c44:	adc80440 	ldp	q0, q1, [x2,#256]!
  413c48:	adc80440 	ldp	q0, q1, [x2,#256]!
  413c4c:	adc80440 	ldp	q0, q1, [x2,#256]!
  413c50:	aa1e03eb 	mov	x11, x30
  413c54:	97ffd68c 	bl	409684 <nop_>
  413c58:	aa0b03fe 	mov	x30, x11
  413c5c:	adc80440 	ldp	q0, q1, [x2,#256]!
  413c60:	adc80440 	ldp	q0, q1, [x2,#256]!
  413c64:	adc80440 	ldp	q0, q1, [x2,#256]!
  413c68:	adc80440 	ldp	q0, q1, [x2,#256]!
  413c6c:	adc80440 	ldp	q0, q1, [x2,#256]!
  413c70:	adc80440 	ldp	q0, q1, [x2,#256]!
  413c74:	aa1e03eb 	mov	x11, x30
  413c78:	97ffd683 	bl	409684 <nop_>
  413c7c:	aa0b03fe 	mov	x30, x11
  413c80:	adc80440 	ldp	q0, q1, [x2,#256]!
  413c84:	adc80440 	ldp	q0, q1, [x2,#256]!
  413c88:	adc80440 	ldp	q0, q1, [x2,#256]!
  413c8c:	adc80440 	ldp	q0, q1, [x2,#256]!
  413c90:	adc80440 	ldp	q0, q1, [x2,#256]!
  413c94:	adc80440 	ldp	q0, q1, [x2,#256]!
  413c98:	aa1e03eb 	mov	x11, x30
  413c9c:	97ffd67a 	bl	409684 <nop_>
  413ca0:	aa0b03fe 	mov	x30, x11
  413ca4:	adc80440 	ldp	q0, q1, [x2,#256]!
  413ca8:	adc80440 	ldp	q0, q1, [x2,#256]!
  413cac:	adc80440 	ldp	q0, q1, [x2,#256]!
  413cb0:	adc80440 	ldp	q0, q1, [x2,#256]!
  413cb4:	adc80440 	ldp	q0, q1, [x2,#256]!
  413cb8:	adc80440 	ldp	q0, q1, [x2,#256]!
  413cbc:	aa1e03eb 	mov	x11, x30
  413cc0:	97ffd671 	bl	409684 <nop_>
  413cc4:	aa0b03fe 	mov	x30, x11
  413cc8:	adc80440 	ldp	q0, q1, [x2,#256]!
  413ccc:	adc80440 	ldp	q0, q1, [x2,#256]!
  413cd0:	adc80440 	ldp	q0, q1, [x2,#256]!
  413cd4:	adc80440 	ldp	q0, q1, [x2,#256]!
  413cd8:	adc80440 	ldp	q0, q1, [x2,#256]!
  413cdc:	adc80440 	ldp	q0, q1, [x2,#256]!
  413ce0:	aa1e03eb 	mov	x11, x30
  413ce4:	97ffd668 	bl	409684 <nop_>
  413ce8:	aa0b03fe 	mov	x30, x11
  413cec:	adc80440 	ldp	q0, q1, [x2,#256]!
  413cf0:	adc80440 	ldp	q0, q1, [x2,#256]!
  413cf4:	adc80440 	ldp	q0, q1, [x2,#256]!
  413cf8:	adc80440 	ldp	q0, q1, [x2,#256]!
  413cfc:	adc80440 	ldp	q0, q1, [x2,#256]!
  413d00:	adc80440 	ldp	q0, q1, [x2,#256]!
  413d04:	aa1e03eb 	mov	x11, x30
  413d08:	97ffd65f 	bl	409684 <nop_>
  413d0c:	aa0b03fe 	mov	x30, x11
  413d10:	adc80440 	ldp	q0, q1, [x2,#256]!
  413d14:	adc80440 	ldp	q0, q1, [x2,#256]!
  413d18:	adc80440 	ldp	q0, q1, [x2,#256]!
  413d1c:	adc80440 	ldp	q0, q1, [x2,#256]!
  413d20:	adc80440 	ldp	q0, q1, [x2,#256]!
  413d24:	adc80440 	ldp	q0, q1, [x2,#256]!
  413d28:	aa1e03eb 	mov	x11, x30
  413d2c:	97ffd656 	bl	409684 <nop_>
  413d30:	aa0b03fe 	mov	x30, x11
  413d34:	adc80440 	ldp	q0, q1, [x2,#256]!
  413d38:	adc80440 	ldp	q0, q1, [x2,#256]!
  413d3c:	adc80440 	ldp	q0, q1, [x2,#256]!
  413d40:	adc80440 	ldp	q0, q1, [x2,#256]!
  413d44:	adc80440 	ldp	q0, q1, [x2,#256]!
  413d48:	adc80440 	ldp	q0, q1, [x2,#256]!
  413d4c:	aa1e03eb 	mov	x11, x30
  413d50:	97ffd64d 	bl	409684 <nop_>
  413d54:	aa0b03fe 	mov	x30, x11
  413d58:	adc80440 	ldp	q0, q1, [x2,#256]!
  413d5c:	adc80440 	ldp	q0, q1, [x2,#256]!
  413d60:	adc80440 	ldp	q0, q1, [x2,#256]!
  413d64:	adc80440 	ldp	q0, q1, [x2,#256]!
  413d68:	adc80440 	ldp	q0, q1, [x2,#256]!
  413d6c:	adc80440 	ldp	q0, q1, [x2,#256]!
  413d70:	aa1e03eb 	mov	x11, x30
  413d74:	97ffd644 	bl	409684 <nop_>
  413d78:	aa0b03fe 	mov	x30, x11
  413d7c:	adc80440 	ldp	q0, q1, [x2,#256]!
  413d80:	adc80440 	ldp	q0, q1, [x2,#256]!
  413d84:	adc80440 	ldp	q0, q1, [x2,#256]!
  413d88:	adc80440 	ldp	q0, q1, [x2,#256]!
  413d8c:	adc80440 	ldp	q0, q1, [x2,#256]!
  413d90:	adc80440 	ldp	q0, q1, [x2,#256]!
  413d94:	aa1e03eb 	mov	x11, x30
  413d98:	97ffd63b 	bl	409684 <nop_>
  413d9c:	aa0b03fe 	mov	x30, x11
  413da0:	adc80440 	ldp	q0, q1, [x2,#256]!
  413da4:	adc80440 	ldp	q0, q1, [x2,#256]!
  413da8:	adc80440 	ldp	q0, q1, [x2,#256]!
  413dac:	adc80440 	ldp	q0, q1, [x2,#256]!
  413db0:	adc80440 	ldp	q0, q1, [x2,#256]!
  413db4:	adc80440 	ldp	q0, q1, [x2,#256]!
  413db8:	aa1e03eb 	mov	x11, x30
  413dbc:	97ffd632 	bl	409684 <nop_>
  413dc0:	aa0b03fe 	mov	x30, x11
  413dc4:	adc80440 	ldp	q0, q1, [x2,#256]!
  413dc8:	adc80440 	ldp	q0, q1, [x2,#256]!
  413dcc:	adc80440 	ldp	q0, q1, [x2,#256]!
  413dd0:	adc80440 	ldp	q0, q1, [x2,#256]!
  413dd4:	adc80440 	ldp	q0, q1, [x2,#256]!
  413dd8:	adc80440 	ldp	q0, q1, [x2,#256]!
  413ddc:	aa1e03eb 	mov	x11, x30
  413de0:	97ffd629 	bl	409684 <nop_>
  413de4:	aa0b03fe 	mov	x30, x11
  413de8:	adc80440 	ldp	q0, q1, [x2,#256]!
  413dec:	adc80440 	ldp	q0, q1, [x2,#256]!
  413df0:	adc80440 	ldp	q0, q1, [x2,#256]!
  413df4:	adc80440 	ldp	q0, q1, [x2,#256]!
  413df8:	aa1e03eb 	mov	x11, x30
  413dfc:	97ffd622 	bl	409684 <nop_>
  413e00:	aa0b03fe 	mov	x30, x11
  413e04:	91320021 	add	x1, x1, #0xc80
  413e08:	eb03003f 	cmp	x1, x3
  413e0c:	54ffeced 	b.le	413ba8 <_Z15STREAM_copy_100PdS_PlPKi+0xe0>
  413e10:	d503201f 	nop
  413e14:	a8c37bfd 	ldp	x29, x30, [sp],#48
  413e18:	d65f03c0 	ret

0000000000413e1c <_Z41__static_initialization_and_destruction_0ii>:
  413e1c:	a9be7bfd 	stp	x29, x30, [sp,#-32]!
  413e20:	910003fd 	mov	x29, sp
  413e24:	b9001fe0 	str	w0, [sp,#28]
  413e28:	b9001be1 	str	w1, [sp,#24]
  413e2c:	b9401fe0 	ldr	w0, [sp,#28]
  413e30:	7100041f 	cmp	w0, #0x1
  413e34:	540001e1 	b.ne	413e70 <_Z41__static_initialization_and_destruction_0ii+0x54>
  413e38:	b9401be1 	ldr	w1, [sp,#24]
  413e3c:	529fffe0 	mov	w0, #0xffff                	// #65535
  413e40:	6b00003f 	cmp	w1, w0
  413e44:	54000161 	b.ne	413e70 <_Z41__static_initialization_and_destruction_0ii+0x54>
  413e48:	f00000c0 	adrp	x0, 42e000 <_Znam@GLIBCXX_3.4>
  413e4c:	912ce000 	add	x0, x0, #0xb38
  413e50:	97ffd500 	bl	409250 <_ZNSt8ios_base4InitC1Ev@plt>
  413e54:	f00000c0 	adrp	x0, 42e000 <_Znam@GLIBCXX_3.4>
  413e58:	9117c002 	add	x2, x0, #0x5f0
  413e5c:	f00000c0 	adrp	x0, 42e000 <_Znam@GLIBCXX_3.4>
  413e60:	912ce001 	add	x1, x0, #0xb38
  413e64:	d0ffffa0 	adrp	x0, 409000 <_ZN3MPI3Win4FreeEv@plt>
  413e68:	9115c000 	add	x0, x0, #0x570
  413e6c:	97ffd469 	bl	409010 <__cxa_atexit@plt>
  413e70:	d503201f 	nop
  413e74:	a8c27bfd 	ldp	x29, x30, [sp],#32
  413e78:	d65f03c0 	ret

0000000000413e7c <_GLOBAL__sub_I__Z11print_usagePPcS_>:
  413e7c:	a9bf7bfd 	stp	x29, x30, [sp,#-16]!
  413e80:	910003fd 	mov	x29, sp
  413e84:	529fffe1 	mov	w1, #0xffff                	// #65535
  413e88:	52800020 	mov	w0, #0x1                   	// #1
  413e8c:	97ffffe4 	bl	413e1c <_Z41__static_initialization_and_destruction_0ii>
  413e90:	a8c17bfd 	ldp	x29, x30, [sp],#16
  413e94:	d65f03c0 	ret

0000000000413e98 <main>:
  413e98:	a9bb7bfd 	stp	x29, x30, [sp,#-80]!
  413e9c:	910003fd 	mov	x29, sp
  413ea0:	b9001fe0 	str	w0, [sp,#28]
  413ea4:	f9000be1 	str	x1, [sp,#16]
  413ea8:	52800640 	mov	w0, #0x32                  	// #50
  413eac:	b9004fe0 	str	w0, [sp,#76]
  413eb0:	b90027ff 	str	wzr, [sp,#36]
  413eb4:	d2800001 	mov	x1, #0x0                   	// #0
  413eb8:	d2800000 	mov	x0, #0x0                   	// #0
  413ebc:	97ffd4c5 	bl	4091d0 <MPI_Init@plt>
  413ec0:	b9003fe0 	str	w0, [sp,#60]
  413ec4:	b9403fe0 	ldr	w0, [sp,#60]
  413ec8:	7100001f 	cmp	w0, #0x0
  413ecc:	540000e0 	b.eq	413ee8 <main+0x50>
  413ed0:	b9403fe1 	ldr	w1, [sp,#60]
  413ed4:	d0000020 	adrp	x0, 419000 <_IO_stdin_used+0x8>
  413ed8:	910ae000 	add	x0, x0, #0x2b8
  413edc:	97ffd59d 	bl	409550 <printf@plt>
  413ee0:	52800020 	mov	w0, #0x1                   	// #1
  413ee4:	97ffd533 	bl	4093b0 <exit@plt>
  413ee8:	9100b3e0 	add	x0, sp, #0x2c
  413eec:	aa0003e1 	mov	x1, x0
  413ef0:	f00000c0 	adrp	x0, 42e000 <_Znam@GLIBCXX_3.4>
  413ef4:	91182000 	add	x0, x0, #0x608
  413ef8:	97ffd44a 	bl	409020 <MPI_Comm_size@plt>
  413efc:	9100a3e0 	add	x0, sp, #0x28
  413f00:	aa0003e1 	mov	x1, x0
  413f04:	f00000c0 	adrp	x0, 42e000 <_Znam@GLIBCXX_3.4>
  413f08:	91182000 	add	x0, x0, #0x608
  413f0c:	97ffd4ad 	bl	4091c0 <MPI_Comm_rank@plt>
  413f10:	1400003e 	b	414008 <main+0x170>
  413f14:	b9403be0 	ldr	w0, [sp,#56]
  413f18:	7101c01f 	cmp	w0, #0x70
  413f1c:	540003c0 	b.eq	413f94 <main+0xfc>
  413f20:	b9403be0 	ldr	w0, [sp,#56]
  413f24:	7101c81f 	cmp	w0, #0x72
  413f28:	54000581 	b.ne	413fd8 <main+0x140>
  413f2c:	f00000c0 	adrp	x0, 42e000 <_Znam@GLIBCXX_3.4>
  413f30:	91202000 	add	x0, x0, #0x808
  413f34:	f9400000 	ldr	x0, [x0]
  413f38:	97ffd3b2 	bl	408e00 <atoi@plt>
  413f3c:	b9004fe0 	str	w0, [sp,#76]
  413f40:	b9404fe0 	ldr	w0, [sp,#76]
  413f44:	7100001f 	cmp	w0, #0x0
  413f48:	5400014b 	b.lt	413f70 <main+0xd8>
  413f4c:	b9404fe0 	ldr	w0, [sp,#76]
  413f50:	7101901f 	cmp	w0, #0x64
  413f54:	540000ec 	b.gt	413f70 <main+0xd8>
  413f58:	b9404fe0 	ldr	w0, [sp,#76]
  413f5c:	7100001f 	cmp	w0, #0x0
  413f60:	12000000 	and	w0, w0, #0x1
  413f64:	5a80a400 	cneg	w0, w0, lt
  413f68:	7100041f 	cmp	w0, #0x1
  413f6c:	540004e1 	b.ne	414008 <main+0x170>
  413f70:	b9402be0 	ldr	w0, [sp,#40]
  413f74:	7100001f 	cmp	w0, #0x0
  413f78:	54000081 	b.ne	413f88 <main+0xf0>
  413f7c:	d0000020 	adrp	x0, 419000 <_IO_stdin_used+0x8>
  413f80:	910bc000 	add	x0, x0, #0x2f0
  413f84:	97ffd2bf 	bl	408a80 <puts@plt>
  413f88:	97ffd37a 	bl	408d70 <MPI_Finalize@plt>
  413f8c:	12800000 	mov	w0, #0xffffffff            	// #-1
  413f90:	97ffd508 	bl	4093b0 <exit@plt>
  413f94:	f00000c0 	adrp	x0, 42e000 <_Znam@GLIBCXX_3.4>
  413f98:	91202000 	add	x0, x0, #0x808
  413f9c:	f9400000 	ldr	x0, [x0]
  413fa0:	97ffd398 	bl	408e00 <atoi@plt>
  413fa4:	b90027e0 	str	w0, [sp,#36]
  413fa8:	b94027e0 	ldr	w0, [sp,#36]
  413fac:	7100001f 	cmp	w0, #0x0
  413fb0:	540002ca 	b.ge	414008 <main+0x170>
  413fb4:	b9402be0 	ldr	w0, [sp,#40]
  413fb8:	7100001f 	cmp	w0, #0x0
  413fbc:	54000081 	b.ne	413fcc <main+0x134>
  413fc0:	d0000020 	adrp	x0, 419000 <_IO_stdin_used+0x8>
  413fc4:	910cc000 	add	x0, x0, #0x330
  413fc8:	97ffd2ae 	bl	408a80 <puts@plt>
  413fcc:	97ffd369 	bl	408d70 <MPI_Finalize@plt>
  413fd0:	12800000 	mov	w0, #0xffffffff            	// #-1
  413fd4:	97ffd4f7 	bl	4093b0 <exit@plt>
  413fd8:	b9402be0 	ldr	w0, [sp,#40]
  413fdc:	7100001f 	cmp	w0, #0x0
  413fe0:	540000e1 	b.ne	413ffc <main+0x164>
  413fe4:	f00000c0 	adrp	x0, 42e000 <_Znam@GLIBCXX_3.4>
  413fe8:	9117e000 	add	x0, x0, #0x5f8
  413fec:	f9400000 	ldr	x0, [x0]
  413ff0:	aa0003e1 	mov	x1, x0
  413ff4:	f9400be0 	ldr	x0, [sp,#16]
  413ff8:	97ffd5b0 	bl	4096b8 <_Z11print_usagePPcS_>
  413ffc:	97ffd35d 	bl	408d70 <MPI_Finalize@plt>
  414000:	12800000 	mov	w0, #0xffffffff            	// #-1
  414004:	97ffd4eb 	bl	4093b0 <exit@plt>
  414008:	b0000020 	adrp	x0, 419000 <_IO_stdin_used+0x8>
  41400c:	910d8002 	add	x2, x0, #0x360
  414010:	f9400be1 	ldr	x1, [sp,#16]
  414014:	b9401fe0 	ldr	w0, [sp,#28]
  414018:	97ffd3b2 	bl	408ee0 <getopt@plt>
  41401c:	b9003be0 	str	w0, [sp,#56]
  414020:	b9403be0 	ldr	w0, [sp,#56]
  414024:	3100041f 	cmn	w0, #0x1
  414028:	1a9f07e0 	cset	w0, ne
  41402c:	12001c00 	and	w0, w0, #0xff
  414030:	7100001f 	cmp	w0, #0x0
  414034:	54fff701 	b.ne	413f14 <main+0x7c>
  414038:	d00000c0 	adrp	x0, 42e000 <_Znam@GLIBCXX_3.4>
  41403c:	91204000 	add	x0, x0, #0x810
  414040:	b9400000 	ldr	w0, [x0]
  414044:	b9401fe1 	ldr	w1, [sp,#28]
  414048:	6b00003f 	cmp	w1, w0
  41404c:	5400008c 	b.gt	41405c <main+0x1c4>
  414050:	b9401fe0 	ldr	w0, [sp,#28]
  414054:	7100141f 	cmp	w0, #0x5
  414058:	540001a0 	b.eq	41408c <main+0x1f4>
  41405c:	b9402be0 	ldr	w0, [sp,#40]
  414060:	7100001f 	cmp	w0, #0x0
  414064:	540000e1 	b.ne	414080 <main+0x1e8>
  414068:	d00000c0 	adrp	x0, 42e000 <_Znam@GLIBCXX_3.4>
  41406c:	9117e000 	add	x0, x0, #0x5f8
  414070:	f9400000 	ldr	x0, [x0]
  414074:	aa0003e1 	mov	x1, x0
  414078:	f9400be0 	ldr	x0, [sp,#16]
  41407c:	97ffd58f 	bl	4096b8 <_Z11print_usagePPcS_>
  414080:	97ffd33c 	bl	408d70 <MPI_Finalize@plt>
  414084:	12800000 	mov	w0, #0xffffffff            	// #-1
  414088:	97ffd4ca 	bl	4093b0 <exit@plt>
  41408c:	b9404fe0 	ldr	w0, [sp,#76]
  414090:	7101901f 	cmp	w0, #0x64
  414094:	54002728 	b.hi	414578 <main+0x6e0>
  414098:	b0000021 	adrp	x1, 419000 <_IO_stdin_used+0x8>
  41409c:	9118d021 	add	x1, x1, #0x634
  4140a0:	b8605820 	ldr	w0, [x1,w0,uxtw #2]
  4140a4:	10000061 	adr	x1, 4140b0 <main+0x218>
  4140a8:	8b20c820 	add	x0, x1, w0, sxtw #2
  4140ac:	d61f0000 	br	x0
  4140b0:	d00000c0 	adrp	x0, 42e000 <_Znam@GLIBCXX_3.4>
  4140b4:	912da000 	add	x0, x0, #0xb68
  4140b8:	b0ffffa1 	adrp	x1, 409000 <_ZN3MPI3Win4FreeEv@plt>
  4140bc:	911c0021 	add	x1, x1, #0x700
  4140c0:	f9000001 	str	x1, [x0]
  4140c4:	14000133 	b	414590 <main+0x6f8>
  4140c8:	d00000c0 	adrp	x0, 42e000 <_Znam@GLIBCXX_3.4>
  4140cc:	912da000 	add	x0, x0, #0xb68
  4140d0:	b0ffffa1 	adrp	x1, 409000 <_ZN3MPI3Win4FreeEv@plt>
  4140d4:	911e2021 	add	x1, x1, #0x788
  4140d8:	f9000001 	str	x1, [x0]
  4140dc:	1400012d 	b	414590 <main+0x6f8>
  4140e0:	d00000c0 	adrp	x0, 42e000 <_Znam@GLIBCXX_3.4>
  4140e4:	912da000 	add	x0, x0, #0xb68
  4140e8:	b0ffffa1 	adrp	x1, 409000 <_ZN3MPI3Win4FreeEv@plt>
  4140ec:	912b7021 	add	x1, x1, #0xadc
  4140f0:	f9000001 	str	x1, [x0]
  4140f4:	14000127 	b	414590 <main+0x6f8>
  4140f8:	d00000c0 	adrp	x0, 42e000 <_Znam@GLIBCXX_3.4>
  4140fc:	912da000 	add	x0, x0, #0xb68
  414100:	b0ffffa1 	adrp	x1, 409000 <_ZN3MPI3Win4FreeEv@plt>
  414104:	9138c021 	add	x1, x1, #0xe30
  414108:	f9000001 	str	x1, [x0]
  41410c:	14000121 	b	414590 <main+0x6f8>
  414110:	d00000c0 	adrp	x0, 42e000 <_Znam@GLIBCXX_3.4>
  414114:	912da000 	add	x0, x0, #0xb68
  414118:	d0ffffa1 	adrp	x1, 40a000 <_Z13STREAM_copy_6PdS_PlPKi+0x1d0>
  41411c:	91061021 	add	x1, x1, #0x184
  414120:	f9000001 	str	x1, [x0]
  414124:	1400011b 	b	414590 <main+0x6f8>
  414128:	d00000c0 	adrp	x0, 42e000 <_Znam@GLIBCXX_3.4>
  41412c:	912da000 	add	x0, x0, #0xb68
  414130:	d0ffffa1 	adrp	x1, 40a000 <_Z13STREAM_copy_6PdS_PlPKi+0x1d0>
  414134:	91136021 	add	x1, x1, #0x4d8
  414138:	f9000001 	str	x1, [x0]
  41413c:	14000115 	b	414590 <main+0x6f8>
  414140:	d00000c0 	adrp	x0, 42e000 <_Znam@GLIBCXX_3.4>
  414144:	912da000 	add	x0, x0, #0xb68
  414148:	d0ffffa1 	adrp	x1, 40a000 <_Z13STREAM_copy_6PdS_PlPKi+0x1d0>
  41414c:	9120b021 	add	x1, x1, #0x82c
  414150:	f9000001 	str	x1, [x0]
  414154:	1400010f 	b	414590 <main+0x6f8>
  414158:	d00000c0 	adrp	x0, 42e000 <_Znam@GLIBCXX_3.4>
  41415c:	912da000 	add	x0, x0, #0xb68
  414160:	d0ffffa1 	adrp	x1, 40a000 <_Z13STREAM_copy_6PdS_PlPKi+0x1d0>
  414164:	912e0021 	add	x1, x1, #0xb80
  414168:	f9000001 	str	x1, [x0]
  41416c:	14000109 	b	414590 <main+0x6f8>
  414170:	d00000c0 	adrp	x0, 42e000 <_Znam@GLIBCXX_3.4>
  414174:	912da000 	add	x0, x0, #0xb68
  414178:	d0ffffa1 	adrp	x1, 40a000 <_Z13STREAM_copy_6PdS_PlPKi+0x1d0>
  41417c:	913b5021 	add	x1, x1, #0xed4
  414180:	f9000001 	str	x1, [x0]
  414184:	14000103 	b	414590 <main+0x6f8>
  414188:	d00000c0 	adrp	x0, 42e000 <_Znam@GLIBCXX_3.4>
  41418c:	912da000 	add	x0, x0, #0xb68
  414190:	f0ffffa1 	adrp	x1, 40b000 <_Z14STREAM_copy_16PdS_PlPKi+0x12c>
  414194:	9108a021 	add	x1, x1, #0x228
  414198:	f9000001 	str	x1, [x0]
  41419c:	140000fd 	b	414590 <main+0x6f8>
  4141a0:	d00000c0 	adrp	x0, 42e000 <_Znam@GLIBCXX_3.4>
  4141a4:	912da000 	add	x0, x0, #0xb68
  4141a8:	f0ffffa1 	adrp	x1, 40b000 <_Z14STREAM_copy_16PdS_PlPKi+0x12c>
  4141ac:	9115f021 	add	x1, x1, #0x57c
  4141b0:	f9000001 	str	x1, [x0]
  4141b4:	140000f7 	b	414590 <main+0x6f8>
  4141b8:	d00000c0 	adrp	x0, 42e000 <_Znam@GLIBCXX_3.4>
  4141bc:	912da000 	add	x0, x0, #0xb68
  4141c0:	f0ffffa1 	adrp	x1, 40b000 <_Z14STREAM_copy_16PdS_PlPKi+0x12c>
  4141c4:	91234021 	add	x1, x1, #0x8d0
  4141c8:	f9000001 	str	x1, [x0]
  4141cc:	140000f1 	b	414590 <main+0x6f8>
  4141d0:	d00000c0 	adrp	x0, 42e000 <_Znam@GLIBCXX_3.4>
  4141d4:	912da000 	add	x0, x0, #0xb68
  4141d8:	f0ffffa1 	adrp	x1, 40b000 <_Z14STREAM_copy_16PdS_PlPKi+0x12c>
  4141dc:	91309021 	add	x1, x1, #0xc24
  4141e0:	f9000001 	str	x1, [x0]
  4141e4:	140000eb 	b	414590 <main+0x6f8>
  4141e8:	d00000c0 	adrp	x0, 42e000 <_Znam@GLIBCXX_3.4>
  4141ec:	912da000 	add	x0, x0, #0xb68
  4141f0:	f0ffffa1 	adrp	x1, 40b000 <_Z14STREAM_copy_16PdS_PlPKi+0x12c>
  4141f4:	913de021 	add	x1, x1, #0xf78
  4141f8:	f9000001 	str	x1, [x0]
  4141fc:	140000e5 	b	414590 <main+0x6f8>
  414200:	d00000c0 	adrp	x0, 42e000 <_Znam@GLIBCXX_3.4>
  414204:	912da000 	add	x0, x0, #0xb68
  414208:	90ffffc1 	adrp	x1, 40c000 <_Z14STREAM_copy_26PdS_PlPKi+0x88>
  41420c:	910b3021 	add	x1, x1, #0x2cc
  414210:	f9000001 	str	x1, [x0]
  414214:	140000df 	b	414590 <main+0x6f8>
  414218:	d00000c0 	adrp	x0, 42e000 <_Znam@GLIBCXX_3.4>
  41421c:	912da000 	add	x0, x0, #0xb68
  414220:	90ffffc1 	adrp	x1, 40c000 <_Z14STREAM_copy_26PdS_PlPKi+0x88>
  414224:	91188021 	add	x1, x1, #0x620
  414228:	f9000001 	str	x1, [x0]
  41422c:	140000d9 	b	414590 <main+0x6f8>
  414230:	d00000c0 	adrp	x0, 42e000 <_Znam@GLIBCXX_3.4>
  414234:	912da000 	add	x0, x0, #0xb68
  414238:	90ffffc1 	adrp	x1, 40c000 <_Z14STREAM_copy_26PdS_PlPKi+0x88>
  41423c:	9125d021 	add	x1, x1, #0x974
  414240:	f9000001 	str	x1, [x0]
  414244:	140000d3 	b	414590 <main+0x6f8>
  414248:	d00000c0 	adrp	x0, 42e000 <_Znam@GLIBCXX_3.4>
  41424c:	912da000 	add	x0, x0, #0xb68
  414250:	90ffffc1 	adrp	x1, 40c000 <_Z14STREAM_copy_26PdS_PlPKi+0x88>
  414254:	91332021 	add	x1, x1, #0xcc8
  414258:	f9000001 	str	x1, [x0]
  41425c:	140000cd 	b	414590 <main+0x6f8>
  414260:	d00000c0 	adrp	x0, 42e000 <_Znam@GLIBCXX_3.4>
  414264:	912da000 	add	x0, x0, #0xb68
  414268:	b0ffffc1 	adrp	x1, 40d000 <_Z14STREAM_copy_34PdS_PlPKi+0x338>
  41426c:	91007021 	add	x1, x1, #0x1c
  414270:	f9000001 	str	x1, [x0]
  414274:	140000c7 	b	414590 <main+0x6f8>
  414278:	d00000c0 	adrp	x0, 42e000 <_Znam@GLIBCXX_3.4>
  41427c:	912da000 	add	x0, x0, #0xb68
  414280:	b0ffffc1 	adrp	x1, 40d000 <_Z14STREAM_copy_34PdS_PlPKi+0x338>
  414284:	910dc021 	add	x1, x1, #0x370
  414288:	f9000001 	str	x1, [x0]
  41428c:	140000c1 	b	414590 <main+0x6f8>
  414290:	d00000c0 	adrp	x0, 42e000 <_Znam@GLIBCXX_3.4>
  414294:	912da000 	add	x0, x0, #0xb68
  414298:	b0ffffc1 	adrp	x1, 40d000 <_Z14STREAM_copy_34PdS_PlPKi+0x338>
  41429c:	911b1021 	add	x1, x1, #0x6c4
  4142a0:	f9000001 	str	x1, [x0]
  4142a4:	140000bb 	b	414590 <main+0x6f8>
  4142a8:	d00000c0 	adrp	x0, 42e000 <_Znam@GLIBCXX_3.4>
  4142ac:	912da000 	add	x0, x0, #0xb68
  4142b0:	b0ffffc1 	adrp	x1, 40d000 <_Z14STREAM_copy_34PdS_PlPKi+0x338>
  4142b4:	91286021 	add	x1, x1, #0xa18
  4142b8:	f9000001 	str	x1, [x0]
  4142bc:	140000b5 	b	414590 <main+0x6f8>
  4142c0:	d00000c0 	adrp	x0, 42e000 <_Znam@GLIBCXX_3.4>
  4142c4:	912da000 	add	x0, x0, #0xb68
  4142c8:	b0ffffc1 	adrp	x1, 40d000 <_Z14STREAM_copy_34PdS_PlPKi+0x338>
  4142cc:	9135b021 	add	x1, x1, #0xd6c
  4142d0:	f9000001 	str	x1, [x0]
  4142d4:	140000af 	b	414590 <main+0x6f8>
  4142d8:	d00000c0 	adrp	x0, 42e000 <_Znam@GLIBCXX_3.4>
  4142dc:	912da000 	add	x0, x0, #0xb68
  4142e0:	d0ffffc1 	adrp	x1, 40e000 <_Z14STREAM_copy_44PdS_PlPKi+0x294>
  4142e4:	91030021 	add	x1, x1, #0xc0
  4142e8:	f9000001 	str	x1, [x0]
  4142ec:	140000a9 	b	414590 <main+0x6f8>
  4142f0:	d00000c0 	adrp	x0, 42e000 <_Znam@GLIBCXX_3.4>
  4142f4:	912da000 	add	x0, x0, #0xb68
  4142f8:	d0ffffc1 	adrp	x1, 40e000 <_Z14STREAM_copy_44PdS_PlPKi+0x294>
  4142fc:	91105021 	add	x1, x1, #0x414
  414300:	f9000001 	str	x1, [x0]
  414304:	140000a3 	b	414590 <main+0x6f8>
  414308:	d00000c0 	adrp	x0, 42e000 <_Znam@GLIBCXX_3.4>
  41430c:	912da000 	add	x0, x0, #0xb68
  414310:	d0ffffc1 	adrp	x1, 40e000 <_Z14STREAM_copy_44PdS_PlPKi+0x294>
  414314:	911da021 	add	x1, x1, #0x768
  414318:	f9000001 	str	x1, [x0]
  41431c:	1400009d 	b	414590 <main+0x6f8>
  414320:	d00000c0 	adrp	x0, 42e000 <_Znam@GLIBCXX_3.4>
  414324:	912da000 	add	x0, x0, #0xb68
  414328:	d0ffffc1 	adrp	x1, 40e000 <_Z14STREAM_copy_44PdS_PlPKi+0x294>
  41432c:	912ba021 	add	x1, x1, #0xae8
  414330:	f9000001 	str	x1, [x0]
  414334:	14000097 	b	414590 <main+0x6f8>
  414338:	d00000c0 	adrp	x0, 42e000 <_Znam@GLIBCXX_3.4>
  41433c:	912da000 	add	x0, x0, #0xb68
  414340:	d0ffffc1 	adrp	x1, 40e000 <_Z14STREAM_copy_44PdS_PlPKi+0x294>
  414344:	9138f021 	add	x1, x1, #0xe3c
  414348:	f9000001 	str	x1, [x0]
  41434c:	14000091 	b	414590 <main+0x6f8>
  414350:	d00000c0 	adrp	x0, 42e000 <_Znam@GLIBCXX_3.4>
  414354:	912da000 	add	x0, x0, #0xb68
  414358:	f0ffffc1 	adrp	x1, 40f000 <_Z14STREAM_copy_54PdS_PlPKi+0x1c4>
  41435c:	91064021 	add	x1, x1, #0x190
  414360:	f9000001 	str	x1, [x0]
  414364:	1400008b 	b	414590 <main+0x6f8>
  414368:	d00000c0 	adrp	x0, 42e000 <_Znam@GLIBCXX_3.4>
  41436c:	912da000 	add	x0, x0, #0xb68
  414370:	f0ffffc1 	adrp	x1, 40f000 <_Z14STREAM_copy_54PdS_PlPKi+0x1c4>
  414374:	91139021 	add	x1, x1, #0x4e4
  414378:	f9000001 	str	x1, [x0]
  41437c:	14000085 	b	414590 <main+0x6f8>
  414380:	d00000c0 	adrp	x0, 42e000 <_Znam@GLIBCXX_3.4>
  414384:	912da000 	add	x0, x0, #0xb68
  414388:	f0ffffc1 	adrp	x1, 40f000 <_Z14STREAM_copy_54PdS_PlPKi+0x1c4>
  41438c:	9120e021 	add	x1, x1, #0x838
  414390:	f9000001 	str	x1, [x0]
  414394:	1400007f 	b	414590 <main+0x6f8>
  414398:	d00000c0 	adrp	x0, 42e000 <_Znam@GLIBCXX_3.4>
  41439c:	912da000 	add	x0, x0, #0xb68
  4143a0:	f0ffffc1 	adrp	x1, 40f000 <_Z14STREAM_copy_54PdS_PlPKi+0x1c4>
  4143a4:	912e3021 	add	x1, x1, #0xb8c
  4143a8:	f9000001 	str	x1, [x0]
  4143ac:	14000079 	b	414590 <main+0x6f8>
  4143b0:	d00000c0 	adrp	x0, 42e000 <_Znam@GLIBCXX_3.4>
  4143b4:	912da000 	add	x0, x0, #0xb68
  4143b8:	f0ffffc1 	adrp	x1, 40f000 <_Z14STREAM_copy_54PdS_PlPKi+0x1c4>
  4143bc:	913b8021 	add	x1, x1, #0xee0
  4143c0:	f9000001 	str	x1, [x0]
  4143c4:	14000073 	b	414590 <main+0x6f8>
  4143c8:	d00000c0 	adrp	x0, 42e000 <_Znam@GLIBCXX_3.4>
  4143cc:	912da000 	add	x0, x0, #0xb68
  4143d0:	90ffffe1 	adrp	x1, 410000 <_Z14STREAM_copy_64PdS_PlPKi+0x120>
  4143d4:	9108d021 	add	x1, x1, #0x234
  4143d8:	f9000001 	str	x1, [x0]
  4143dc:	1400006d 	b	414590 <main+0x6f8>
  4143e0:	d00000c0 	adrp	x0, 42e000 <_Znam@GLIBCXX_3.4>
  4143e4:	912da000 	add	x0, x0, #0xb68
  4143e8:	90ffffe1 	adrp	x1, 410000 <_Z14STREAM_copy_64PdS_PlPKi+0x120>
  4143ec:	91162021 	add	x1, x1, #0x588
  4143f0:	f9000001 	str	x1, [x0]
  4143f4:	14000067 	b	414590 <main+0x6f8>
  4143f8:	d00000c0 	adrp	x0, 42e000 <_Znam@GLIBCXX_3.4>
  4143fc:	912da000 	add	x0, x0, #0xb68
  414400:	90ffffe1 	adrp	x1, 410000 <_Z14STREAM_copy_64PdS_PlPKi+0x120>
  414404:	91237021 	add	x1, x1, #0x8dc
  414408:	f9000001 	str	x1, [x0]
  41440c:	14000061 	b	414590 <main+0x6f8>
  414410:	d00000c0 	adrp	x0, 42e000 <_Znam@GLIBCXX_3.4>
  414414:	912da000 	add	x0, x0, #0xb68
  414418:	90ffffe1 	adrp	x1, 410000 <_Z14STREAM_copy_64PdS_PlPKi+0x120>
  41441c:	9130c021 	add	x1, x1, #0xc30
  414420:	f9000001 	str	x1, [x0]
  414424:	1400005b 	b	414590 <main+0x6f8>
  414428:	d00000c0 	adrp	x0, 42e000 <_Znam@GLIBCXX_3.4>
  41442c:	912da000 	add	x0, x0, #0xb68
  414430:	90ffffe1 	adrp	x1, 410000 <_Z14STREAM_copy_64PdS_PlPKi+0x120>
  414434:	913e1021 	add	x1, x1, #0xf84
  414438:	f9000001 	str	x1, [x0]
  41443c:	14000055 	b	414590 <main+0x6f8>
  414440:	d00000c0 	adrp	x0, 42e000 <_Znam@GLIBCXX_3.4>
  414444:	912da000 	add	x0, x0, #0xb68
  414448:	b0ffffe1 	adrp	x1, 411000 <_Z14STREAM_copy_74PdS_PlPKi+0x7c>
  41444c:	910b6021 	add	x1, x1, #0x2d8
  414450:	f9000001 	str	x1, [x0]
  414454:	1400004f 	b	414590 <main+0x6f8>
  414458:	d00000c0 	adrp	x0, 42e000 <_Znam@GLIBCXX_3.4>
  41445c:	912da000 	add	x0, x0, #0xb68
  414460:	b0ffffe1 	adrp	x1, 411000 <_Z14STREAM_copy_74PdS_PlPKi+0x7c>
  414464:	9118b021 	add	x1, x1, #0x62c
  414468:	f9000001 	str	x1, [x0]
  41446c:	14000049 	b	414590 <main+0x6f8>
  414470:	d00000c0 	adrp	x0, 42e000 <_Znam@GLIBCXX_3.4>
  414474:	912da000 	add	x0, x0, #0xb68
  414478:	b0ffffe1 	adrp	x1, 411000 <_Z14STREAM_copy_74PdS_PlPKi+0x7c>
  41447c:	91260021 	add	x1, x1, #0x980
  414480:	f9000001 	str	x1, [x0]
  414484:	14000043 	b	414590 <main+0x6f8>
  414488:	d00000c0 	adrp	x0, 42e000 <_Znam@GLIBCXX_3.4>
  41448c:	912da000 	add	x0, x0, #0xb68
  414490:	b0ffffe1 	adrp	x1, 411000 <_Z14STREAM_copy_74PdS_PlPKi+0x7c>
  414494:	91335021 	add	x1, x1, #0xcd4
  414498:	f9000001 	str	x1, [x0]
  41449c:	1400003d 	b	414590 <main+0x6f8>
  4144a0:	d00000c0 	adrp	x0, 42e000 <_Znam@GLIBCXX_3.4>
  4144a4:	912da000 	add	x0, x0, #0xb68
  4144a8:	d0ffffe1 	adrp	x1, 412000 <_Z14STREAM_copy_82PdS_PlPKi+0x32c>
  4144ac:	9100a021 	add	x1, x1, #0x28
  4144b0:	f9000001 	str	x1, [x0]
  4144b4:	14000037 	b	414590 <main+0x6f8>
  4144b8:	d00000c0 	adrp	x0, 42e000 <_Znam@GLIBCXX_3.4>
  4144bc:	912da000 	add	x0, x0, #0xb68
  4144c0:	d0ffffe1 	adrp	x1, 412000 <_Z14STREAM_copy_82PdS_PlPKi+0x32c>
  4144c4:	910df021 	add	x1, x1, #0x37c
  4144c8:	f9000001 	str	x1, [x0]
  4144cc:	14000031 	b	414590 <main+0x6f8>
  4144d0:	d00000c0 	adrp	x0, 42e000 <_Znam@GLIBCXX_3.4>
  4144d4:	912da000 	add	x0, x0, #0xb68
  4144d8:	d0ffffe1 	adrp	x1, 412000 <_Z14STREAM_copy_82PdS_PlPKi+0x32c>
  4144dc:	911b4021 	add	x1, x1, #0x6d0
  4144e0:	f9000001 	str	x1, [x0]
  4144e4:	1400002b 	b	414590 <main+0x6f8>
  4144e8:	d00000c0 	adrp	x0, 42e000 <_Znam@GLIBCXX_3.4>
  4144ec:	912da000 	add	x0, x0, #0xb68
  4144f0:	d0ffffe1 	adrp	x1, 412000 <_Z14STREAM_copy_82PdS_PlPKi+0x32c>
  4144f4:	91289021 	add	x1, x1, #0xa24
  4144f8:	f9000001 	str	x1, [x0]
  4144fc:	14000025 	b	414590 <main+0x6f8>
  414500:	d00000c0 	adrp	x0, 42e000 <_Znam@GLIBCXX_3.4>
  414504:	912da000 	add	x0, x0, #0xb68
  414508:	d0ffffe1 	adrp	x1, 412000 <_Z14STREAM_copy_82PdS_PlPKi+0x32c>
  41450c:	9135e021 	add	x1, x1, #0xd78
  414510:	f9000001 	str	x1, [x0]
  414514:	1400001f 	b	414590 <main+0x6f8>
  414518:	d00000c0 	adrp	x0, 42e000 <_Znam@GLIBCXX_3.4>
  41451c:	912da000 	add	x0, x0, #0xb68
  414520:	f0ffffe1 	adrp	x1, 413000 <_Z14STREAM_copy_92PdS_PlPKi+0x288>
  414524:	91033021 	add	x1, x1, #0xcc
  414528:	f9000001 	str	x1, [x0]
  41452c:	14000019 	b	414590 <main+0x6f8>
  414530:	d00000c0 	adrp	x0, 42e000 <_Znam@GLIBCXX_3.4>
  414534:	912da000 	add	x0, x0, #0xb68
  414538:	f0ffffe1 	adrp	x1, 413000 <_Z14STREAM_copy_92PdS_PlPKi+0x288>
  41453c:	91108021 	add	x1, x1, #0x420
  414540:	f9000001 	str	x1, [x0]
  414544:	14000013 	b	414590 <main+0x6f8>
  414548:	d00000c0 	adrp	x0, 42e000 <_Znam@GLIBCXX_3.4>
  41454c:	912da000 	add	x0, x0, #0xb68
  414550:	f0ffffe1 	adrp	x1, 413000 <_Z14STREAM_copy_92PdS_PlPKi+0x288>
  414554:	911dd021 	add	x1, x1, #0x774
  414558:	f9000001 	str	x1, [x0]
  41455c:	1400000d 	b	414590 <main+0x6f8>
  414560:	d00000c0 	adrp	x0, 42e000 <_Znam@GLIBCXX_3.4>
  414564:	912da000 	add	x0, x0, #0xb68
  414568:	f0ffffe1 	adrp	x1, 413000 <_Z14STREAM_copy_92PdS_PlPKi+0x288>
  41456c:	912b2021 	add	x1, x1, #0xac8
  414570:	f9000001 	str	x1, [x0]
  414574:	14000007 	b	414590 <main+0x6f8>
  414578:	d00000c0 	adrp	x0, 42e000 <_Znam@GLIBCXX_3.4>
  41457c:	912da000 	add	x0, x0, #0xb68
  414580:	d0ffffc1 	adrp	x1, 40e000 <_Z14STREAM_copy_44PdS_PlPKi+0x294>
  414584:	911da021 	add	x1, x1, #0x768
  414588:	f9000001 	str	x1, [x0]
  41458c:	d503201f 	nop
  414590:	b9402fe0 	ldr	w0, [sp,#44]
  414594:	52810001 	mov	w1, #0x800                 	// #2048
  414598:	72a5f5e1 	movk	w1, #0x2faf, lsl #16
  41459c:	1ac00c20 	sdiv	w0, w1, w0
  4145a0:	93407c01 	sxtw	x1, w0
  4145a4:	d00000c0 	adrp	x0, 42e000 <_Znam@GLIBCXX_3.4>
  4145a8:	912d4000 	add	x0, x0, #0xb50
  4145ac:	f9000001 	str	x1, [x0]
  4145b0:	d00000c0 	adrp	x0, 42e000 <_Znam@GLIBCXX_3.4>
  4145b4:	912d8000 	add	x0, x0, #0xb60
  4145b8:	d2800801 	mov	x1, #0x40                  	// #64
  4145bc:	f9000001 	str	x1, [x0]
  4145c0:	d00000c0 	adrp	x0, 42e000 <_Znam@GLIBCXX_3.4>
  4145c4:	912d4000 	add	x0, x0, #0xb50
  4145c8:	f9400000 	ldr	x0, [x0]
  4145cc:	d37df000 	lsl	x0, x0, #3
  4145d0:	aa0003e1 	mov	x1, x0
  4145d4:	d00000c0 	adrp	x0, 42e000 <_Znam@GLIBCXX_3.4>
  4145d8:	912d6000 	add	x0, x0, #0xb58
  4145dc:	f9000001 	str	x1, [x0]
  4145e0:	d00000c0 	adrp	x0, 42e000 <_Znam@GLIBCXX_3.4>
  4145e4:	912d8000 	add	x0, x0, #0xb60
  4145e8:	f9400000 	ldr	x0, [x0]
  4145ec:	aa0003e1 	mov	x1, x0
  4145f0:	d00000c0 	adrp	x0, 42e000 <_Znam@GLIBCXX_3.4>
  4145f4:	912d6000 	add	x0, x0, #0xb58
  4145f8:	f9400000 	ldr	x0, [x0]
  4145fc:	aa0003e2 	mov	x2, x0
  414600:	d00000c0 	adrp	x0, 42e000 <_Znam@GLIBCXX_3.4>
  414604:	912d0000 	add	x0, x0, #0xb40
  414608:	97ffd24a 	bl	408f30 <posix_memalign@plt>
  41460c:	b90037e0 	str	w0, [sp,#52]
  414610:	b94037e0 	ldr	w0, [sp,#52]
  414614:	7100001f 	cmp	w0, #0x0
  414618:	540001a0 	b.eq	41464c <main+0x7b4>
  41461c:	b9402be0 	ldr	w0, [sp,#40]
  414620:	b94037e2 	ldr	w2, [sp,#52]
  414624:	2a0003e1 	mov	w1, w0
  414628:	b0000020 	adrp	x0, 419000 <_IO_stdin_used+0x8>
  41462c:	910da000 	add	x0, x0, #0x368
  414630:	97ffd3c8 	bl	409550 <printf@plt>
  414634:	52800041 	mov	w1, #0x2                   	// #2
  414638:	d00000c0 	adrp	x0, 42e000 <_Znam@GLIBCXX_3.4>
  41463c:	91182000 	add	x0, x0, #0x608
  414640:	97ffd244 	bl	408f50 <MPI_Abort@plt>
  414644:	52800020 	mov	w0, #0x1                   	// #1
  414648:	97ffd35a 	bl	4093b0 <exit@plt>
  41464c:	d00000c0 	adrp	x0, 42e000 <_Znam@GLIBCXX_3.4>
  414650:	912d8000 	add	x0, x0, #0xb60
  414654:	f9400000 	ldr	x0, [x0]
  414658:	aa0003e1 	mov	x1, x0
  41465c:	d00000c0 	adrp	x0, 42e000 <_Znam@GLIBCXX_3.4>
  414660:	912d6000 	add	x0, x0, #0xb58
  414664:	f9400000 	ldr	x0, [x0]
  414668:	aa0003e2 	mov	x2, x0
  41466c:	d00000c0 	adrp	x0, 42e000 <_Znam@GLIBCXX_3.4>
  414670:	912d2000 	add	x0, x0, #0xb48
  414674:	97ffd22f 	bl	408f30 <posix_memalign@plt>
  414678:	b90037e0 	str	w0, [sp,#52]
  41467c:	b94037e0 	ldr	w0, [sp,#52]
  414680:	7100001f 	cmp	w0, #0x0
  414684:	540001a0 	b.eq	4146b8 <main+0x820>
  414688:	b9402be0 	ldr	w0, [sp,#40]
  41468c:	b94037e2 	ldr	w2, [sp,#52]
  414690:	2a0003e1 	mov	w1, w0
  414694:	b0000020 	adrp	x0, 419000 <_IO_stdin_used+0x8>
  414698:	910ea000 	add	x0, x0, #0x3a8
  41469c:	97ffd3ad 	bl	409550 <printf@plt>
  4146a0:	52800041 	mov	w1, #0x2                   	// #2
  4146a4:	d00000c0 	adrp	x0, 42e000 <_Znam@GLIBCXX_3.4>
  4146a8:	91182000 	add	x0, x0, #0x608
  4146ac:	97ffd229 	bl	408f50 <MPI_Abort@plt>
  4146b0:	52800020 	mov	w0, #0x1                   	// #1
  4146b4:	97ffd33f 	bl	4093b0 <exit@plt>
  4146b8:	b9402be0 	ldr	w0, [sp,#40]
  4146bc:	7100001f 	cmp	w0, #0x0
  4146c0:	54001281 	b.ne	414910 <main+0xa78>
  4146c4:	b0000020 	adrp	x0, 419000 <_IO_stdin_used+0x8>
  4146c8:	910fa000 	add	x0, x0, #0x3e8
  4146cc:	97ffd0ed 	bl	408a80 <puts@plt>
  4146d0:	b0000020 	adrp	x0, 419000 <_IO_stdin_used+0x8>
  4146d4:	9110a000 	add	x0, x0, #0x428
  4146d8:	97ffd0ea 	bl	408a80 <puts@plt>
  4146dc:	b0000020 	adrp	x0, 419000 <_IO_stdin_used+0x8>
  4146e0:	910fa000 	add	x0, x0, #0x3e8
  4146e4:	97ffd0e7 	bl	408a80 <puts@plt>
  4146e8:	52800100 	mov	w0, #0x8                   	// #8
  4146ec:	b90033e0 	str	w0, [sp,#48]
  4146f0:	b94033e1 	ldr	w1, [sp,#48]
  4146f4:	b0000020 	adrp	x0, 419000 <_IO_stdin_used+0x8>
  4146f8:	91114000 	add	x0, x0, #0x450
  4146fc:	97ffd395 	bl	409550 <printf@plt>
  414700:	b0000020 	adrp	x0, 419000 <_IO_stdin_used+0x8>
  414704:	910fa000 	add	x0, x0, #0x3e8
  414708:	97ffd0de 	bl	408a80 <puts@plt>
  41470c:	d2810001 	mov	x1, #0x800                 	// #2048
  414710:	f2a5f5e1 	movk	x1, #0x2faf, lsl #16
  414714:	b0000020 	adrp	x0, 419000 <_IO_stdin_used+0x8>
  414718:	91120000 	add	x0, x0, #0x480
  41471c:	97ffd38d 	bl	409550 <printf@plt>
  414720:	b94033e0 	ldr	w0, [sp,#48]
  414724:	1e620000 	scvtf	d0, w0
  414728:	d2daf080 	mov	x0, #0xd78400000000        	// #236961935654912
  41472c:	f2e810e0 	movk	x0, #0x4087, lsl #48
  414730:	9e670001 	fmov	d1, x0
  414734:	1e610802 	fmul	d2, d0, d1
  414738:	b94033e0 	ldr	w0, [sp,#48]
  41473c:	1e620000 	scvtf	d0, w0
  414740:	d2daf080 	mov	x0, #0xd78400000000        	// #236961935654912
  414744:	f2e7fce0 	movk	x0, #0x3fe7, lsl #48
  414748:	9e670001 	fmov	d1, x0
  41474c:	1e610800 	fmul	d0, d0, d1
  414750:	1e604001 	fmov	d1, d0
  414754:	1e604040 	fmov	d0, d2
  414758:	b0000020 	adrp	x0, 419000 <_IO_stdin_used+0x8>
  41475c:	9112c000 	add	x0, x0, #0x4b0
  414760:	97ffd37c 	bl	409550 <printf@plt>
  414764:	b94033e0 	ldr	w0, [sp,#48]
  414768:	1e620000 	scvtf	d0, w0
  41476c:	1e602800 	fadd	d0, d0, d0
  414770:	d2daf080 	mov	x0, #0xd78400000000        	// #236961935654912
  414774:	f2e810e0 	movk	x0, #0x4087, lsl #48
  414778:	9e670001 	fmov	d1, x0
  41477c:	1e610802 	fmul	d2, d0, d1
  414780:	b94033e0 	ldr	w0, [sp,#48]
  414784:	1e620000 	scvtf	d0, w0
  414788:	1e602800 	fadd	d0, d0, d0
  41478c:	d2daf080 	mov	x0, #0xd78400000000        	// #236961935654912
  414790:	f2e7fce0 	movk	x0, #0x3fe7, lsl #48
  414794:	9e670001 	fmov	d1, x0
  414798:	1e610800 	fmul	d0, d0, d1
  41479c:	1e604001 	fmov	d1, d0
  4147a0:	1e604040 	fmov	d0, d2
  4147a4:	b0000020 	adrp	x0, 419000 <_IO_stdin_used+0x8>
  4147a8:	9113c000 	add	x0, x0, #0x4f0
  4147ac:	97ffd369 	bl	409550 <printf@plt>
  4147b0:	b9402fe0 	ldr	w0, [sp,#44]
  4147b4:	2a0003e1 	mov	w1, w0
  4147b8:	b0000020 	adrp	x0, 419000 <_IO_stdin_used+0x8>
  4147bc:	9114c000 	add	x0, x0, #0x530
  4147c0:	97ffd364 	bl	409550 <printf@plt>
  4147c4:	d00000c0 	adrp	x0, 42e000 <_Znam@GLIBCXX_3.4>
  4147c8:	912d4000 	add	x0, x0, #0xb50
  4147cc:	f9400000 	ldr	x0, [x0]
  4147d0:	aa0003e1 	mov	x1, x0
  4147d4:	b0000020 	adrp	x0, 419000 <_IO_stdin_used+0x8>
  4147d8:	91158000 	add	x0, x0, #0x560
  4147dc:	97ffd35d 	bl	409550 <printf@plt>
  4147e0:	b94033e0 	ldr	w0, [sp,#48]
  4147e4:	1e620001 	scvtf	d1, w0
  4147e8:	d00000c0 	adrp	x0, 42e000 <_Znam@GLIBCXX_3.4>
  4147ec:	912d4000 	add	x0, x0, #0xb50
  4147f0:	fd400000 	ldr	d0, [x0]
  4147f4:	5e61d800 	scvtf	d0, d0
  4147f8:	d2e81200 	mov	x0, #0x4090000000000000    	// #4652218415073722368
  4147fc:	9e670002 	fmov	d2, x0
  414800:	1e621800 	fdiv	d0, d0, d2
  414804:	d2e81200 	mov	x0, #0x4090000000000000    	// #4652218415073722368
  414808:	9e670002 	fmov	d2, x0
  41480c:	1e621800 	fdiv	d0, d0, d2
  414810:	1e600822 	fmul	d2, d1, d0
  414814:	b94033e0 	ldr	w0, [sp,#48]
  414818:	1e620001 	scvtf	d1, w0
  41481c:	d00000c0 	adrp	x0, 42e000 <_Znam@GLIBCXX_3.4>
  414820:	912d4000 	add	x0, x0, #0xb50
  414824:	fd400000 	ldr	d0, [x0]
  414828:	5e61d800 	scvtf	d0, d0
  41482c:	d2e81200 	mov	x0, #0x4090000000000000    	// #4652218415073722368
  414830:	9e670003 	fmov	d3, x0
  414834:	1e631800 	fdiv	d0, d0, d3
  414838:	d2e81200 	mov	x0, #0x4090000000000000    	// #4652218415073722368
  41483c:	9e670003 	fmov	d3, x0
  414840:	1e631800 	fdiv	d0, d0, d3
  414844:	d2e81200 	mov	x0, #0x4090000000000000    	// #4652218415073722368
  414848:	9e670003 	fmov	d3, x0
  41484c:	1e631800 	fdiv	d0, d0, d3
  414850:	1e600820 	fmul	d0, d1, d0
  414854:	1e604001 	fmov	d1, d0
  414858:	1e604040 	fmov	d0, d2
  41485c:	b0000020 	adrp	x0, 419000 <_IO_stdin_used+0x8>
  414860:	91164000 	add	x0, x0, #0x590
  414864:	97ffd33b 	bl	409550 <printf@plt>
  414868:	b94033e0 	ldr	w0, [sp,#48]
  41486c:	1e620000 	scvtf	d0, w0
  414870:	1e602801 	fadd	d1, d0, d0
  414874:	d00000c0 	adrp	x0, 42e000 <_Znam@GLIBCXX_3.4>
  414878:	912d4000 	add	x0, x0, #0xb50
  41487c:	fd400000 	ldr	d0, [x0]
  414880:	5e61d800 	scvtf	d0, d0
  414884:	d2e81200 	mov	x0, #0x4090000000000000    	// #4652218415073722368
  414888:	9e670002 	fmov	d2, x0
  41488c:	1e621800 	fdiv	d0, d0, d2
  414890:	d2e81200 	mov	x0, #0x4090000000000000    	// #4652218415073722368
  414894:	9e670002 	fmov	d2, x0
  414898:	1e621800 	fdiv	d0, d0, d2
  41489c:	1e600822 	fmul	d2, d1, d0
  4148a0:	b94033e0 	ldr	w0, [sp,#48]
  4148a4:	1e620000 	scvtf	d0, w0
  4148a8:	1e602801 	fadd	d1, d0, d0
  4148ac:	d00000c0 	adrp	x0, 42e000 <_Znam@GLIBCXX_3.4>
  4148b0:	912d4000 	add	x0, x0, #0xb50
  4148b4:	fd400000 	ldr	d0, [x0]
  4148b8:	5e61d800 	scvtf	d0, d0
  4148bc:	d2e81200 	mov	x0, #0x4090000000000000    	// #4652218415073722368
  4148c0:	9e670003 	fmov	d3, x0
  4148c4:	1e631800 	fdiv	d0, d0, d3
  4148c8:	d2e81200 	mov	x0, #0x4090000000000000    	// #4652218415073722368
  4148cc:	9e670003 	fmov	d3, x0
  4148d0:	1e631800 	fdiv	d0, d0, d3
  4148d4:	d2e81200 	mov	x0, #0x4090000000000000    	// #4652218415073722368
  4148d8:	9e670003 	fmov	d3, x0
  4148dc:	1e631800 	fdiv	d0, d0, d3
  4148e0:	1e600820 	fmul	d0, d1, d0
  4148e4:	1e604001 	fmov	d1, d0
  4148e8:	1e604040 	fmov	d0, d2
  4148ec:	b0000020 	adrp	x0, 419000 <_IO_stdin_used+0x8>
  4148f0:	91174000 	add	x0, x0, #0x5d0
  4148f4:	97ffd317 	bl	409550 <printf@plt>
  4148f8:	b0000020 	adrp	x0, 419000 <_IO_stdin_used+0x8>
  4148fc:	910fa000 	add	x0, x0, #0x3e8
  414900:	97ffd060 	bl	408a80 <puts@plt>
  414904:	b0000020 	adrp	x0, 419000 <_IO_stdin_used+0x8>
  414908:	91182000 	add	x0, x0, #0x608
  41490c:	97ffd05d 	bl	408a80 <puts@plt>
  414910:	f90023ff 	str	xzr, [sp,#64]
  414914:	14000014 	b	414964 <main+0xacc>
  414918:	d00000c0 	adrp	x0, 42e000 <_Znam@GLIBCXX_3.4>
  41491c:	912d0000 	add	x0, x0, #0xb40
  414920:	f9400001 	ldr	x1, [x0]
  414924:	f94023e0 	ldr	x0, [sp,#64]
  414928:	d37df000 	lsl	x0, x0, #3
  41492c:	8b000020 	add	x0, x1, x0
  414930:	1e6e1000 	fmov	d0, #1.000000000000000000e+00
  414934:	fd000000 	str	d0, [x0]
  414938:	d00000c0 	adrp	x0, 42e000 <_Znam@GLIBCXX_3.4>
  41493c:	912d2000 	add	x0, x0, #0xb48
  414940:	f9400001 	ldr	x1, [x0]
  414944:	f94023e0 	ldr	x0, [sp,#64]
  414948:	d37df000 	lsl	x0, x0, #3
  41494c:	8b000020 	add	x0, x1, x0
  414950:	1e601000 	fmov	d0, #2.000000000000000000e+00
  414954:	fd000000 	str	d0, [x0]
  414958:	f94023e0 	ldr	x0, [sp,#64]
  41495c:	91000400 	add	x0, x0, #0x1
  414960:	f90023e0 	str	x0, [sp,#64]
  414964:	d00000c0 	adrp	x0, 42e000 <_Znam@GLIBCXX_3.4>
  414968:	912d4000 	add	x0, x0, #0xb50
  41496c:	f9400000 	ldr	x0, [x0]
  414970:	f94023e1 	ldr	x1, [sp,#64]
  414974:	eb00003f 	cmp	x1, x0
  414978:	54fffd0b 	b.lt	414918 <main+0xa80>
  41497c:	d00000c0 	adrp	x0, 42e000 <_Znam@GLIBCXX_3.4>
  414980:	912da000 	add	x0, x0, #0xb68
  414984:	f9400004 	ldr	x4, [x0]
  414988:	d00000c0 	adrp	x0, 42e000 <_Znam@GLIBCXX_3.4>
  41498c:	912d0000 	add	x0, x0, #0xb40
  414990:	f9400005 	ldr	x5, [x0]
  414994:	d00000c0 	adrp	x0, 42e000 <_Znam@GLIBCXX_3.4>
  414998:	912d2000 	add	x0, x0, #0xb48
  41499c:	f9400001 	ldr	x1, [x0]
  4149a0:	910093e0 	add	x0, sp, #0x24
  4149a4:	aa0003e3 	mov	x3, x0
  4149a8:	d00000c0 	adrp	x0, 42e000 <_Znam@GLIBCXX_3.4>
  4149ac:	912d4002 	add	x2, x0, #0xb50
  4149b0:	aa0503e0 	mov	x0, x5
  4149b4:	d63f0080 	blr	x4
  4149b8:	17fffff1 	b	41497c <main+0xae4>

00000000004149bc <_Z41__static_initialization_and_destruction_0ii>:
  4149bc:	a9be7bfd 	stp	x29, x30, [sp,#-32]!
  4149c0:	910003fd 	mov	x29, sp
  4149c4:	b9001fe0 	str	w0, [sp,#28]
  4149c8:	b9001be1 	str	w1, [sp,#24]
  4149cc:	b9401fe0 	ldr	w0, [sp,#28]
  4149d0:	7100041f 	cmp	w0, #0x1
  4149d4:	540001e1 	b.ne	414a10 <_Z41__static_initialization_and_destruction_0ii+0x54>
  4149d8:	b9401be1 	ldr	w1, [sp,#24]
  4149dc:	529fffe0 	mov	w0, #0xffff                	// #65535
  4149e0:	6b00003f 	cmp	w1, w0
  4149e4:	54000161 	b.ne	414a10 <_Z41__static_initialization_and_destruction_0ii+0x54>
  4149e8:	d00000c0 	adrp	x0, 42e000 <_Znam@GLIBCXX_3.4>
  4149ec:	912dc000 	add	x0, x0, #0xb70
  4149f0:	97ffd218 	bl	409250 <_ZNSt8ios_base4InitC1Ev@plt>
  4149f4:	d00000c0 	adrp	x0, 42e000 <_Znam@GLIBCXX_3.4>
  4149f8:	9117c002 	add	x2, x0, #0x5f0
  4149fc:	d00000c0 	adrp	x0, 42e000 <_Znam@GLIBCXX_3.4>
  414a00:	912dc001 	add	x1, x0, #0xb70
  414a04:	b0ffffa0 	adrp	x0, 409000 <_ZN3MPI3Win4FreeEv@plt>
  414a08:	9115c000 	add	x0, x0, #0x570
  414a0c:	97ffd181 	bl	409010 <__cxa_atexit@plt>
  414a10:	d503201f 	nop
  414a14:	a8c27bfd 	ldp	x29, x30, [sp],#32
  414a18:	d65f03c0 	ret

0000000000414a1c <_GLOBAL__sub_I_a>:
  414a1c:	a9bf7bfd 	stp	x29, x30, [sp,#-16]!
  414a20:	910003fd 	mov	x29, sp
  414a24:	529fffe1 	mov	w1, #0xffff                	// #65535
  414a28:	52800020 	mov	w0, #0x1                   	// #1
  414a2c:	97ffffe4 	bl	4149bc <_Z41__static_initialization_and_destruction_0ii>
  414a30:	a8c17bfd 	ldp	x29, x30, [sp],#16
  414a34:	d65f03c0 	ret

0000000000414a38 <_ZN3MPI8DatatypeD1Ev>:
  414a38:	d10043ff 	sub	sp, sp, #0x10
  414a3c:	f90007e0 	str	x0, [sp,#8]
  414a40:	d0000020 	adrp	x0, 41a000 <_ZTVN3MPI8CartcommE+0x188>
  414a44:	9118c001 	add	x1, x0, #0x630
  414a48:	f94007e0 	ldr	x0, [sp,#8]
  414a4c:	f9000001 	str	x1, [x0]
  414a50:	d503201f 	nop
  414a54:	910043ff 	add	sp, sp, #0x10
  414a58:	d65f03c0 	ret

0000000000414a5c <_ZN3MPI8DatatypeD0Ev>:
  414a5c:	a9be7bfd 	stp	x29, x30, [sp,#-32]!
  414a60:	910003fd 	mov	x29, sp
  414a64:	f9000fe0 	str	x0, [sp,#24]
  414a68:	f9400fe0 	ldr	x0, [sp,#24]
  414a6c:	97fffff3 	bl	414a38 <_ZN3MPI8DatatypeD1Ev>
  414a70:	d2800201 	mov	x1, #0x10                  	// #16
  414a74:	f9400fe0 	ldr	x0, [sp,#24]
  414a78:	97ffd12a 	bl	408f20 <_ZdlPvm@plt>
  414a7c:	a8c27bfd 	ldp	x29, x30, [sp],#32
  414a80:	d65f03c0 	ret

0000000000414a84 <_ZN3MPI8DatatypeC1EP15ompi_datatype_t>:
  414a84:	d10043ff 	sub	sp, sp, #0x10
  414a88:	f90007e0 	str	x0, [sp,#8]
  414a8c:	f90003e1 	str	x1, [sp]
  414a90:	d0000020 	adrp	x0, 41a000 <_ZTVN3MPI8CartcommE+0x188>
  414a94:	9118c001 	add	x1, x0, #0x630
  414a98:	f94007e0 	ldr	x0, [sp,#8]
  414a9c:	f9000001 	str	x1, [x0]
  414aa0:	f94007e0 	ldr	x0, [sp,#8]
  414aa4:	f94003e1 	ldr	x1, [sp]
  414aa8:	f9000401 	str	x1, [x0,#8]
  414aac:	d503201f 	nop
  414ab0:	910043ff 	add	sp, sp, #0x10
  414ab4:	d65f03c0 	ret

0000000000414ab8 <_ZN3MPI8DatatypeaSERKP15ompi_datatype_t>:
  414ab8:	d10043ff 	sub	sp, sp, #0x10
  414abc:	f90007e0 	str	x0, [sp,#8]
  414ac0:	f90003e1 	str	x1, [sp]
  414ac4:	f94003e0 	ldr	x0, [sp]
  414ac8:	f9400001 	ldr	x1, [x0]
  414acc:	f94007e0 	ldr	x0, [sp,#8]
  414ad0:	f9000401 	str	x1, [x0,#8]
  414ad4:	f94007e0 	ldr	x0, [sp,#8]
  414ad8:	910043ff 	add	sp, sp, #0x10
  414adc:	d65f03c0 	ret

0000000000414ae0 <_ZNK3MPI8DatatypecvP15ompi_datatype_tEv>:
  414ae0:	d10043ff 	sub	sp, sp, #0x10
  414ae4:	f90007e0 	str	x0, [sp,#8]
  414ae8:	f94007e0 	ldr	x0, [sp,#8]
  414aec:	f9400400 	ldr	x0, [x0,#8]
  414af0:	910043ff 	add	sp, sp, #0x10
  414af4:	d65f03c0 	ret

0000000000414af8 <_ZN3MPI6StatusD1Ev>:
  414af8:	d10043ff 	sub	sp, sp, #0x10
  414afc:	f90007e0 	str	x0, [sp,#8]
  414b00:	b0000020 	adrp	x0, 419000 <_IO_stdin_used+0x8>
  414b04:	9123e001 	add	x1, x0, #0x8f8
  414b08:	f94007e0 	ldr	x0, [sp,#8]
  414b0c:	f9000001 	str	x1, [x0]
  414b10:	d503201f 	nop
  414b14:	910043ff 	add	sp, sp, #0x10
  414b18:	d65f03c0 	ret

0000000000414b1c <_ZN3MPI6StatusD0Ev>:
  414b1c:	a9be7bfd 	stp	x29, x30, [sp,#-32]!
  414b20:	910003fd 	mov	x29, sp
  414b24:	f9000fe0 	str	x0, [sp,#24]
  414b28:	f9400fe0 	ldr	x0, [sp,#24]
  414b2c:	97fffff3 	bl	414af8 <_ZN3MPI6StatusD1Ev>
  414b30:	d2800401 	mov	x1, #0x20                  	// #32
  414b34:	f9400fe0 	ldr	x0, [sp,#24]
  414b38:	97ffd0fa 	bl	408f20 <_ZdlPvm@plt>
  414b3c:	a8c27bfd 	ldp	x29, x30, [sp],#32
  414b40:	d65f03c0 	ret

0000000000414b44 <_ZN3MPI6StatusaSERK20ompi_status_public_t>:
  414b44:	d10043ff 	sub	sp, sp, #0x10
  414b48:	f90007e0 	str	x0, [sp,#8]
  414b4c:	f90003e1 	str	x1, [sp]
  414b50:	f94007e0 	ldr	x0, [sp,#8]
  414b54:	91002001 	add	x1, x0, #0x8
  414b58:	f94003e0 	ldr	x0, [sp]
  414b5c:	aa0103e2 	mov	x2, x1
  414b60:	aa0003e3 	mov	x3, x0
  414b64:	a9400460 	ldp	x0, x1, [x3]
  414b68:	a9000440 	stp	x0, x1, [x2]
  414b6c:	f9400860 	ldr	x0, [x3,#16]
  414b70:	f9000840 	str	x0, [x2,#16]
  414b74:	f94007e0 	ldr	x0, [sp,#8]
  414b78:	910043ff 	add	sp, sp, #0x10
  414b7c:	d65f03c0 	ret

0000000000414b80 <_ZN3MPI7RequestD1Ev>:
  414b80:	d10043ff 	sub	sp, sp, #0x10
  414b84:	f90007e0 	str	x0, [sp,#8]
  414b88:	d0000020 	adrp	x0, 41a000 <_ZTVN3MPI8CartcommE+0x188>
  414b8c:	91174001 	add	x1, x0, #0x5d0
  414b90:	f94007e0 	ldr	x0, [sp,#8]
  414b94:	f9000001 	str	x1, [x0]
  414b98:	d503201f 	nop
  414b9c:	910043ff 	add	sp, sp, #0x10
  414ba0:	d65f03c0 	ret

0000000000414ba4 <_ZN3MPI7RequestD0Ev>:
  414ba4:	a9be7bfd 	stp	x29, x30, [sp,#-32]!
  414ba8:	910003fd 	mov	x29, sp
  414bac:	f9000fe0 	str	x0, [sp,#24]
  414bb0:	f9400fe0 	ldr	x0, [sp,#24]
  414bb4:	97fffff3 	bl	414b80 <_ZN3MPI7RequestD1Ev>
  414bb8:	d2800201 	mov	x1, #0x10                  	// #16
  414bbc:	f9400fe0 	ldr	x0, [sp,#24]
  414bc0:	97ffd0d8 	bl	408f20 <_ZdlPvm@plt>
  414bc4:	a8c27bfd 	ldp	x29, x30, [sp],#32
  414bc8:	d65f03c0 	ret

0000000000414bcc <_ZN3MPI7RequestC1EP14ompi_request_t>:
  414bcc:	d10043ff 	sub	sp, sp, #0x10
  414bd0:	f90007e0 	str	x0, [sp,#8]
  414bd4:	f90003e1 	str	x1, [sp]
  414bd8:	d0000020 	adrp	x0, 41a000 <_ZTVN3MPI8CartcommE+0x188>
  414bdc:	91174001 	add	x1, x0, #0x5d0
  414be0:	f94007e0 	ldr	x0, [sp,#8]
  414be4:	f9000001 	str	x1, [x0]
  414be8:	f94007e0 	ldr	x0, [sp,#8]
  414bec:	f94003e1 	ldr	x1, [sp]
  414bf0:	f9000401 	str	x1, [x0,#8]
  414bf4:	d503201f 	nop
  414bf8:	910043ff 	add	sp, sp, #0x10
  414bfc:	d65f03c0 	ret

0000000000414c00 <_ZN3MPI8PrequestC1ERKP14ompi_request_t>:
  414c00:	a9be7bfd 	stp	x29, x30, [sp,#-32]!
  414c04:	910003fd 	mov	x29, sp
  414c08:	f9000fe0 	str	x0, [sp,#24]
  414c0c:	f9000be1 	str	x1, [sp,#16]
  414c10:	f9400fe2 	ldr	x2, [sp,#24]
  414c14:	f9400be0 	ldr	x0, [sp,#16]
  414c18:	f9400000 	ldr	x0, [x0]
  414c1c:	aa0003e1 	mov	x1, x0
  414c20:	aa0203e0 	mov	x0, x2
  414c24:	97ffffea 	bl	414bcc <_ZN3MPI7RequestC1EP14ompi_request_t>
  414c28:	d0000020 	adrp	x0, 41a000 <_ZTVN3MPI8CartcommE+0x188>
  414c2c:	9115a001 	add	x1, x0, #0x568
  414c30:	f9400fe0 	ldr	x0, [sp,#24]
  414c34:	f9000001 	str	x1, [x0]
  414c38:	d503201f 	nop
  414c3c:	a8c27bfd 	ldp	x29, x30, [sp],#32
  414c40:	d65f03c0 	ret

0000000000414c44 <_ZN3MPI8PrequestD1Ev>:
  414c44:	a9be7bfd 	stp	x29, x30, [sp,#-32]!
  414c48:	910003fd 	mov	x29, sp
  414c4c:	f9000fe0 	str	x0, [sp,#24]
  414c50:	d0000020 	adrp	x0, 41a000 <_ZTVN3MPI8CartcommE+0x188>
  414c54:	9115a001 	add	x1, x0, #0x568
  414c58:	f9400fe0 	ldr	x0, [sp,#24]
  414c5c:	f9000001 	str	x1, [x0]
  414c60:	f9400fe0 	ldr	x0, [sp,#24]
  414c64:	97ffffc7 	bl	414b80 <_ZN3MPI7RequestD1Ev>
  414c68:	d503201f 	nop
  414c6c:	a8c27bfd 	ldp	x29, x30, [sp],#32
  414c70:	d65f03c0 	ret

0000000000414c74 <_ZN3MPI8PrequestD0Ev>:
  414c74:	a9be7bfd 	stp	x29, x30, [sp,#-32]!
  414c78:	910003fd 	mov	x29, sp
  414c7c:	f9000fe0 	str	x0, [sp,#24]
  414c80:	f9400fe0 	ldr	x0, [sp,#24]
  414c84:	97fffff0 	bl	414c44 <_ZN3MPI8PrequestD1Ev>
  414c88:	d2800201 	mov	x1, #0x10                  	// #16
  414c8c:	f9400fe0 	ldr	x0, [sp,#24]
  414c90:	97ffd0a4 	bl	408f20 <_ZdlPvm@plt>
  414c94:	a8c27bfd 	ldp	x29, x30, [sp],#32
  414c98:	d65f03c0 	ret

0000000000414c9c <_ZN3MPI8GrequestD1Ev>:
  414c9c:	a9be7bfd 	stp	x29, x30, [sp,#-32]!
  414ca0:	910003fd 	mov	x29, sp
  414ca4:	f9000fe0 	str	x0, [sp,#24]
  414ca8:	d0000020 	adrp	x0, 41a000 <_ZTVN3MPI8CartcommE+0x188>
  414cac:	91140001 	add	x1, x0, #0x500
  414cb0:	f9400fe0 	ldr	x0, [sp,#24]
  414cb4:	f9000001 	str	x1, [x0]
  414cb8:	f9400fe0 	ldr	x0, [sp,#24]
  414cbc:	97ffffb1 	bl	414b80 <_ZN3MPI7RequestD1Ev>
  414cc0:	d503201f 	nop
  414cc4:	a8c27bfd 	ldp	x29, x30, [sp],#32
  414cc8:	d65f03c0 	ret

0000000000414ccc <_ZN3MPI8GrequestD0Ev>:
  414ccc:	a9be7bfd 	stp	x29, x30, [sp,#-32]!
  414cd0:	910003fd 	mov	x29, sp
  414cd4:	f9000fe0 	str	x0, [sp,#24]
  414cd8:	f9400fe0 	ldr	x0, [sp,#24]
  414cdc:	97fffff0 	bl	414c9c <_ZN3MPI8GrequestD1Ev>
  414ce0:	d2800201 	mov	x1, #0x10                  	// #16
  414ce4:	f9400fe0 	ldr	x0, [sp,#24]
  414ce8:	97ffd08e 	bl	408f20 <_ZdlPvm@plt>
  414cec:	a8c27bfd 	ldp	x29, x30, [sp],#32
  414cf0:	d65f03c0 	ret

0000000000414cf4 <_ZN3MPI5GroupC1EP12ompi_group_t>:
  414cf4:	d10043ff 	sub	sp, sp, #0x10
  414cf8:	f90007e0 	str	x0, [sp,#8]
  414cfc:	f90003e1 	str	x1, [sp]
  414d00:	b0000020 	adrp	x0, 419000 <_IO_stdin_used+0x8>
  414d04:	91276001 	add	x1, x0, #0x9d8
  414d08:	f94007e0 	ldr	x0, [sp,#8]
  414d0c:	f9000001 	str	x1, [x0]
  414d10:	f94007e0 	ldr	x0, [sp,#8]
  414d14:	f94003e1 	ldr	x1, [sp]
  414d18:	f9000401 	str	x1, [x0,#8]
  414d1c:	d503201f 	nop
  414d20:	910043ff 	add	sp, sp, #0x10
  414d24:	d65f03c0 	ret

0000000000414d28 <_ZN3MPI5GroupD1Ev>:
  414d28:	d10043ff 	sub	sp, sp, #0x10
  414d2c:	f90007e0 	str	x0, [sp,#8]
  414d30:	b0000020 	adrp	x0, 419000 <_IO_stdin_used+0x8>
  414d34:	91276001 	add	x1, x0, #0x9d8
  414d38:	f94007e0 	ldr	x0, [sp,#8]
  414d3c:	f9000001 	str	x1, [x0]
  414d40:	d503201f 	nop
  414d44:	910043ff 	add	sp, sp, #0x10
  414d48:	d65f03c0 	ret

0000000000414d4c <_ZN3MPI5GroupD0Ev>:
  414d4c:	a9be7bfd 	stp	x29, x30, [sp,#-32]!
  414d50:	910003fd 	mov	x29, sp
  414d54:	f9000fe0 	str	x0, [sp,#24]
  414d58:	f9400fe0 	ldr	x0, [sp,#24]
  414d5c:	97fffff3 	bl	414d28 <_ZN3MPI5GroupD1Ev>
  414d60:	d2800201 	mov	x1, #0x10                  	// #16
  414d64:	f9400fe0 	ldr	x0, [sp,#24]
  414d68:	97ffd06e 	bl	408f20 <_ZdlPvm@plt>
  414d6c:	a8c27bfd 	ldp	x29, x30, [sp],#32
  414d70:	d65f03c0 	ret

0000000000414d74 <_ZNK3MPI5GroupcvP12ompi_group_tEv>:
  414d74:	d10043ff 	sub	sp, sp, #0x10
  414d78:	f90007e0 	str	x0, [sp,#8]
  414d7c:	f94007e0 	ldr	x0, [sp,#8]
  414d80:	f9400400 	ldr	x0, [x0,#8]
  414d84:	910043ff 	add	sp, sp, #0x10
  414d88:	d65f03c0 	ret

0000000000414d8c <_ZN3MPI9Comm_NullC1EP19ompi_communicator_t>:
  414d8c:	d10043ff 	sub	sp, sp, #0x10
  414d90:	f90007e0 	str	x0, [sp,#8]
  414d94:	f90003e1 	str	x1, [sp]
  414d98:	d0000020 	adrp	x0, 41a000 <_ZTVN3MPI8CartcommE+0x188>
  414d9c:	911cc001 	add	x1, x0, #0x730
  414da0:	f94007e0 	ldr	x0, [sp,#8]
  414da4:	f9000001 	str	x1, [x0]
  414da8:	f94007e0 	ldr	x0, [sp,#8]
  414dac:	f94003e1 	ldr	x1, [sp]
  414db0:	f9000401 	str	x1, [x0,#8]
  414db4:	d503201f 	nop
  414db8:	910043ff 	add	sp, sp, #0x10
  414dbc:	d65f03c0 	ret

0000000000414dc0 <_ZN3MPI9Comm_NullD1Ev>:
  414dc0:	d10043ff 	sub	sp, sp, #0x10
  414dc4:	f90007e0 	str	x0, [sp,#8]
  414dc8:	d0000020 	adrp	x0, 41a000 <_ZTVN3MPI8CartcommE+0x188>
  414dcc:	911cc001 	add	x1, x0, #0x730
  414dd0:	f94007e0 	ldr	x0, [sp,#8]
  414dd4:	f9000001 	str	x1, [x0]
  414dd8:	d503201f 	nop
  414ddc:	910043ff 	add	sp, sp, #0x10
  414de0:	d65f03c0 	ret

0000000000414de4 <_ZN3MPI9Comm_NullD0Ev>:
  414de4:	a9be7bfd 	stp	x29, x30, [sp,#-32]!
  414de8:	910003fd 	mov	x29, sp
  414dec:	f9000fe0 	str	x0, [sp,#24]
  414df0:	f9400fe0 	ldr	x0, [sp,#24]
  414df4:	97fffff3 	bl	414dc0 <_ZN3MPI9Comm_NullD1Ev>
  414df8:	d2800201 	mov	x1, #0x10                  	// #16
  414dfc:	f9400fe0 	ldr	x0, [sp,#24]
  414e00:	97ffd048 	bl	408f20 <_ZdlPvm@plt>
  414e04:	a8c27bfd 	ldp	x29, x30, [sp],#32
  414e08:	d65f03c0 	ret

0000000000414e0c <_ZNK3MPI9Comm_NullcvP19ompi_communicator_tEv>:
  414e0c:	d10043ff 	sub	sp, sp, #0x10
  414e10:	f90007e0 	str	x0, [sp,#8]
  414e14:	f94007e0 	ldr	x0, [sp,#8]
  414e18:	f9400400 	ldr	x0, [x0,#8]
  414e1c:	910043ff 	add	sp, sp, #0x10
  414e20:	d65f03c0 	ret

0000000000414e24 <_ZN3MPI4CommC1EP19ompi_communicator_t>:
  414e24:	a9be7bfd 	stp	x29, x30, [sp,#-32]!
  414e28:	910003fd 	mov	x29, sp
  414e2c:	f9000fe0 	str	x0, [sp,#24]
  414e30:	f9000be1 	str	x1, [sp,#16]
  414e34:	f9400fe0 	ldr	x0, [sp,#24]
  414e38:	f9400be1 	ldr	x1, [sp,#16]
  414e3c:	97ffffd4 	bl	414d8c <_ZN3MPI9Comm_NullC1EP19ompi_communicator_t>
  414e40:	d0000020 	adrp	x0, 41a000 <_ZTVN3MPI8CartcommE+0x188>
  414e44:	910cc001 	add	x1, x0, #0x330
  414e48:	f9400fe0 	ldr	x0, [sp,#24]
  414e4c:	f9000001 	str	x1, [x0]
  414e50:	d503201f 	nop
  414e54:	a8c27bfd 	ldp	x29, x30, [sp],#32
  414e58:	d65f03c0 	ret

0000000000414e5c <_ZN3MPI3WinD1Ev>:
  414e5c:	d10043ff 	sub	sp, sp, #0x10
  414e60:	f90007e0 	str	x0, [sp,#8]
  414e64:	b0000020 	adrp	x0, 419000 <_IO_stdin_used+0x8>
  414e68:	911f6001 	add	x1, x0, #0x7d8
  414e6c:	f94007e0 	ldr	x0, [sp,#8]
  414e70:	f9000001 	str	x1, [x0]
  414e74:	d503201f 	nop
  414e78:	910043ff 	add	sp, sp, #0x10
  414e7c:	d65f03c0 	ret

0000000000414e80 <_ZN3MPI3WinD0Ev>:
  414e80:	a9be7bfd 	stp	x29, x30, [sp,#-32]!
  414e84:	910003fd 	mov	x29, sp
  414e88:	f9000fe0 	str	x0, [sp,#24]
  414e8c:	f9400fe0 	ldr	x0, [sp,#24]
  414e90:	97fffff3 	bl	414e5c <_ZN3MPI3WinD1Ev>
  414e94:	d2800201 	mov	x1, #0x10                  	// #16
  414e98:	f9400fe0 	ldr	x0, [sp,#24]
  414e9c:	97ffd021 	bl	408f20 <_ZdlPvm@plt>
  414ea0:	a8c27bfd 	ldp	x29, x30, [sp],#32
  414ea4:	d65f03c0 	ret

0000000000414ea8 <_ZN3MPI10ErrhandlerD1Ev>:
  414ea8:	d10043ff 	sub	sp, sp, #0x10
  414eac:	f90007e0 	str	x0, [sp,#8]
  414eb0:	b0000020 	adrp	x0, 419000 <_IO_stdin_used+0x8>
  414eb4:	9125c001 	add	x1, x0, #0x970
  414eb8:	f94007e0 	ldr	x0, [sp,#8]
  414ebc:	f9000001 	str	x1, [x0]
  414ec0:	d503201f 	nop
  414ec4:	910043ff 	add	sp, sp, #0x10
  414ec8:	d65f03c0 	ret

0000000000414ecc <_ZN3MPI10ErrhandlerD0Ev>:
  414ecc:	a9be7bfd 	stp	x29, x30, [sp,#-32]!
  414ed0:	910003fd 	mov	x29, sp
  414ed4:	f9000fe0 	str	x0, [sp,#24]
  414ed8:	f9400fe0 	ldr	x0, [sp,#24]
  414edc:	97fffff3 	bl	414ea8 <_ZN3MPI10ErrhandlerD1Ev>
  414ee0:	d2800201 	mov	x1, #0x10                  	// #16
  414ee4:	f9400fe0 	ldr	x0, [sp,#24]
  414ee8:	97ffd00e 	bl	408f20 <_ZdlPvm@plt>
  414eec:	a8c27bfd 	ldp	x29, x30, [sp],#32
  414ef0:	d65f03c0 	ret

0000000000414ef4 <_ZN3MPI10ErrhandlerC1EP17ompi_errhandler_t>:
  414ef4:	d10043ff 	sub	sp, sp, #0x10
  414ef8:	f90007e0 	str	x0, [sp,#8]
  414efc:	f90003e1 	str	x1, [sp]
  414f00:	b0000020 	adrp	x0, 419000 <_IO_stdin_used+0x8>
  414f04:	9125c001 	add	x1, x0, #0x970
  414f08:	f94007e0 	ldr	x0, [sp,#8]
  414f0c:	f9000001 	str	x1, [x0]
  414f10:	f94007e0 	ldr	x0, [sp,#8]
  414f14:	f94003e1 	ldr	x1, [sp]
  414f18:	f9000401 	str	x1, [x0,#8]
  414f1c:	d503201f 	nop
  414f20:	910043ff 	add	sp, sp, #0x10
  414f24:	d65f03c0 	ret

0000000000414f28 <_ZNK3MPI10ErrhandlercvP17ompi_errhandler_tEv>:
  414f28:	d10043ff 	sub	sp, sp, #0x10
  414f2c:	f90007e0 	str	x0, [sp,#8]
  414f30:	f94007e0 	ldr	x0, [sp,#8]
  414f34:	f9400400 	ldr	x0, [x0,#8]
  414f38:	910043ff 	add	sp, sp, #0x10
  414f3c:	d65f03c0 	ret

0000000000414f40 <_ZN3MPI4CommD1Ev>:
  414f40:	a9be7bfd 	stp	x29, x30, [sp,#-32]!
  414f44:	910003fd 	mov	x29, sp
  414f48:	f9000fe0 	str	x0, [sp,#24]
  414f4c:	d0000020 	adrp	x0, 41a000 <_ZTVN3MPI8CartcommE+0x188>
  414f50:	910cc001 	add	x1, x0, #0x330
  414f54:	f9400fe0 	ldr	x0, [sp,#24]
  414f58:	f9000001 	str	x1, [x0]
  414f5c:	f9400fe0 	ldr	x0, [sp,#24]
  414f60:	97ffff98 	bl	414dc0 <_ZN3MPI9Comm_NullD1Ev>
  414f64:	d503201f 	nop
  414f68:	a8c27bfd 	ldp	x29, x30, [sp],#32
  414f6c:	d65f03c0 	ret

0000000000414f70 <_ZN3MPI4CommD0Ev>:
  414f70:	a9be7bfd 	stp	x29, x30, [sp,#-32]!
  414f74:	910003fd 	mov	x29, sp
  414f78:	f9000fe0 	str	x0, [sp,#24]
  414f7c:	f9400fe0 	ldr	x0, [sp,#24]
  414f80:	97fffff0 	bl	414f40 <_ZN3MPI4CommD1Ev>
  414f84:	d2800201 	mov	x1, #0x10                  	// #16
  414f88:	f9400fe0 	ldr	x0, [sp,#24]
  414f8c:	97ffcfe5 	bl	408f20 <_ZdlPvm@plt>
  414f90:	a8c27bfd 	ldp	x29, x30, [sp],#32
  414f94:	d65f03c0 	ret

0000000000414f98 <_ZN3MPI9IntracommC1Ev>:
  414f98:	a9be7bfd 	stp	x29, x30, [sp,#-32]!
  414f9c:	910003fd 	mov	x29, sp
  414fa0:	f9000fe0 	str	x0, [sp,#24]
  414fa4:	f9400fe0 	ldr	x0, [sp,#24]
  414fa8:	97ffcf26 	bl	408c40 <_ZN3MPI4CommC2Ev@plt>
  414fac:	d0000020 	adrp	x0, 41a000 <_ZTVN3MPI8CartcommE+0x188>
  414fb0:	9103e001 	add	x1, x0, #0xf8
  414fb4:	f9400fe0 	ldr	x0, [sp,#24]
  414fb8:	f9000001 	str	x1, [x0]
  414fbc:	d503201f 	nop
  414fc0:	a8c27bfd 	ldp	x29, x30, [sp],#32
  414fc4:	d65f03c0 	ret

0000000000414fc8 <_ZN3MPI9IntracommD1Ev>:
  414fc8:	a9be7bfd 	stp	x29, x30, [sp,#-32]!
  414fcc:	910003fd 	mov	x29, sp
  414fd0:	f9000fe0 	str	x0, [sp,#24]
  414fd4:	d0000020 	adrp	x0, 41a000 <_ZTVN3MPI8CartcommE+0x188>
  414fd8:	9103e001 	add	x1, x0, #0xf8
  414fdc:	f9400fe0 	ldr	x0, [sp,#24]
  414fe0:	f9000001 	str	x1, [x0]
  414fe4:	f9400fe0 	ldr	x0, [sp,#24]
  414fe8:	97ffffd6 	bl	414f40 <_ZN3MPI4CommD1Ev>
  414fec:	d503201f 	nop
  414ff0:	a8c27bfd 	ldp	x29, x30, [sp],#32
  414ff4:	d65f03c0 	ret

0000000000414ff8 <_ZN3MPI9IntracommD0Ev>:
  414ff8:	a9be7bfd 	stp	x29, x30, [sp,#-32]!
  414ffc:	910003fd 	mov	x29, sp
  415000:	f9000fe0 	str	x0, [sp,#24]
  415004:	f9400fe0 	ldr	x0, [sp,#24]
  415008:	97fffff0 	bl	414fc8 <_ZN3MPI9IntracommD1Ev>
  41500c:	d2800201 	mov	x1, #0x10                  	// #16
  415010:	f9400fe0 	ldr	x0, [sp,#24]
  415014:	97ffcfc3 	bl	408f20 <_ZdlPvm@plt>
  415018:	a8c27bfd 	ldp	x29, x30, [sp],#32
  41501c:	d65f03c0 	ret

0000000000415020 <_ZN3MPI9IntercommC1EP19ompi_communicator_t>:
  415020:	a9be7bfd 	stp	x29, x30, [sp,#-32]!
  415024:	910003fd 	mov	x29, sp
  415028:	f9000fe0 	str	x0, [sp,#24]
  41502c:	f9000be1 	str	x1, [sp,#16]
  415030:	f9400fe0 	ldr	x0, [sp,#24]
  415034:	f9400be1 	ldr	x1, [sp,#16]
  415038:	97ffff7b 	bl	414e24 <_ZN3MPI4CommC1EP19ompi_communicator_t>
  41503c:	90000020 	adrp	x0, 419000 <_IO_stdin_used+0x8>
  415040:	9128c001 	add	x1, x0, #0xa30
  415044:	f9400fe0 	ldr	x0, [sp,#24]
  415048:	f9000001 	str	x1, [x0]
  41504c:	d503201f 	nop
  415050:	a8c27bfd 	ldp	x29, x30, [sp],#32
  415054:	d65f03c0 	ret

0000000000415058 <_ZN3MPI4InfoC1EP11ompi_info_t>:
  415058:	d10043ff 	sub	sp, sp, #0x10
  41505c:	f90007e0 	str	x0, [sp,#8]
  415060:	f90003e1 	str	x1, [sp]
  415064:	90000020 	adrp	x0, 419000 <_IO_stdin_used+0x8>
  415068:	91226001 	add	x1, x0, #0x898
  41506c:	f94007e0 	ldr	x0, [sp,#8]
  415070:	f9000001 	str	x1, [x0]
  415074:	f94007e0 	ldr	x0, [sp,#8]
  415078:	f94003e1 	ldr	x1, [sp]
  41507c:	f9000401 	str	x1, [x0,#8]
  415080:	d503201f 	nop
  415084:	910043ff 	add	sp, sp, #0x10
  415088:	d65f03c0 	ret

000000000041508c <_ZN3MPI4InfoD1Ev>:
  41508c:	d10043ff 	sub	sp, sp, #0x10
  415090:	f90007e0 	str	x0, [sp,#8]
  415094:	90000020 	adrp	x0, 419000 <_IO_stdin_used+0x8>
  415098:	91226001 	add	x1, x0, #0x898
  41509c:	f94007e0 	ldr	x0, [sp,#8]
  4150a0:	f9000001 	str	x1, [x0]
  4150a4:	d503201f 	nop
  4150a8:	910043ff 	add	sp, sp, #0x10
  4150ac:	d65f03c0 	ret

00000000004150b0 <_ZN3MPI4InfoD0Ev>:
  4150b0:	a9be7bfd 	stp	x29, x30, [sp,#-32]!
  4150b4:	910003fd 	mov	x29, sp
  4150b8:	f9000fe0 	str	x0, [sp,#24]
  4150bc:	f9400fe0 	ldr	x0, [sp,#24]
  4150c0:	97fffff3 	bl	41508c <_ZN3MPI4InfoD1Ev>
  4150c4:	d2800201 	mov	x1, #0x10                  	// #16
  4150c8:	f9400fe0 	ldr	x0, [sp,#24]
  4150cc:	97ffcf95 	bl	408f20 <_ZdlPvm@plt>
  4150d0:	a8c27bfd 	ldp	x29, x30, [sp],#32
  4150d4:	d65f03c0 	ret

00000000004150d8 <_ZNK3MPI4InfocvP11ompi_info_tEv>:
  4150d8:	d10043ff 	sub	sp, sp, #0x10
  4150dc:	f90007e0 	str	x0, [sp,#8]
  4150e0:	f94007e0 	ldr	x0, [sp,#8]
  4150e4:	f9400400 	ldr	x0, [x0,#8]
  4150e8:	910043ff 	add	sp, sp, #0x10
  4150ec:	d65f03c0 	ret

00000000004150f0 <_ZNK3MPI8Datatype17Create_contiguousEi>:
  4150f0:	a9bc7bfd 	stp	x29, x30, [sp,#-64]!
  4150f4:	910003fd 	mov	x29, sp
  4150f8:	f9000bf3 	str	x19, [sp,#16]
  4150fc:	aa0803f3 	mov	x19, x8
  415100:	f90017e0 	str	x0, [sp,#40]
  415104:	b90027e1 	str	w1, [sp,#36]
  415108:	f94017e0 	ldr	x0, [sp,#40]
  41510c:	f9400400 	ldr	x0, [x0,#8]
  415110:	9100e3e1 	add	x1, sp, #0x38
  415114:	aa0103e2 	mov	x2, x1
  415118:	aa0003e1 	mov	x1, x0
  41511c:	b94027e0 	ldr	w0, [sp,#36]
  415120:	97ffcee0 	bl	408ca0 <MPI_Type_contiguous@plt>
  415124:	f9401fe0 	ldr	x0, [sp,#56]
  415128:	aa0003e1 	mov	x1, x0
  41512c:	aa1303e0 	mov	x0, x19
  415130:	97fffe55 	bl	414a84 <_ZN3MPI8DatatypeC1EP15ompi_datatype_t>
  415134:	aa1303e0 	mov	x0, x19
  415138:	f9400bf3 	ldr	x19, [sp,#16]
  41513c:	a8c47bfd 	ldp	x29, x30, [sp],#64
  415140:	d65f03c0 	ret

0000000000415144 <_ZNK3MPI8Datatype13Create_vectorEiii>:
  415144:	a9bb7bfd 	stp	x29, x30, [sp,#-80]!
  415148:	910003fd 	mov	x29, sp
  41514c:	f9000bf3 	str	x19, [sp,#16]
  415150:	aa0803f3 	mov	x19, x8
  415154:	f9001fe0 	str	x0, [sp,#56]
  415158:	b90037e1 	str	w1, [sp,#52]
  41515c:	b90033e2 	str	w2, [sp,#48]
  415160:	b9002fe3 	str	w3, [sp,#44]
  415164:	f9401fe0 	ldr	x0, [sp,#56]
  415168:	f9400400 	ldr	x0, [x0,#8]
  41516c:	910123e1 	add	x1, sp, #0x48
  415170:	aa0103e4 	mov	x4, x1
  415174:	aa0003e3 	mov	x3, x0
  415178:	b9402fe2 	ldr	w2, [sp,#44]
  41517c:	b94033e1 	ldr	w1, [sp,#48]
  415180:	b94037e0 	ldr	w0, [sp,#52]
  415184:	97ffd06f 	bl	409340 <MPI_Type_vector@plt>
  415188:	f94027e0 	ldr	x0, [sp,#72]
  41518c:	aa0003e1 	mov	x1, x0
  415190:	aa1303e0 	mov	x0, x19
  415194:	97fffe3c 	bl	414a84 <_ZN3MPI8DatatypeC1EP15ompi_datatype_t>
  415198:	aa1303e0 	mov	x0, x19
  41519c:	f9400bf3 	ldr	x19, [sp,#16]
  4151a0:	a8c57bfd 	ldp	x29, x30, [sp],#80
  4151a4:	d65f03c0 	ret

00000000004151a8 <_ZNK3MPI8Datatype14Create_indexedEiPKiS2_>:
  4151a8:	a9bb7bfd 	stp	x29, x30, [sp,#-80]!
  4151ac:	910003fd 	mov	x29, sp
  4151b0:	f9000bf3 	str	x19, [sp,#16]
  4151b4:	aa0803f3 	mov	x19, x8
  4151b8:	f9001fe0 	str	x0, [sp,#56]
  4151bc:	b90037e1 	str	w1, [sp,#52]
  4151c0:	f90017e2 	str	x2, [sp,#40]
  4151c4:	f90013e3 	str	x3, [sp,#32]
  4151c8:	f9401fe0 	ldr	x0, [sp,#56]
  4151cc:	f9400400 	ldr	x0, [x0,#8]
  4151d0:	910123e1 	add	x1, sp, #0x48
  4151d4:	aa0103e4 	mov	x4, x1
  4151d8:	aa0003e3 	mov	x3, x0
  4151dc:	f94013e2 	ldr	x2, [sp,#32]
  4151e0:	f94017e1 	ldr	x1, [sp,#40]
  4151e4:	b94037e0 	ldr	w0, [sp,#52]
  4151e8:	97ffd062 	bl	409370 <MPI_Type_indexed@plt>
  4151ec:	f94027e0 	ldr	x0, [sp,#72]
  4151f0:	aa0003e1 	mov	x1, x0
  4151f4:	aa1303e0 	mov	x0, x19
  4151f8:	97fffe23 	bl	414a84 <_ZN3MPI8DatatypeC1EP15ompi_datatype_t>
  4151fc:	aa1303e0 	mov	x0, x19
  415200:	f9400bf3 	ldr	x19, [sp,#16]
  415204:	a8c57bfd 	ldp	x29, x30, [sp],#80
  415208:	d65f03c0 	ret

000000000041520c <_ZNK3MPI8Datatype15Create_hindexedEiPKiPKl>:
  41520c:	a9bb7bfd 	stp	x29, x30, [sp,#-80]!
  415210:	910003fd 	mov	x29, sp
  415214:	f9000bf3 	str	x19, [sp,#16]
  415218:	aa0803f3 	mov	x19, x8
  41521c:	f9001fe0 	str	x0, [sp,#56]
  415220:	b90037e1 	str	w1, [sp,#52]
  415224:	f90017e2 	str	x2, [sp,#40]
  415228:	f90013e3 	str	x3, [sp,#32]
  41522c:	f9401fe0 	ldr	x0, [sp,#56]
  415230:	f9400400 	ldr	x0, [x0,#8]
  415234:	910123e1 	add	x1, sp, #0x48
  415238:	aa0103e4 	mov	x4, x1
  41523c:	aa0003e3 	mov	x3, x0
  415240:	f94013e2 	ldr	x2, [sp,#32]
  415244:	f94017e1 	ldr	x1, [sp,#40]
  415248:	b94037e0 	ldr	w0, [sp,#52]
  41524c:	97ffcf79 	bl	409030 <MPI_Type_create_hindexed@plt>
  415250:	f94027e0 	ldr	x0, [sp,#72]
  415254:	aa0003e1 	mov	x1, x0
  415258:	aa1303e0 	mov	x0, x19
  41525c:	97fffe0a 	bl	414a84 <_ZN3MPI8DatatypeC1EP15ompi_datatype_t>
  415260:	aa1303e0 	mov	x0, x19
  415264:	f9400bf3 	ldr	x19, [sp,#16]
  415268:	a8c57bfd 	ldp	x29, x30, [sp],#80
  41526c:	d65f03c0 	ret

0000000000415270 <_ZNK3MPI8Datatype14Create_hvectorEiil>:
  415270:	a9bb7bfd 	stp	x29, x30, [sp,#-80]!
  415274:	910003fd 	mov	x29, sp
  415278:	f9000bf3 	str	x19, [sp,#16]
  41527c:	aa0803f3 	mov	x19, x8
  415280:	f9001fe0 	str	x0, [sp,#56]
  415284:	b90037e1 	str	w1, [sp,#52]
  415288:	b90033e2 	str	w2, [sp,#48]
  41528c:	f90017e3 	str	x3, [sp,#40]
  415290:	f9401fe0 	ldr	x0, [sp,#56]
  415294:	f9400400 	ldr	x0, [x0,#8]
  415298:	910123e1 	add	x1, sp, #0x48
  41529c:	aa0103e4 	mov	x4, x1
  4152a0:	aa0003e3 	mov	x3, x0
  4152a4:	f94017e2 	ldr	x2, [sp,#40]
  4152a8:	b94033e1 	ldr	w1, [sp,#48]
  4152ac:	b94037e0 	ldr	w0, [sp,#52]
  4152b0:	97ffce18 	bl	408b10 <MPI_Type_create_hvector@plt>
  4152b4:	f94027e0 	ldr	x0, [sp,#72]
  4152b8:	aa0003e1 	mov	x1, x0
  4152bc:	aa1303e0 	mov	x0, x19
  4152c0:	97fffdf1 	bl	414a84 <_ZN3MPI8DatatypeC1EP15ompi_datatype_t>
  4152c4:	aa1303e0 	mov	x0, x19
  4152c8:	f9400bf3 	ldr	x19, [sp,#16]
  4152cc:	a8c57bfd 	ldp	x29, x30, [sp],#80
  4152d0:	d65f03c0 	ret

00000000004152d4 <_ZNK3MPI8Datatype20Create_indexed_blockEiiPKi>:
  4152d4:	a9bb7bfd 	stp	x29, x30, [sp,#-80]!
  4152d8:	910003fd 	mov	x29, sp
  4152dc:	f9000bf3 	str	x19, [sp,#16]
  4152e0:	aa0803f3 	mov	x19, x8
  4152e4:	f9001fe0 	str	x0, [sp,#56]
  4152e8:	b90037e1 	str	w1, [sp,#52]
  4152ec:	b90033e2 	str	w2, [sp,#48]
  4152f0:	f90017e3 	str	x3, [sp,#40]
  4152f4:	f9401fe0 	ldr	x0, [sp,#56]
  4152f8:	f9400400 	ldr	x0, [x0,#8]
  4152fc:	910123e1 	add	x1, sp, #0x48
  415300:	aa0103e4 	mov	x4, x1
  415304:	aa0003e3 	mov	x3, x0
  415308:	f94017e2 	ldr	x2, [sp,#40]
  41530c:	b94033e1 	ldr	w1, [sp,#48]
  415310:	b94037e0 	ldr	w0, [sp,#52]
  415314:	97ffcf9b 	bl	409180 <MPI_Type_create_indexed_block@plt>
  415318:	f94027e0 	ldr	x0, [sp,#72]
  41531c:	aa0003e1 	mov	x1, x0
  415320:	aa1303e0 	mov	x0, x19
  415324:	97fffdd8 	bl	414a84 <_ZN3MPI8DatatypeC1EP15ompi_datatype_t>
  415328:	aa1303e0 	mov	x0, x19
  41532c:	f9400bf3 	ldr	x19, [sp,#16]
  415330:	a8c57bfd 	ldp	x29, x30, [sp],#80
  415334:	d65f03c0 	ret

0000000000415338 <_ZNK3MPI8Datatype14Create_resizedEll>:
  415338:	a9bb7bfd 	stp	x29, x30, [sp,#-80]!
  41533c:	910003fd 	mov	x29, sp
  415340:	f9000bf3 	str	x19, [sp,#16]
  415344:	aa0803f3 	mov	x19, x8
  415348:	f9001fe0 	str	x0, [sp,#56]
  41534c:	f9001be1 	str	x1, [sp,#48]
  415350:	f90017e2 	str	x2, [sp,#40]
  415354:	f9401fe0 	ldr	x0, [sp,#56]
  415358:	f9400400 	ldr	x0, [x0,#8]
  41535c:	910123e1 	add	x1, sp, #0x48
  415360:	aa0103e3 	mov	x3, x1
  415364:	f94017e2 	ldr	x2, [sp,#40]
  415368:	f9401be1 	ldr	x1, [sp,#48]
  41536c:	97ffd01d 	bl	4093e0 <MPI_Type_create_resized@plt>
  415370:	f94027e0 	ldr	x0, [sp,#72]
  415374:	aa0003e1 	mov	x1, x0
  415378:	aa1303e0 	mov	x0, x19
  41537c:	97fffdc2 	bl	414a84 <_ZN3MPI8DatatypeC1EP15ompi_datatype_t>
  415380:	aa1303e0 	mov	x0, x19
  415384:	f9400bf3 	ldr	x19, [sp,#16]
  415388:	a8c57bfd 	ldp	x29, x30, [sp],#80
  41538c:	d65f03c0 	ret

0000000000415390 <_ZNK3MPI8Datatype8Get_sizeEv>:
  415390:	a9bd7bfd 	stp	x29, x30, [sp,#-48]!
  415394:	910003fd 	mov	x29, sp
  415398:	f9000fe0 	str	x0, [sp,#24]
  41539c:	f9400fe0 	ldr	x0, [sp,#24]
  4153a0:	f9400400 	ldr	x0, [x0,#8]
  4153a4:	9100b3e1 	add	x1, sp, #0x2c
  4153a8:	97ffcf4a 	bl	4090d0 <MPI_Type_size@plt>
  4153ac:	b9402fe0 	ldr	w0, [sp,#44]
  4153b0:	a8c37bfd 	ldp	x29, x30, [sp],#48
  4153b4:	d65f03c0 	ret

00000000004153b8 <_ZNK3MPI8Datatype10Get_extentERlS1_>:
  4153b8:	a9bd7bfd 	stp	x29, x30, [sp,#-48]!
  4153bc:	910003fd 	mov	x29, sp
  4153c0:	f90017e0 	str	x0, [sp,#40]
  4153c4:	f90013e1 	str	x1, [sp,#32]
  4153c8:	f9000fe2 	str	x2, [sp,#24]
  4153cc:	f94017e0 	ldr	x0, [sp,#40]
  4153d0:	f9400400 	ldr	x0, [x0,#8]
  4153d4:	f9400fe2 	ldr	x2, [sp,#24]
  4153d8:	f94013e1 	ldr	x1, [sp,#32]
  4153dc:	97ffcde1 	bl	408b60 <MPI_Type_get_extent@plt>
  4153e0:	d503201f 	nop
  4153e4:	a8c37bfd 	ldp	x29, x30, [sp],#48
  4153e8:	d65f03c0 	ret

00000000004153ec <_ZNK3MPI8Datatype15Get_true_extentERlS1_>:
  4153ec:	a9bd7bfd 	stp	x29, x30, [sp,#-48]!
  4153f0:	910003fd 	mov	x29, sp
  4153f4:	f90017e0 	str	x0, [sp,#40]
  4153f8:	f90013e1 	str	x1, [sp,#32]
  4153fc:	f9000fe2 	str	x2, [sp,#24]
  415400:	f94017e0 	ldr	x0, [sp,#40]
  415404:	f9400400 	ldr	x0, [x0,#8]
  415408:	f9400fe2 	ldr	x2, [sp,#24]
  41540c:	f94013e1 	ldr	x1, [sp,#32]
  415410:	97ffce1c 	bl	408c80 <MPI_Type_get_true_extent@plt>
  415414:	d503201f 	nop
  415418:	a8c37bfd 	ldp	x29, x30, [sp],#48
  41541c:	d65f03c0 	ret

0000000000415420 <_ZN3MPI8Datatype6CommitEv>:
  415420:	a9be7bfd 	stp	x29, x30, [sp,#-32]!
  415424:	910003fd 	mov	x29, sp
  415428:	f9000fe0 	str	x0, [sp,#24]
  41542c:	f9400fe0 	ldr	x0, [sp,#24]
  415430:	91002000 	add	x0, x0, #0x8
  415434:	97ffcf1b 	bl	4090a0 <MPI_Type_commit@plt>
  415438:	d503201f 	nop
  41543c:	a8c27bfd 	ldp	x29, x30, [sp],#32
  415440:	d65f03c0 	ret

0000000000415444 <_ZNK3MPI8Datatype4PackEPKviPviRiRKNS_4CommE>:
  415444:	a9bb7bfd 	stp	x29, x30, [sp,#-80]!
  415448:	910003fd 	mov	x29, sp
  41544c:	f9000bf3 	str	x19, [sp,#16]
  415450:	f90027e0 	str	x0, [sp,#72]
  415454:	f90023e1 	str	x1, [sp,#64]
  415458:	b9003fe2 	str	w2, [sp,#60]
  41545c:	f9001be3 	str	x3, [sp,#48]
  415460:	b9003be4 	str	w4, [sp,#56]
  415464:	f90017e5 	str	x5, [sp,#40]
  415468:	f90013e6 	str	x6, [sp,#32]
  41546c:	f94027e0 	ldr	x0, [sp,#72]
  415470:	f9400413 	ldr	x19, [x0,#8]
  415474:	f94013e0 	ldr	x0, [sp,#32]
  415478:	97fffe65 	bl	414e0c <_ZNK3MPI9Comm_NullcvP19ompi_communicator_tEv>
  41547c:	aa0003e6 	mov	x6, x0
  415480:	f94017e5 	ldr	x5, [sp,#40]
  415484:	b9403be4 	ldr	w4, [sp,#56]
  415488:	f9401be3 	ldr	x3, [sp,#48]
  41548c:	aa1303e2 	mov	x2, x19
  415490:	b9403fe1 	ldr	w1, [sp,#60]
  415494:	f94023e0 	ldr	x0, [sp,#64]
  415498:	97ffce8e 	bl	408ed0 <MPI_Pack@plt>
  41549c:	d503201f 	nop
  4154a0:	f9400bf3 	ldr	x19, [sp,#16]
  4154a4:	a8c57bfd 	ldp	x29, x30, [sp],#80
  4154a8:	d65f03c0 	ret

00000000004154ac <_ZNK3MPI8Datatype6UnpackEPKviPviRiRKNS_4CommE>:
  4154ac:	a9bb7bfd 	stp	x29, x30, [sp,#-80]!
  4154b0:	910003fd 	mov	x29, sp
  4154b4:	f9000bf3 	str	x19, [sp,#16]
  4154b8:	f90027e0 	str	x0, [sp,#72]
  4154bc:	f90023e1 	str	x1, [sp,#64]
  4154c0:	b9003fe2 	str	w2, [sp,#60]
  4154c4:	f9001be3 	str	x3, [sp,#48]
  4154c8:	b9003be4 	str	w4, [sp,#56]
  4154cc:	f90017e5 	str	x5, [sp,#40]
  4154d0:	f90013e6 	str	x6, [sp,#32]
  4154d4:	f94027e0 	ldr	x0, [sp,#72]
  4154d8:	f9400413 	ldr	x19, [x0,#8]
  4154dc:	f94013e0 	ldr	x0, [sp,#32]
  4154e0:	97fffe4b 	bl	414e0c <_ZNK3MPI9Comm_NullcvP19ompi_communicator_tEv>
  4154e4:	aa0003e6 	mov	x6, x0
  4154e8:	aa1303e5 	mov	x5, x19
  4154ec:	b9403be4 	ldr	w4, [sp,#56]
  4154f0:	f9401be3 	ldr	x3, [sp,#48]
  4154f4:	f94017e2 	ldr	x2, [sp,#40]
  4154f8:	b9403fe1 	ldr	w1, [sp,#60]
  4154fc:	f94023e0 	ldr	x0, [sp,#64]
  415500:	97ffcda4 	bl	408b90 <MPI_Unpack@plt>
  415504:	d503201f 	nop
  415508:	f9400bf3 	ldr	x19, [sp,#16]
  41550c:	a8c57bfd 	ldp	x29, x30, [sp],#80
  415510:	d65f03c0 	ret

0000000000415514 <_ZNK3MPI8Datatype9Pack_sizeEiRKNS_4CommE>:
  415514:	a9bb7bfd 	stp	x29, x30, [sp,#-80]!
  415518:	910003fd 	mov	x29, sp
  41551c:	f9000bf3 	str	x19, [sp,#16]
  415520:	f9001fe0 	str	x0, [sp,#56]
  415524:	b90037e1 	str	w1, [sp,#52]
  415528:	f90017e2 	str	x2, [sp,#40]
  41552c:	f9401fe0 	ldr	x0, [sp,#56]
  415530:	f9400413 	ldr	x19, [x0,#8]
  415534:	f94017e0 	ldr	x0, [sp,#40]
  415538:	97fffe35 	bl	414e0c <_ZNK3MPI9Comm_NullcvP19ompi_communicator_tEv>
  41553c:	aa0003e1 	mov	x1, x0
  415540:	910133e0 	add	x0, sp, #0x4c
  415544:	aa0003e3 	mov	x3, x0
  415548:	aa0103e2 	mov	x2, x1
  41554c:	aa1303e1 	mov	x1, x19
  415550:	b94037e0 	ldr	w0, [sp,#52]
  415554:	97ffcd5f 	bl	408ad0 <MPI_Pack_size@plt>
  415558:	b9404fe0 	ldr	w0, [sp,#76]
  41555c:	f9400bf3 	ldr	x19, [sp,#16]
  415560:	a8c57bfd 	ldp	x29, x30, [sp],#80
  415564:	d65f03c0 	ret

0000000000415568 <_ZNK3MPI8Datatype13Pack_externalEPKcPKviPvlRl>:
  415568:	a9bb7bfd 	stp	x29, x30, [sp,#-80]!
  41556c:	910003fd 	mov	x29, sp
  415570:	f90027e0 	str	x0, [sp,#72]
  415574:	f90023e1 	str	x1, [sp,#64]
  415578:	f9001fe2 	str	x2, [sp,#56]
  41557c:	b90037e3 	str	w3, [sp,#52]
  415580:	f90017e4 	str	x4, [sp,#40]
  415584:	f90013e5 	str	x5, [sp,#32]
  415588:	f9000fe6 	str	x6, [sp,#24]
  41558c:	f94027e0 	ldr	x0, [sp,#72]
  415590:	f9400400 	ldr	x0, [x0,#8]
  415594:	f9400fe6 	ldr	x6, [sp,#24]
  415598:	f94013e5 	ldr	x5, [sp,#32]
  41559c:	f94017e4 	ldr	x4, [sp,#40]
  4155a0:	aa0003e3 	mov	x3, x0
  4155a4:	b94037e2 	ldr	w2, [sp,#52]
  4155a8:	f9401fe1 	ldr	x1, [sp,#56]
  4155ac:	f94023e0 	ldr	x0, [sp,#64]
  4155b0:	97ffcddc 	bl	408d20 <MPI_Pack_external@plt>
  4155b4:	d503201f 	nop
  4155b8:	a8c57bfd 	ldp	x29, x30, [sp],#80
  4155bc:	d65f03c0 	ret

00000000004155c0 <_ZNK3MPI8Datatype18Pack_external_sizeEPKci>:
  4155c0:	a9bc7bfd 	stp	x29, x30, [sp,#-64]!
  4155c4:	910003fd 	mov	x29, sp
  4155c8:	f90017e0 	str	x0, [sp,#40]
  4155cc:	f90013e1 	str	x1, [sp,#32]
  4155d0:	b9001fe2 	str	w2, [sp,#28]
  4155d4:	f94017e0 	ldr	x0, [sp,#40]
  4155d8:	f9400400 	ldr	x0, [x0,#8]
  4155dc:	9100e3e1 	add	x1, sp, #0x38
  4155e0:	aa0103e3 	mov	x3, x1
  4155e4:	aa0003e2 	mov	x2, x0
  4155e8:	b9401fe1 	ldr	w1, [sp,#28]
  4155ec:	f94013e0 	ldr	x0, [sp,#32]
  4155f0:	97ffcfcc 	bl	409520 <MPI_Pack_external_size@plt>
  4155f4:	f9401fe0 	ldr	x0, [sp,#56]
  4155f8:	a8c47bfd 	ldp	x29, x30, [sp],#64
  4155fc:	d65f03c0 	ret

0000000000415600 <_ZNK3MPI8Datatype15Unpack_externalEPKcPKvlRlPvi>:
  415600:	a9bb7bfd 	stp	x29, x30, [sp,#-80]!
  415604:	910003fd 	mov	x29, sp
  415608:	f90027e0 	str	x0, [sp,#72]
  41560c:	f90023e1 	str	x1, [sp,#64]
  415610:	f9001fe2 	str	x2, [sp,#56]
  415614:	f9001be3 	str	x3, [sp,#48]
  415618:	f90017e4 	str	x4, [sp,#40]
  41561c:	f90013e5 	str	x5, [sp,#32]
  415620:	b9001fe6 	str	w6, [sp,#28]
  415624:	f94027e0 	ldr	x0, [sp,#72]
  415628:	f9400400 	ldr	x0, [x0,#8]
  41562c:	aa0003e6 	mov	x6, x0
  415630:	b9401fe5 	ldr	w5, [sp,#28]
  415634:	f94013e4 	ldr	x4, [sp,#32]
  415638:	f94017e3 	ldr	x3, [sp,#40]
  41563c:	f9401be2 	ldr	x2, [sp,#48]
  415640:	f9401fe1 	ldr	x1, [sp,#56]
  415644:	f94023e0 	ldr	x0, [sp,#64]
  415648:	97ffcd36 	bl	408b20 <MPI_Unpack_external@plt>
  41564c:	d503201f 	nop
  415650:	a8c57bfd 	ldp	x29, x30, [sp],#80
  415654:	d65f03c0 	ret

0000000000415658 <_ZNK3MPI8Datatype15Create_subarrayEiPKiS2_S2_i>:
  415658:	a9ba7bfd 	stp	x29, x30, [sp,#-96]!
  41565c:	910003fd 	mov	x29, sp
  415660:	f9000bf3 	str	x19, [sp,#16]
  415664:	aa0803f3 	mov	x19, x8
  415668:	f90027e0 	str	x0, [sp,#72]
  41566c:	b90047e1 	str	w1, [sp,#68]
  415670:	f9001fe2 	str	x2, [sp,#56]
  415674:	f9001be3 	str	x3, [sp,#48]
  415678:	f90017e4 	str	x4, [sp,#40]
  41567c:	b90043e5 	str	w5, [sp,#64]
  415680:	f94027e0 	ldr	x0, [sp,#72]
  415684:	f9400400 	ldr	x0, [x0,#8]
  415688:	910163e1 	add	x1, sp, #0x58
  41568c:	aa0103e6 	mov	x6, x1
  415690:	aa0003e5 	mov	x5, x0
  415694:	b94043e4 	ldr	w4, [sp,#64]
  415698:	f94017e3 	ldr	x3, [sp,#40]
  41569c:	f9401be2 	ldr	x2, [sp,#48]
  4156a0:	f9401fe1 	ldr	x1, [sp,#56]
  4156a4:	b94047e0 	ldr	w0, [sp,#68]
  4156a8:	97ffcf0e 	bl	4092e0 <MPI_Type_create_subarray@plt>
  4156ac:	f9402fe0 	ldr	x0, [sp,#88]
  4156b0:	aa0003e1 	mov	x1, x0
  4156b4:	aa1303e0 	mov	x0, x19
  4156b8:	97fffcf3 	bl	414a84 <_ZN3MPI8DatatypeC1EP15ompi_datatype_t>
  4156bc:	aa1303e0 	mov	x0, x19
  4156c0:	f9400bf3 	ldr	x19, [sp,#16]
  4156c4:	a8c67bfd 	ldp	x29, x30, [sp],#96
  4156c8:	d65f03c0 	ret

00000000004156cc <_ZNK3MPI8Datatype13Create_darrayEiiiPKiS2_S2_S2_i>:
  4156cc:	d10203ff 	sub	sp, sp, #0x80
  4156d0:	a9017bfd 	stp	x29, x30, [sp,#16]
  4156d4:	910043fd 	add	x29, sp, #0x10
  4156d8:	f90013f3 	str	x19, [sp,#32]
  4156dc:	aa0803f3 	mov	x19, x8
  4156e0:	f90037e0 	str	x0, [sp,#104]
  4156e4:	b90067e1 	str	w1, [sp,#100]
  4156e8:	b90063e2 	str	w2, [sp,#96]
  4156ec:	b9005fe3 	str	w3, [sp,#92]
  4156f0:	f9002be4 	str	x4, [sp,#80]
  4156f4:	f90027e5 	str	x5, [sp,#72]
  4156f8:	f90023e6 	str	x6, [sp,#64]
  4156fc:	f9001fe7 	str	x7, [sp,#56]
  415700:	f94037e0 	ldr	x0, [sp,#104]
  415704:	f9400400 	ldr	x0, [x0,#8]
  415708:	9101e3e1 	add	x1, sp, #0x78
  41570c:	f90007e1 	str	x1, [sp,#8]
  415710:	f90003e0 	str	x0, [sp]
  415714:	b94083e7 	ldr	w7, [sp,#128]
  415718:	f9401fe6 	ldr	x6, [sp,#56]
  41571c:	f94023e5 	ldr	x5, [sp,#64]
  415720:	f94027e4 	ldr	x4, [sp,#72]
  415724:	f9402be3 	ldr	x3, [sp,#80]
  415728:	b9405fe2 	ldr	w2, [sp,#92]
  41572c:	b94063e1 	ldr	w1, [sp,#96]
  415730:	b94067e0 	ldr	w0, [sp,#100]
  415734:	97ffcda3 	bl	408dc0 <MPI_Type_create_darray@plt>
  415738:	f9403fe0 	ldr	x0, [sp,#120]
  41573c:	aa0003e1 	mov	x1, x0
  415740:	aa1303e0 	mov	x0, x19
  415744:	97fffcd0 	bl	414a84 <_ZN3MPI8DatatypeC1EP15ompi_datatype_t>
  415748:	aa1303e0 	mov	x0, x19
  41574c:	f94013f3 	ldr	x19, [sp,#32]
  415750:	a9417bfd 	ldp	x29, x30, [sp,#16]
  415754:	910203ff 	add	sp, sp, #0x80
  415758:	d65f03c0 	ret

000000000041575c <_ZNK3MPI8Datatype3DupEv>:
  41575c:	a9bc7bfd 	stp	x29, x30, [sp,#-64]!
  415760:	910003fd 	mov	x29, sp
  415764:	f9000bf3 	str	x19, [sp,#16]
  415768:	aa0803f3 	mov	x19, x8
  41576c:	f90017e0 	str	x0, [sp,#40]
  415770:	f94017e0 	ldr	x0, [sp,#40]
  415774:	f9400400 	ldr	x0, [x0,#8]
  415778:	9100e3e1 	add	x1, sp, #0x38
  41577c:	97ffceb1 	bl	409240 <MPI_Type_dup@plt>
  415780:	f9401fe0 	ldr	x0, [sp,#56]
  415784:	aa0003e1 	mov	x1, x0
  415788:	aa1303e0 	mov	x0, x19
  41578c:	97fffcbe 	bl	414a84 <_ZN3MPI8DatatypeC1EP15ompi_datatype_t>
  415790:	aa1303e0 	mov	x0, x19
  415794:	f9400bf3 	ldr	x19, [sp,#16]
  415798:	a8c47bfd 	ldp	x29, x30, [sp],#64
  41579c:	d65f03c0 	ret

00000000004157a0 <_ZN3MPI8Datatype11Delete_attrEi>:
  4157a0:	a9be7bfd 	stp	x29, x30, [sp,#-32]!
  4157a4:	910003fd 	mov	x29, sp
  4157a8:	f9000fe0 	str	x0, [sp,#24]
  4157ac:	b90017e1 	str	w1, [sp,#20]
  4157b0:	f9400fe0 	ldr	x0, [sp,#24]
  4157b4:	f9400400 	ldr	x0, [x0,#8]
  4157b8:	b94017e1 	ldr	w1, [sp,#20]
  4157bc:	97ffcf25 	bl	409450 <MPI_Type_delete_attr@plt>
  4157c0:	d503201f 	nop
  4157c4:	a8c27bfd 	ldp	x29, x30, [sp],#32
  4157c8:	d65f03c0 	ret

00000000004157cc <_ZNK3MPI8Datatype8Get_attrEiPv>:
  4157cc:	a9bc7bfd 	stp	x29, x30, [sp,#-64]!
  4157d0:	910003fd 	mov	x29, sp
  4157d4:	f90017e0 	str	x0, [sp,#40]
  4157d8:	b90027e1 	str	w1, [sp,#36]
  4157dc:	f9000fe2 	str	x2, [sp,#24]
  4157e0:	f94017e0 	ldr	x0, [sp,#40]
  4157e4:	f9400400 	ldr	x0, [x0,#8]
  4157e8:	9100f3e1 	add	x1, sp, #0x3c
  4157ec:	aa0103e3 	mov	x3, x1
  4157f0:	f9400fe2 	ldr	x2, [sp,#24]
  4157f4:	b94027e1 	ldr	w1, [sp,#36]
  4157f8:	97ffcd9a 	bl	408e60 <MPI_Type_get_attr@plt>
  4157fc:	b9403fe0 	ldr	w0, [sp,#60]
  415800:	7100001f 	cmp	w0, #0x0
  415804:	1a9f07e0 	cset	w0, ne
  415808:	12001c00 	and	w0, w0, #0xff
  41580c:	a8c47bfd 	ldp	x29, x30, [sp],#64
  415810:	d65f03c0 	ret

0000000000415814 <_ZNK3MPI8Datatype12Get_contentsEiiiPiPlPS0_>:
  415814:	a9bb7bfd 	stp	x29, x30, [sp,#-80]!
  415818:	910003fd 	mov	x29, sp
  41581c:	f9001fe0 	str	x0, [sp,#56]
  415820:	b90037e1 	str	w1, [sp,#52]
  415824:	b90033e2 	str	w2, [sp,#48]
  415828:	b9002fe3 	str	w3, [sp,#44]
  41582c:	f90013e4 	str	x4, [sp,#32]
  415830:	f9000fe5 	str	x5, [sp,#24]
  415834:	f9000be6 	str	x6, [sp,#16]
  415838:	b9802fe0 	ldrsw	x0, [sp,#44]
  41583c:	92fe0001 	mov	x1, #0xfffffffffffffff     	// #1152921504606846975
  415840:	eb01001f 	cmp	x0, x1
  415844:	540001e8 	b.hi	415880 <_ZNK3MPI8Datatype12Get_contentsEiiiPiPlPS0_+0x6c>
  415848:	d37df000 	lsl	x0, x0, #3
  41584c:	97ffcc59 	bl	4089b0 <_Znam@plt>
  415850:	f90023e0 	str	x0, [sp,#64]
  415854:	f9401fe0 	ldr	x0, [sp,#56]
  415858:	f9400400 	ldr	x0, [x0,#8]
  41585c:	f94023e6 	ldr	x6, [sp,#64]
  415860:	f9400fe5 	ldr	x5, [sp,#24]
  415864:	f94013e4 	ldr	x4, [sp,#32]
  415868:	b9402fe3 	ldr	w3, [sp,#44]
  41586c:	b94033e2 	ldr	w2, [sp,#48]
  415870:	b94037e1 	ldr	w1, [sp,#52]
  415874:	97ffce47 	bl	409190 <MPI_Type_get_contents@plt>
  415878:	b9004fff 	str	wzr, [sp,#76]
  41587c:	1400000f 	b	4158b8 <_ZNK3MPI8Datatype12Get_contentsEiiiPiPlPS0_+0xa4>
  415880:	97ffce4c 	bl	4091b0 <__cxa_throw_bad_array_new_length@plt>
  415884:	b9804fe0 	ldrsw	x0, [sp,#76]
  415888:	d37df000 	lsl	x0, x0, #3
  41588c:	f94023e1 	ldr	x1, [sp,#64]
  415890:	8b000022 	add	x2, x1, x0
  415894:	b9804fe0 	ldrsw	x0, [sp,#76]
  415898:	d37cec00 	lsl	x0, x0, #4
  41589c:	f9400be1 	ldr	x1, [sp,#16]
  4158a0:	8b000020 	add	x0, x1, x0
  4158a4:	aa0203e1 	mov	x1, x2
  4158a8:	97fffc84 	bl	414ab8 <_ZN3MPI8DatatypeaSERKP15ompi_datatype_t>
  4158ac:	b9404fe0 	ldr	w0, [sp,#76]
  4158b0:	11000400 	add	w0, w0, #0x1
  4158b4:	b9004fe0 	str	w0, [sp,#76]
  4158b8:	b9404fe1 	ldr	w1, [sp,#76]
  4158bc:	b9402fe0 	ldr	w0, [sp,#44]
  4158c0:	6b00003f 	cmp	w1, w0
  4158c4:	54fffe0b 	b.lt	415884 <_ZNK3MPI8Datatype12Get_contentsEiiiPiPlPS0_+0x70>
  4158c8:	f94023e0 	ldr	x0, [sp,#64]
  4158cc:	f100001f 	cmp	x0, #0x0
  4158d0:	54000060 	b.eq	4158dc <_ZNK3MPI8Datatype12Get_contentsEiiiPiPlPS0_+0xc8>
  4158d4:	f94023e0 	ldr	x0, [sp,#64]
  4158d8:	97ffcdfa 	bl	4090c0 <_ZdaPv@plt>
  4158dc:	d503201f 	nop
  4158e0:	a8c57bfd 	ldp	x29, x30, [sp],#80
  4158e4:	d65f03c0 	ret

00000000004158e8 <_ZNK3MPI8Datatype12Get_envelopeERiS1_S1_S1_>:
  4158e8:	a9bc7bfd 	stp	x29, x30, [sp,#-64]!
  4158ec:	910003fd 	mov	x29, sp
  4158f0:	f9001fe0 	str	x0, [sp,#56]
  4158f4:	f9001be1 	str	x1, [sp,#48]
  4158f8:	f90017e2 	str	x2, [sp,#40]
  4158fc:	f90013e3 	str	x3, [sp,#32]
  415900:	f9000fe4 	str	x4, [sp,#24]
  415904:	f9401fe0 	ldr	x0, [sp,#56]
  415908:	f9400400 	ldr	x0, [x0,#8]
  41590c:	f9400fe4 	ldr	x4, [sp,#24]
  415910:	f94013e3 	ldr	x3, [sp,#32]
  415914:	f94017e2 	ldr	x2, [sp,#40]
  415918:	f9401be1 	ldr	x1, [sp,#48]
  41591c:	97ffccb1 	bl	408be0 <MPI_Type_get_envelope@plt>
  415920:	d503201f 	nop
  415924:	a8c47bfd 	ldp	x29, x30, [sp],#64
  415928:	d65f03c0 	ret

000000000041592c <_ZNK3MPI8Datatype8Get_nameEPcRi>:
  41592c:	a9bd7bfd 	stp	x29, x30, [sp,#-48]!
  415930:	910003fd 	mov	x29, sp
  415934:	f90017e0 	str	x0, [sp,#40]
  415938:	f90013e1 	str	x1, [sp,#32]
  41593c:	f9000fe2 	str	x2, [sp,#24]
  415940:	f94017e0 	ldr	x0, [sp,#40]
  415944:	f9400400 	ldr	x0, [x0,#8]
  415948:	f9400fe2 	ldr	x2, [sp,#24]
  41594c:	f94013e1 	ldr	x1, [sp,#32]
  415950:	97ffce08 	bl	409170 <MPI_Type_get_name@plt>
  415954:	d503201f 	nop
  415958:	a8c37bfd 	ldp	x29, x30, [sp],#48
  41595c:	d65f03c0 	ret

0000000000415960 <_ZN3MPI8Datatype8Set_attrEiPKv>:
  415960:	a9bd7bfd 	stp	x29, x30, [sp,#-48]!
  415964:	910003fd 	mov	x29, sp
  415968:	f90017e0 	str	x0, [sp,#40]
  41596c:	b90027e1 	str	w1, [sp,#36]
  415970:	f9000fe2 	str	x2, [sp,#24]
  415974:	f94017e0 	ldr	x0, [sp,#40]
  415978:	f9400400 	ldr	x0, [x0,#8]
  41597c:	f9400fe2 	ldr	x2, [sp,#24]
  415980:	b94027e1 	ldr	w1, [sp,#36]
  415984:	97ffced7 	bl	4094e0 <MPI_Type_set_attr@plt>
  415988:	d503201f 	nop
  41598c:	a8c37bfd 	ldp	x29, x30, [sp],#48
  415990:	d65f03c0 	ret

0000000000415994 <_ZN3MPI8Datatype8Set_nameEPKc>:
  415994:	a9be7bfd 	stp	x29, x30, [sp,#-32]!
  415998:	910003fd 	mov	x29, sp
  41599c:	f9000fe0 	str	x0, [sp,#24]
  4159a0:	f9000be1 	str	x1, [sp,#16]
  4159a4:	f9400fe0 	ldr	x0, [sp,#24]
  4159a8:	f9400400 	ldr	x0, [x0,#8]
  4159ac:	f9400be1 	ldr	x1, [sp,#16]
  4159b0:	97ffcee0 	bl	409530 <MPI_Type_set_name@plt>
  4159b4:	d503201f 	nop
  4159b8:	a8c27bfd 	ldp	x29, x30, [sp],#32
  4159bc:	d65f03c0 	ret

00000000004159c0 <_ZN3MPI14Is_initializedEv>:
  4159c0:	a9be7bfd 	stp	x29, x30, [sp,#-32]!
  4159c4:	910003fd 	mov	x29, sp
  4159c8:	910073e0 	add	x0, sp, #0x1c
  4159cc:	97ffcc91 	bl	408c10 <MPI_Initialized@plt>
  4159d0:	b9401fe0 	ldr	w0, [sp,#28]
  4159d4:	7100001f 	cmp	w0, #0x0
  4159d8:	1a9f07e0 	cset	w0, ne
  4159dc:	12001c00 	and	w0, w0, #0xff
  4159e0:	a8c27bfd 	ldp	x29, x30, [sp],#32
  4159e4:	d65f03c0 	ret

00000000004159e8 <_ZN3MPI7Request4WaitERNS_6StatusE>:
  4159e8:	a9be7bfd 	stp	x29, x30, [sp,#-32]!
  4159ec:	910003fd 	mov	x29, sp
  4159f0:	f9000fe0 	str	x0, [sp,#24]
  4159f4:	f9000be1 	str	x1, [sp,#16]
  4159f8:	f9400fe0 	ldr	x0, [sp,#24]
  4159fc:	91002002 	add	x2, x0, #0x8
  415a00:	f9400be0 	ldr	x0, [sp,#16]
  415a04:	91002000 	add	x0, x0, #0x8
  415a08:	aa0003e1 	mov	x1, x0
  415a0c:	aa0203e0 	mov	x0, x2
  415a10:	97ffcdc4 	bl	409120 <MPI_Wait@plt>
  415a14:	d503201f 	nop
  415a18:	a8c27bfd 	ldp	x29, x30, [sp],#32
  415a1c:	d65f03c0 	ret

0000000000415a20 <_ZN3MPI7Request4WaitEv>:
  415a20:	a9be7bfd 	stp	x29, x30, [sp,#-32]!
  415a24:	910003fd 	mov	x29, sp
  415a28:	f9000fe0 	str	x0, [sp,#24]
  415a2c:	f9400fe0 	ldr	x0, [sp,#24]
  415a30:	91002000 	add	x0, x0, #0x8
  415a34:	d2800001 	mov	x1, #0x0                   	// #0
  415a38:	97ffcdba 	bl	409120 <MPI_Wait@plt>
  415a3c:	d503201f 	nop
  415a40:	a8c27bfd 	ldp	x29, x30, [sp],#32
  415a44:	d65f03c0 	ret

0000000000415a48 <_ZN3MPI7Request4FreeEv>:
  415a48:	a9be7bfd 	stp	x29, x30, [sp,#-32]!
  415a4c:	910003fd 	mov	x29, sp
  415a50:	f9000fe0 	str	x0, [sp,#24]
  415a54:	f9400fe0 	ldr	x0, [sp,#24]
  415a58:	91002000 	add	x0, x0, #0x8
  415a5c:	97ffcccd 	bl	408d90 <MPI_Request_free@plt>
  415a60:	d503201f 	nop
  415a64:	a8c27bfd 	ldp	x29, x30, [sp],#32
  415a68:	d65f03c0 	ret

0000000000415a6c <_ZN3MPI7Request4TestERNS_6StatusE>:
  415a6c:	a9bd7bfd 	stp	x29, x30, [sp,#-48]!
  415a70:	910003fd 	mov	x29, sp
  415a74:	f9000fe0 	str	x0, [sp,#24]
  415a78:	f9000be1 	str	x1, [sp,#16]
  415a7c:	f9400fe0 	ldr	x0, [sp,#24]
  415a80:	91002003 	add	x3, x0, #0x8
  415a84:	f9400be0 	ldr	x0, [sp,#16]
  415a88:	91002001 	add	x1, x0, #0x8
  415a8c:	9100b3e0 	add	x0, sp, #0x2c
  415a90:	aa0103e2 	mov	x2, x1
  415a94:	aa0003e1 	mov	x1, x0
  415a98:	aa0303e0 	mov	x0, x3
  415a9c:	97ffce19 	bl	409300 <MPI_Test@plt>
  415aa0:	b9402fe0 	ldr	w0, [sp,#44]
  415aa4:	7100001f 	cmp	w0, #0x0
  415aa8:	1a9f07e0 	cset	w0, ne
  415aac:	12001c00 	and	w0, w0, #0xff
  415ab0:	a8c37bfd 	ldp	x29, x30, [sp],#48
  415ab4:	d65f03c0 	ret

0000000000415ab8 <_ZN3MPI7Request4TestEv>:
  415ab8:	a9bd7bfd 	stp	x29, x30, [sp,#-48]!
  415abc:	910003fd 	mov	x29, sp
  415ac0:	f9000fe0 	str	x0, [sp,#24]
  415ac4:	f9400fe0 	ldr	x0, [sp,#24]
  415ac8:	91002000 	add	x0, x0, #0x8
  415acc:	9100b3e1 	add	x1, sp, #0x2c
  415ad0:	d2800002 	mov	x2, #0x0                   	// #0
  415ad4:	97ffce0b 	bl	409300 <MPI_Test@plt>
  415ad8:	b9402fe0 	ldr	w0, [sp,#44]
  415adc:	7100001f 	cmp	w0, #0x0
  415ae0:	1a9f07e0 	cset	w0, ne
  415ae4:	12001c00 	and	w0, w0, #0xff
  415ae8:	a8c37bfd 	ldp	x29, x30, [sp],#48
  415aec:	d65f03c0 	ret

0000000000415af0 <_ZNK3MPI7Request6CancelEv>:
  415af0:	a9be7bfd 	stp	x29, x30, [sp,#-32]!
  415af4:	910003fd 	mov	x29, sp
  415af8:	f9000fe0 	str	x0, [sp,#24]
  415afc:	f9400fe0 	ldr	x0, [sp,#24]
  415b00:	91002000 	add	x0, x0, #0x8
  415b04:	97ffcc3f 	bl	408c00 <MPI_Cancel@plt>
  415b08:	d503201f 	nop
  415b0c:	a8c27bfd 	ldp	x29, x30, [sp],#32
  415b10:	d65f03c0 	ret

0000000000415b14 <_ZN3MPI8Prequest5StartEv>:
  415b14:	a9be7bfd 	stp	x29, x30, [sp,#-32]!
  415b18:	910003fd 	mov	x29, sp
  415b1c:	f9000fe0 	str	x0, [sp,#24]
  415b20:	f9400fe0 	ldr	x0, [sp,#24]
  415b24:	91002000 	add	x0, x0, #0x8
  415b28:	97ffce0a 	bl	409350 <MPI_Start@plt>
  415b2c:	d503201f 	nop
  415b30:	a8c27bfd 	ldp	x29, x30, [sp],#32
  415b34:	d65f03c0 	ret

0000000000415b38 <_ZNK3MPI7Request10Get_statusERNS_6StatusE>:
  415b38:	a9bc7bfd 	stp	x29, x30, [sp,#-64]!
  415b3c:	910003fd 	mov	x29, sp
  415b40:	f9000fe0 	str	x0, [sp,#24]
  415b44:	f9000be1 	str	x1, [sp,#16]
  415b48:	b9003fff 	str	wzr, [sp,#60]
  415b4c:	f9400fe0 	ldr	x0, [sp,#24]
  415b50:	f9400400 	ldr	x0, [x0,#8]
  415b54:	910083e2 	add	x2, sp, #0x20
  415b58:	9100f3e1 	add	x1, sp, #0x3c
  415b5c:	97ffcbe1 	bl	408ae0 <MPI_Request_get_status@plt>
  415b60:	b9403fe0 	ldr	w0, [sp,#60]
  415b64:	7100001f 	cmp	w0, #0x0
  415b68:	540000a0 	b.eq	415b7c <_ZNK3MPI7Request10Get_statusERNS_6StatusE+0x44>
  415b6c:	910083e0 	add	x0, sp, #0x20
  415b70:	aa0003e1 	mov	x1, x0
  415b74:	f9400be0 	ldr	x0, [sp,#16]
  415b78:	97fffbf3 	bl	414b44 <_ZN3MPI6StatusaSERK20ompi_status_public_t>
  415b7c:	b9403fe0 	ldr	w0, [sp,#60]
  415b80:	7100001f 	cmp	w0, #0x0
  415b84:	1a9f07e0 	cset	w0, ne
  415b88:	12001c00 	and	w0, w0, #0xff
  415b8c:	a8c47bfd 	ldp	x29, x30, [sp],#64
  415b90:	d65f03c0 	ret

0000000000415b94 <_ZNK3MPI7Request10Get_statusEv>:
  415b94:	a9bd7bfd 	stp	x29, x30, [sp,#-48]!
  415b98:	910003fd 	mov	x29, sp
  415b9c:	f9000fe0 	str	x0, [sp,#24]
  415ba0:	f9400fe0 	ldr	x0, [sp,#24]
  415ba4:	f9400400 	ldr	x0, [x0,#8]
  415ba8:	9100b3e1 	add	x1, sp, #0x2c
  415bac:	d2800002 	mov	x2, #0x0                   	// #0
  415bb0:	97ffcbcc 	bl	408ae0 <MPI_Request_get_status@plt>
  415bb4:	b9402fe0 	ldr	w0, [sp,#44]
  415bb8:	7100001f 	cmp	w0, #0x0
  415bbc:	1a9f07e0 	cset	w0, ne
  415bc0:	12001c00 	and	w0, w0, #0xff
  415bc4:	a8c37bfd 	ldp	x29, x30, [sp],#48
  415bc8:	d65f03c0 	ret

0000000000415bcc <_ZN3MPI8Grequest8CompleteEv>:
  415bcc:	a9be7bfd 	stp	x29, x30, [sp,#-32]!
  415bd0:	910003fd 	mov	x29, sp
  415bd4:	f9000fe0 	str	x0, [sp,#24]
  415bd8:	f9400fe0 	ldr	x0, [sp,#24]
  415bdc:	f9400400 	ldr	x0, [x0,#8]
  415be0:	97ffcc74 	bl	408db0 <MPI_Grequest_complete@plt>
  415be4:	d503201f 	nop
  415be8:	a8c27bfd 	ldp	x29, x30, [sp],#32
  415bec:	d65f03c0 	ret

0000000000415bf0 <_ZNK3MPI4Comm4SendEPKviRKNS_8DatatypeEii>:
  415bf0:	a9bc7bfd 	stp	x29, x30, [sp,#-64]!
  415bf4:	910003fd 	mov	x29, sp
  415bf8:	f9001fe0 	str	x0, [sp,#56]
  415bfc:	f9001be1 	str	x1, [sp,#48]
  415c00:	b9002fe2 	str	w2, [sp,#44]
  415c04:	f90013e3 	str	x3, [sp,#32]
  415c08:	b9002be4 	str	w4, [sp,#40]
  415c0c:	b9001fe5 	str	w5, [sp,#28]
  415c10:	f94013e0 	ldr	x0, [sp,#32]
  415c14:	97fffbb3 	bl	414ae0 <_ZNK3MPI8DatatypecvP15ompi_datatype_tEv>
  415c18:	aa0003e1 	mov	x1, x0
  415c1c:	f9401fe0 	ldr	x0, [sp,#56]
  415c20:	f9400400 	ldr	x0, [x0,#8]
  415c24:	aa0003e5 	mov	x5, x0
  415c28:	b9401fe4 	ldr	w4, [sp,#28]
  415c2c:	b9402be3 	ldr	w3, [sp,#40]
  415c30:	aa0103e2 	mov	x2, x1
  415c34:	b9402fe1 	ldr	w1, [sp,#44]
  415c38:	f9401be0 	ldr	x0, [sp,#48]
  415c3c:	97ffcbc1 	bl	408b40 <MPI_Send@plt>
  415c40:	d503201f 	nop
  415c44:	a8c47bfd 	ldp	x29, x30, [sp],#64
  415c48:	d65f03c0 	ret

0000000000415c4c <_ZNK3MPI4Comm4RecvEPviRKNS_8DatatypeEiiRNS_6StatusE>:
  415c4c:	a9bc7bfd 	stp	x29, x30, [sp,#-64]!
  415c50:	910003fd 	mov	x29, sp
  415c54:	f9001fe0 	str	x0, [sp,#56]
  415c58:	f9001be1 	str	x1, [sp,#48]
  415c5c:	b9002fe2 	str	w2, [sp,#44]
  415c60:	f90013e3 	str	x3, [sp,#32]
  415c64:	b9002be4 	str	w4, [sp,#40]
  415c68:	b9001fe5 	str	w5, [sp,#28]
  415c6c:	f9000be6 	str	x6, [sp,#16]
  415c70:	f94013e0 	ldr	x0, [sp,#32]
  415c74:	97fffb9b 	bl	414ae0 <_ZNK3MPI8DatatypecvP15ompi_datatype_tEv>
  415c78:	aa0003e2 	mov	x2, x0
  415c7c:	f9401fe0 	ldr	x0, [sp,#56]
  415c80:	f9400401 	ldr	x1, [x0,#8]
  415c84:	f9400be0 	ldr	x0, [sp,#16]
  415c88:	91002000 	add	x0, x0, #0x8
  415c8c:	aa0003e6 	mov	x6, x0
  415c90:	aa0103e5 	mov	x5, x1
  415c94:	b9401fe4 	ldr	w4, [sp,#28]
  415c98:	b9402be3 	ldr	w3, [sp,#40]
  415c9c:	b9402fe1 	ldr	w1, [sp,#44]
  415ca0:	f9401be0 	ldr	x0, [sp,#48]
  415ca4:	97ffcc53 	bl	408df0 <MPI_Recv@plt>
  415ca8:	d503201f 	nop
  415cac:	a8c47bfd 	ldp	x29, x30, [sp],#64
  415cb0:	d65f03c0 	ret

0000000000415cb4 <_ZNK3MPI4Comm4RecvEPviRKNS_8DatatypeEii>:
  415cb4:	a9bc7bfd 	stp	x29, x30, [sp,#-64]!
  415cb8:	910003fd 	mov	x29, sp
  415cbc:	f9001fe0 	str	x0, [sp,#56]
  415cc0:	f9001be1 	str	x1, [sp,#48]
  415cc4:	b9002fe2 	str	w2, [sp,#44]
  415cc8:	f90013e3 	str	x3, [sp,#32]
  415ccc:	b9002be4 	str	w4, [sp,#40]
  415cd0:	b9001fe5 	str	w5, [sp,#28]
  415cd4:	f94013e0 	ldr	x0, [sp,#32]
  415cd8:	97fffb82 	bl	414ae0 <_ZNK3MPI8DatatypecvP15ompi_datatype_tEv>
  415cdc:	aa0003e1 	mov	x1, x0
  415ce0:	f9401fe0 	ldr	x0, [sp,#56]
  415ce4:	f9400400 	ldr	x0, [x0,#8]
  415ce8:	d2800006 	mov	x6, #0x0                   	// #0
  415cec:	aa0003e5 	mov	x5, x0
  415cf0:	b9401fe4 	ldr	w4, [sp,#28]
  415cf4:	b9402be3 	ldr	w3, [sp,#40]
  415cf8:	aa0103e2 	mov	x2, x1
  415cfc:	b9402fe1 	ldr	w1, [sp,#44]
  415d00:	f9401be0 	ldr	x0, [sp,#48]
  415d04:	97ffcc3b 	bl	408df0 <MPI_Recv@plt>
  415d08:	d503201f 	nop
  415d0c:	a8c47bfd 	ldp	x29, x30, [sp],#64
  415d10:	d65f03c0 	ret

0000000000415d14 <_ZNK3MPI4Comm5BsendEPKviRKNS_8DatatypeEii>:
  415d14:	a9bc7bfd 	stp	x29, x30, [sp,#-64]!
  415d18:	910003fd 	mov	x29, sp
  415d1c:	f9001fe0 	str	x0, [sp,#56]
  415d20:	f9001be1 	str	x1, [sp,#48]
  415d24:	b9002fe2 	str	w2, [sp,#44]
  415d28:	f90013e3 	str	x3, [sp,#32]
  415d2c:	b9002be4 	str	w4, [sp,#40]
  415d30:	b9001fe5 	str	w5, [sp,#28]
  415d34:	f94013e0 	ldr	x0, [sp,#32]
  415d38:	97fffb6a 	bl	414ae0 <_ZNK3MPI8DatatypecvP15ompi_datatype_tEv>
  415d3c:	aa0003e1 	mov	x1, x0
  415d40:	f9401fe0 	ldr	x0, [sp,#56]
  415d44:	f9400400 	ldr	x0, [x0,#8]
  415d48:	aa0003e5 	mov	x5, x0
  415d4c:	b9401fe4 	ldr	w4, [sp,#28]
  415d50:	b9402be3 	ldr	w3, [sp,#40]
  415d54:	aa0103e2 	mov	x2, x1
  415d58:	b9402fe1 	ldr	w1, [sp,#44]
  415d5c:	f9401be0 	ldr	x0, [sp,#48]
  415d60:	97ffcca0 	bl	408fe0 <MPI_Bsend@plt>
  415d64:	d503201f 	nop
  415d68:	a8c47bfd 	ldp	x29, x30, [sp],#64
  415d6c:	d65f03c0 	ret

0000000000415d70 <_ZNK3MPI4Comm5SsendEPKviRKNS_8DatatypeEii>:
  415d70:	a9bc7bfd 	stp	x29, x30, [sp,#-64]!
  415d74:	910003fd 	mov	x29, sp
  415d78:	f9001fe0 	str	x0, [sp,#56]
  415d7c:	f9001be1 	str	x1, [sp,#48]
  415d80:	b9002fe2 	str	w2, [sp,#44]
  415d84:	f90013e3 	str	x3, [sp,#32]
  415d88:	b9002be4 	str	w4, [sp,#40]
  415d8c:	b9001fe5 	str	w5, [sp,#28]
  415d90:	f94013e0 	ldr	x0, [sp,#32]
  415d94:	97fffb53 	bl	414ae0 <_ZNK3MPI8DatatypecvP15ompi_datatype_tEv>
  415d98:	aa0003e1 	mov	x1, x0
  415d9c:	f9401fe0 	ldr	x0, [sp,#56]
  415da0:	f9400400 	ldr	x0, [x0,#8]
  415da4:	aa0003e5 	mov	x5, x0
  415da8:	b9401fe4 	ldr	w4, [sp,#28]
  415dac:	b9402be3 	ldr	w3, [sp,#40]
  415db0:	aa0103e2 	mov	x2, x1
  415db4:	b9402fe1 	ldr	w1, [sp,#44]
  415db8:	f9401be0 	ldr	x0, [sp,#48]
  415dbc:	97ffcb29 	bl	408a60 <MPI_Ssend@plt>
  415dc0:	d503201f 	nop
  415dc4:	a8c47bfd 	ldp	x29, x30, [sp],#64
  415dc8:	d65f03c0 	ret

0000000000415dcc <_ZNK3MPI4Comm5RsendEPKviRKNS_8DatatypeEii>:
  415dcc:	a9bc7bfd 	stp	x29, x30, [sp,#-64]!
  415dd0:	910003fd 	mov	x29, sp
  415dd4:	f9001fe0 	str	x0, [sp,#56]
  415dd8:	f9001be1 	str	x1, [sp,#48]
  415ddc:	b9002fe2 	str	w2, [sp,#44]
  415de0:	f90013e3 	str	x3, [sp,#32]
  415de4:	b9002be4 	str	w4, [sp,#40]
  415de8:	b9001fe5 	str	w5, [sp,#28]
  415dec:	f94013e0 	ldr	x0, [sp,#32]
  415df0:	97fffb3c 	bl	414ae0 <_ZNK3MPI8DatatypecvP15ompi_datatype_tEv>
  415df4:	aa0003e1 	mov	x1, x0
  415df8:	f9401fe0 	ldr	x0, [sp,#56]
  415dfc:	f9400400 	ldr	x0, [x0,#8]
  415e00:	aa0003e5 	mov	x5, x0
  415e04:	b9401fe4 	ldr	w4, [sp,#28]
  415e08:	b9402be3 	ldr	w3, [sp,#40]
  415e0c:	aa0103e2 	mov	x2, x1
  415e10:	b9402fe1 	ldr	w1, [sp,#44]
  415e14:	f9401be0 	ldr	x0, [sp,#48]
  415e18:	97ffcbf2 	bl	408de0 <MPI_Rsend@plt>
  415e1c:	d503201f 	nop
  415e20:	a8c47bfd 	ldp	x29, x30, [sp],#64
  415e24:	d65f03c0 	ret

0000000000415e28 <_ZNK3MPI4Comm5IsendEPKviRKNS_8DatatypeEii>:
  415e28:	a9ba7bfd 	stp	x29, x30, [sp,#-96]!
  415e2c:	910003fd 	mov	x29, sp
  415e30:	f9000bf3 	str	x19, [sp,#16]
  415e34:	aa0803f3 	mov	x19, x8
  415e38:	f90027e0 	str	x0, [sp,#72]
  415e3c:	f90023e1 	str	x1, [sp,#64]
  415e40:	b9003fe2 	str	w2, [sp,#60]
  415e44:	f9001be3 	str	x3, [sp,#48]
  415e48:	b9003be4 	str	w4, [sp,#56]
  415e4c:	b9002fe5 	str	w5, [sp,#44]
  415e50:	f9401be0 	ldr	x0, [sp,#48]
  415e54:	97fffb23 	bl	414ae0 <_ZNK3MPI8DatatypecvP15ompi_datatype_tEv>
  415e58:	aa0003e2 	mov	x2, x0
  415e5c:	f94027e0 	ldr	x0, [sp,#72]
  415e60:	f9400400 	ldr	x0, [x0,#8]
  415e64:	910163e1 	add	x1, sp, #0x58
  415e68:	aa0103e6 	mov	x6, x1
  415e6c:	aa0003e5 	mov	x5, x0
  415e70:	b9402fe4 	ldr	w4, [sp,#44]
  415e74:	b9403be3 	ldr	w3, [sp,#56]
  415e78:	b9403fe1 	ldr	w1, [sp,#60]
  415e7c:	f94023e0 	ldr	x0, [sp,#64]
  415e80:	97ffcb40 	bl	408b80 <MPI_Isend@plt>
  415e84:	f9402fe0 	ldr	x0, [sp,#88]
  415e88:	aa0003e1 	mov	x1, x0
  415e8c:	aa1303e0 	mov	x0, x19
  415e90:	97fffb4f 	bl	414bcc <_ZN3MPI7RequestC1EP14ompi_request_t>
  415e94:	aa1303e0 	mov	x0, x19
  415e98:	f9400bf3 	ldr	x19, [sp,#16]
  415e9c:	a8c67bfd 	ldp	x29, x30, [sp],#96
  415ea0:	d65f03c0 	ret

0000000000415ea4 <_ZNK3MPI4Comm6IbsendEPKviRKNS_8DatatypeEii>:
  415ea4:	a9ba7bfd 	stp	x29, x30, [sp,#-96]!
  415ea8:	910003fd 	mov	x29, sp
  415eac:	f9000bf3 	str	x19, [sp,#16]
  415eb0:	aa0803f3 	mov	x19, x8
  415eb4:	f90027e0 	str	x0, [sp,#72]
  415eb8:	f90023e1 	str	x1, [sp,#64]
  415ebc:	b9003fe2 	str	w2, [sp,#60]
  415ec0:	f9001be3 	str	x3, [sp,#48]
  415ec4:	b9003be4 	str	w4, [sp,#56]
  415ec8:	b9002fe5 	str	w5, [sp,#44]
  415ecc:	f9401be0 	ldr	x0, [sp,#48]
  415ed0:	97fffb04 	bl	414ae0 <_ZNK3MPI8DatatypecvP15ompi_datatype_tEv>
  415ed4:	aa0003e2 	mov	x2, x0
  415ed8:	f94027e0 	ldr	x0, [sp,#72]
  415edc:	f9400400 	ldr	x0, [x0,#8]
  415ee0:	910163e1 	add	x1, sp, #0x58
  415ee4:	aa0103e6 	mov	x6, x1
  415ee8:	aa0003e5 	mov	x5, x0
  415eec:	b9402fe4 	ldr	w4, [sp,#44]
  415ef0:	b9403be3 	ldr	w3, [sp,#56]
  415ef4:	b9403fe1 	ldr	w1, [sp,#60]
  415ef8:	f94023e0 	ldr	x0, [sp,#64]
  415efc:	97ffccdd 	bl	409270 <MPI_Ibsend@plt>
  415f00:	f9402fe0 	ldr	x0, [sp,#88]
  415f04:	aa0003e1 	mov	x1, x0
  415f08:	aa1303e0 	mov	x0, x19
  415f0c:	97fffb30 	bl	414bcc <_ZN3MPI7RequestC1EP14ompi_request_t>
  415f10:	aa1303e0 	mov	x0, x19
  415f14:	f9400bf3 	ldr	x19, [sp,#16]
  415f18:	a8c67bfd 	ldp	x29, x30, [sp],#96
  415f1c:	d65f03c0 	ret

0000000000415f20 <_ZNK3MPI4Comm6IssendEPKviRKNS_8DatatypeEii>:
  415f20:	a9ba7bfd 	stp	x29, x30, [sp,#-96]!
  415f24:	910003fd 	mov	x29, sp
  415f28:	f9000bf3 	str	x19, [sp,#16]
  415f2c:	aa0803f3 	mov	x19, x8
  415f30:	f90027e0 	str	x0, [sp,#72]
  415f34:	f90023e1 	str	x1, [sp,#64]
  415f38:	b9003fe2 	str	w2, [sp,#60]
  415f3c:	f9001be3 	str	x3, [sp,#48]
  415f40:	b9003be4 	str	w4, [sp,#56]
  415f44:	b9002fe5 	str	w5, [sp,#44]
  415f48:	f9401be0 	ldr	x0, [sp,#48]
  415f4c:	97fffae5 	bl	414ae0 <_ZNK3MPI8DatatypecvP15ompi_datatype_tEv>
  415f50:	aa0003e2 	mov	x2, x0
  415f54:	f94027e0 	ldr	x0, [sp,#72]
  415f58:	f9400400 	ldr	x0, [x0,#8]
  415f5c:	910163e1 	add	x1, sp, #0x58
  415f60:	aa0103e6 	mov	x6, x1
  415f64:	aa0003e5 	mov	x5, x0
  415f68:	b9402fe4 	ldr	w4, [sp,#44]
  415f6c:	b9403be3 	ldr	w3, [sp,#56]
  415f70:	b9403fe1 	ldr	w1, [sp,#60]
  415f74:	f94023e0 	ldr	x0, [sp,#64]
  415f78:	97ffcb2e 	bl	408c30 <MPI_Issend@plt>
  415f7c:	f9402fe0 	ldr	x0, [sp,#88]
  415f80:	aa0003e1 	mov	x1, x0
  415f84:	aa1303e0 	mov	x0, x19
  415f88:	97fffb11 	bl	414bcc <_ZN3MPI7RequestC1EP14ompi_request_t>
  415f8c:	aa1303e0 	mov	x0, x19
  415f90:	f9400bf3 	ldr	x19, [sp,#16]
  415f94:	a8c67bfd 	ldp	x29, x30, [sp],#96
  415f98:	d65f03c0 	ret

0000000000415f9c <_ZNK3MPI4Comm6IrsendEPKviRKNS_8DatatypeEii>:
  415f9c:	a9ba7bfd 	stp	x29, x30, [sp,#-96]!
  415fa0:	910003fd 	mov	x29, sp
  415fa4:	f9000bf3 	str	x19, [sp,#16]
  415fa8:	aa0803f3 	mov	x19, x8
  415fac:	f90027e0 	str	x0, [sp,#72]
  415fb0:	f90023e1 	str	x1, [sp,#64]
  415fb4:	b9003fe2 	str	w2, [sp,#60]
  415fb8:	f9001be3 	str	x3, [sp,#48]
  415fbc:	b9003be4 	str	w4, [sp,#56]
  415fc0:	b9002fe5 	str	w5, [sp,#44]
  415fc4:	f9401be0 	ldr	x0, [sp,#48]
  415fc8:	97fffac6 	bl	414ae0 <_ZNK3MPI8DatatypecvP15ompi_datatype_tEv>
  415fcc:	aa0003e2 	mov	x2, x0
  415fd0:	f94027e0 	ldr	x0, [sp,#72]
  415fd4:	f9400400 	ldr	x0, [x0,#8]
  415fd8:	910163e1 	add	x1, sp, #0x58
  415fdc:	aa0103e6 	mov	x6, x1
  415fe0:	aa0003e5 	mov	x5, x0
  415fe4:	b9402fe4 	ldr	w4, [sp,#44]
  415fe8:	b9403be3 	ldr	w3, [sp,#56]
  415fec:	b9403fe1 	ldr	w1, [sp,#60]
  415ff0:	f94023e0 	ldr	x0, [sp,#64]
  415ff4:	97ffca93 	bl	408a40 <MPI_Irsend@plt>
  415ff8:	f9402fe0 	ldr	x0, [sp,#88]
  415ffc:	aa0003e1 	mov	x1, x0
  416000:	aa1303e0 	mov	x0, x19
  416004:	97fffaf2 	bl	414bcc <_ZN3MPI7RequestC1EP14ompi_request_t>
  416008:	aa1303e0 	mov	x0, x19
  41600c:	f9400bf3 	ldr	x19, [sp,#16]
  416010:	a8c67bfd 	ldp	x29, x30, [sp],#96
  416014:	d65f03c0 	ret

0000000000416018 <_ZNK3MPI4Comm5IrecvEPviRKNS_8DatatypeEii>:
  416018:	a9ba7bfd 	stp	x29, x30, [sp,#-96]!
  41601c:	910003fd 	mov	x29, sp
  416020:	f9000bf3 	str	x19, [sp,#16]
  416024:	aa0803f3 	mov	x19, x8
  416028:	f90027e0 	str	x0, [sp,#72]
  41602c:	f90023e1 	str	x1, [sp,#64]
  416030:	b9003fe2 	str	w2, [sp,#60]
  416034:	f9001be3 	str	x3, [sp,#48]
  416038:	b9003be4 	str	w4, [sp,#56]
  41603c:	b9002fe5 	str	w5, [sp,#44]
  416040:	f9401be0 	ldr	x0, [sp,#48]
  416044:	97fffaa7 	bl	414ae0 <_ZNK3MPI8DatatypecvP15ompi_datatype_tEv>
  416048:	aa0003e2 	mov	x2, x0
  41604c:	f94027e0 	ldr	x0, [sp,#72]
  416050:	f9400400 	ldr	x0, [x0,#8]
  416054:	910163e1 	add	x1, sp, #0x58
  416058:	aa0103e6 	mov	x6, x1
  41605c:	aa0003e5 	mov	x5, x0
  416060:	b9402fe4 	ldr	w4, [sp,#44]
  416064:	b9403be3 	ldr	w3, [sp,#56]
  416068:	b9403fe1 	ldr	w1, [sp,#60]
  41606c:	f94023e0 	ldr	x0, [sp,#64]
  416070:	97ffcc38 	bl	409150 <MPI_Irecv@plt>
  416074:	f9402fe0 	ldr	x0, [sp,#88]
  416078:	aa0003e1 	mov	x1, x0
  41607c:	aa1303e0 	mov	x0, x19
  416080:	97fffad3 	bl	414bcc <_ZN3MPI7RequestC1EP14ompi_request_t>
  416084:	aa1303e0 	mov	x0, x19
  416088:	f9400bf3 	ldr	x19, [sp,#16]
  41608c:	a8c67bfd 	ldp	x29, x30, [sp],#96
  416090:	d65f03c0 	ret

0000000000416094 <_ZNK3MPI4Comm6IprobeEiiRNS_6StatusE>:
  416094:	a9bc7bfd 	stp	x29, x30, [sp,#-64]!
  416098:	910003fd 	mov	x29, sp
  41609c:	f90017e0 	str	x0, [sp,#40]
  4160a0:	b90027e1 	str	w1, [sp,#36]
  4160a4:	b90023e2 	str	w2, [sp,#32]
  4160a8:	f9000fe3 	str	x3, [sp,#24]
  4160ac:	f94017e0 	ldr	x0, [sp,#40]
  4160b0:	f9400401 	ldr	x1, [x0,#8]
  4160b4:	f9400fe0 	ldr	x0, [sp,#24]
  4160b8:	91002002 	add	x2, x0, #0x8
  4160bc:	9100f3e0 	add	x0, sp, #0x3c
  4160c0:	aa0203e4 	mov	x4, x2
  4160c4:	aa0003e3 	mov	x3, x0
  4160c8:	aa0103e2 	mov	x2, x1
  4160cc:	b94023e1 	ldr	w1, [sp,#32]
  4160d0:	b94027e0 	ldr	w0, [sp,#36]
  4160d4:	97ffcabb 	bl	408bc0 <MPI_Iprobe@plt>
  4160d8:	b9403fe0 	ldr	w0, [sp,#60]
  4160dc:	7100001f 	cmp	w0, #0x0
  4160e0:	1a9f07e0 	cset	w0, ne
  4160e4:	12001c00 	and	w0, w0, #0xff
  4160e8:	a8c47bfd 	ldp	x29, x30, [sp],#64
  4160ec:	d65f03c0 	ret

00000000004160f0 <_ZNK3MPI4Comm6IprobeEii>:
  4160f0:	a9bd7bfd 	stp	x29, x30, [sp,#-48]!
  4160f4:	910003fd 	mov	x29, sp
  4160f8:	f9000fe0 	str	x0, [sp,#24]
  4160fc:	b90017e1 	str	w1, [sp,#20]
  416100:	b90013e2 	str	w2, [sp,#16]
  416104:	f9400fe0 	ldr	x0, [sp,#24]
  416108:	f9400400 	ldr	x0, [x0,#8]
  41610c:	9100b3e1 	add	x1, sp, #0x2c
  416110:	d2800004 	mov	x4, #0x0                   	// #0
  416114:	aa0103e3 	mov	x3, x1
  416118:	aa0003e2 	mov	x2, x0
  41611c:	b94013e1 	ldr	w1, [sp,#16]
  416120:	b94017e0 	ldr	w0, [sp,#20]
  416124:	97ffcaa7 	bl	408bc0 <MPI_Iprobe@plt>
  416128:	b9402fe0 	ldr	w0, [sp,#44]
  41612c:	7100001f 	cmp	w0, #0x0
  416130:	1a9f07e0 	cset	w0, ne
  416134:	12001c00 	and	w0, w0, #0xff
  416138:	a8c37bfd 	ldp	x29, x30, [sp],#48
  41613c:	d65f03c0 	ret

0000000000416140 <_ZNK3MPI4Comm5ProbeEiiRNS_6StatusE>:
  416140:	a9bd7bfd 	stp	x29, x30, [sp,#-48]!
  416144:	910003fd 	mov	x29, sp
  416148:	f90017e0 	str	x0, [sp,#40]
  41614c:	b90027e1 	str	w1, [sp,#36]
  416150:	b90023e2 	str	w2, [sp,#32]
  416154:	f9000fe3 	str	x3, [sp,#24]
  416158:	f94017e0 	ldr	x0, [sp,#40]
  41615c:	f9400401 	ldr	x1, [x0,#8]
  416160:	f9400fe0 	ldr	x0, [sp,#24]
  416164:	91002000 	add	x0, x0, #0x8
  416168:	aa0003e3 	mov	x3, x0
  41616c:	aa0103e2 	mov	x2, x1
  416170:	b94023e1 	ldr	w1, [sp,#32]
  416174:	b94027e0 	ldr	w0, [sp,#36]
  416178:	97ffca6e 	bl	408b30 <MPI_Probe@plt>
  41617c:	d503201f 	nop
  416180:	a8c37bfd 	ldp	x29, x30, [sp],#48
  416184:	d65f03c0 	ret

0000000000416188 <_ZNK3MPI4Comm5ProbeEii>:
  416188:	a9be7bfd 	stp	x29, x30, [sp,#-32]!
  41618c:	910003fd 	mov	x29, sp
  416190:	f9000fe0 	str	x0, [sp,#24]
  416194:	b90017e1 	str	w1, [sp,#20]
  416198:	b90013e2 	str	w2, [sp,#16]
  41619c:	f9400fe0 	ldr	x0, [sp,#24]
  4161a0:	f9400400 	ldr	x0, [x0,#8]
  4161a4:	d2800003 	mov	x3, #0x0                   	// #0
  4161a8:	aa0003e2 	mov	x2, x0
  4161ac:	b94013e1 	ldr	w1, [sp,#16]
  4161b0:	b94017e0 	ldr	w0, [sp,#20]
  4161b4:	97ffca5f 	bl	408b30 <MPI_Probe@plt>
  4161b8:	d503201f 	nop
  4161bc:	a8c27bfd 	ldp	x29, x30, [sp],#32
  4161c0:	d65f03c0 	ret

00000000004161c4 <_ZNK3MPI4Comm9Send_initEPKviRKNS_8DatatypeEii>:
  4161c4:	a9ba7bfd 	stp	x29, x30, [sp,#-96]!
  4161c8:	910003fd 	mov	x29, sp
  4161cc:	f9000bf3 	str	x19, [sp,#16]
  4161d0:	aa0803f3 	mov	x19, x8
  4161d4:	f90027e0 	str	x0, [sp,#72]
  4161d8:	f90023e1 	str	x1, [sp,#64]
  4161dc:	b9003fe2 	str	w2, [sp,#60]
  4161e0:	f9001be3 	str	x3, [sp,#48]
  4161e4:	b9003be4 	str	w4, [sp,#56]
  4161e8:	b9002fe5 	str	w5, [sp,#44]
  4161ec:	f9401be0 	ldr	x0, [sp,#48]
  4161f0:	97fffa3c 	bl	414ae0 <_ZNK3MPI8DatatypecvP15ompi_datatype_tEv>
  4161f4:	aa0003e2 	mov	x2, x0
  4161f8:	f94027e0 	ldr	x0, [sp,#72]
  4161fc:	f9400400 	ldr	x0, [x0,#8]
  416200:	910163e1 	add	x1, sp, #0x58
  416204:	aa0103e6 	mov	x6, x1
  416208:	aa0003e5 	mov	x5, x0
  41620c:	b9402fe4 	ldr	w4, [sp,#44]
  416210:	b9403be3 	ldr	w3, [sp,#56]
  416214:	b9403fe1 	ldr	w1, [sp,#60]
  416218:	f94023e0 	ldr	x0, [sp,#64]
  41621c:	97ffcb69 	bl	408fc0 <MPI_Send_init@plt>
  416220:	910163e0 	add	x0, sp, #0x58
  416224:	aa0003e1 	mov	x1, x0
  416228:	aa1303e0 	mov	x0, x19
  41622c:	97fffa75 	bl	414c00 <_ZN3MPI8PrequestC1ERKP14ompi_request_t>
  416230:	aa1303e0 	mov	x0, x19
  416234:	f9400bf3 	ldr	x19, [sp,#16]
  416238:	a8c67bfd 	ldp	x29, x30, [sp],#96
  41623c:	d65f03c0 	ret

0000000000416240 <_ZNK3MPI4Comm10Bsend_initEPKviRKNS_8DatatypeEii>:
  416240:	a9ba7bfd 	stp	x29, x30, [sp,#-96]!
  416244:	910003fd 	mov	x29, sp
  416248:	f9000bf3 	str	x19, [sp,#16]
  41624c:	aa0803f3 	mov	x19, x8
  416250:	f90027e0 	str	x0, [sp,#72]
  416254:	f90023e1 	str	x1, [sp,#64]
  416258:	b9003fe2 	str	w2, [sp,#60]
  41625c:	f9001be3 	str	x3, [sp,#48]
  416260:	b9003be4 	str	w4, [sp,#56]
  416264:	b9002fe5 	str	w5, [sp,#44]
  416268:	f9401be0 	ldr	x0, [sp,#48]
  41626c:	97fffa1d 	bl	414ae0 <_ZNK3MPI8DatatypecvP15ompi_datatype_tEv>
  416270:	aa0003e2 	mov	x2, x0
  416274:	f94027e0 	ldr	x0, [sp,#72]
  416278:	f9400400 	ldr	x0, [x0,#8]
  41627c:	910163e1 	add	x1, sp, #0x58
  416280:	aa0103e6 	mov	x6, x1
  416284:	aa0003e5 	mov	x5, x0
  416288:	b9402fe4 	ldr	w4, [sp,#44]
  41628c:	b9403be3 	ldr	w3, [sp,#56]
  416290:	b9403fe1 	ldr	w1, [sp,#60]
  416294:	f94023e0 	ldr	x0, [sp,#64]
  416298:	97ffcaae 	bl	408d50 <MPI_Bsend_init@plt>
  41629c:	910163e0 	add	x0, sp, #0x58
  4162a0:	aa0003e1 	mov	x1, x0
  4162a4:	aa1303e0 	mov	x0, x19
  4162a8:	97fffa56 	bl	414c00 <_ZN3MPI8PrequestC1ERKP14ompi_request_t>
  4162ac:	aa1303e0 	mov	x0, x19
  4162b0:	f9400bf3 	ldr	x19, [sp,#16]
  4162b4:	a8c67bfd 	ldp	x29, x30, [sp],#96
  4162b8:	d65f03c0 	ret

00000000004162bc <_ZNK3MPI4Comm10Ssend_initEPKviRKNS_8DatatypeEii>:
  4162bc:	a9ba7bfd 	stp	x29, x30, [sp,#-96]!
  4162c0:	910003fd 	mov	x29, sp
  4162c4:	f9000bf3 	str	x19, [sp,#16]
  4162c8:	aa0803f3 	mov	x19, x8
  4162cc:	f90027e0 	str	x0, [sp,#72]
  4162d0:	f90023e1 	str	x1, [sp,#64]
  4162d4:	b9003fe2 	str	w2, [sp,#60]
  4162d8:	f9001be3 	str	x3, [sp,#48]
  4162dc:	b9003be4 	str	w4, [sp,#56]
  4162e0:	b9002fe5 	str	w5, [sp,#44]
  4162e4:	f9401be0 	ldr	x0, [sp,#48]
  4162e8:	97fff9fe 	bl	414ae0 <_ZNK3MPI8DatatypecvP15ompi_datatype_tEv>
  4162ec:	aa0003e2 	mov	x2, x0
  4162f0:	f94027e0 	ldr	x0, [sp,#72]
  4162f4:	f9400400 	ldr	x0, [x0,#8]
  4162f8:	910163e1 	add	x1, sp, #0x58
  4162fc:	aa0103e6 	mov	x6, x1
  416300:	aa0003e5 	mov	x5, x0
  416304:	b9402fe4 	ldr	w4, [sp,#44]
  416308:	b9403be3 	ldr	w3, [sp,#56]
  41630c:	b9403fe1 	ldr	w1, [sp,#60]
  416310:	f94023e0 	ldr	x0, [sp,#64]
  416314:	97ffca73 	bl	408ce0 <MPI_Ssend_init@plt>
  416318:	910163e0 	add	x0, sp, #0x58
  41631c:	aa0003e1 	mov	x1, x0
  416320:	aa1303e0 	mov	x0, x19
  416324:	97fffa37 	bl	414c00 <_ZN3MPI8PrequestC1ERKP14ompi_request_t>
  416328:	aa1303e0 	mov	x0, x19
  41632c:	f9400bf3 	ldr	x19, [sp,#16]
  416330:	a8c67bfd 	ldp	x29, x30, [sp],#96
  416334:	d65f03c0 	ret

0000000000416338 <_ZNK3MPI4Comm10Rsend_initEPKviRKNS_8DatatypeEii>:
  416338:	a9ba7bfd 	stp	x29, x30, [sp,#-96]!
  41633c:	910003fd 	mov	x29, sp
  416340:	f9000bf3 	str	x19, [sp,#16]
  416344:	aa0803f3 	mov	x19, x8
  416348:	f90027e0 	str	x0, [sp,#72]
  41634c:	f90023e1 	str	x1, [sp,#64]
  416350:	b9003fe2 	str	w2, [sp,#60]
  416354:	f9001be3 	str	x3, [sp,#48]
  416358:	b9003be4 	str	w4, [sp,#56]
  41635c:	b9002fe5 	str	w5, [sp,#44]
  416360:	f9401be0 	ldr	x0, [sp,#48]
  416364:	97fff9df 	bl	414ae0 <_ZNK3MPI8DatatypecvP15ompi_datatype_tEv>
  416368:	aa0003e2 	mov	x2, x0
  41636c:	f94027e0 	ldr	x0, [sp,#72]
  416370:	f9400400 	ldr	x0, [x0,#8]
  416374:	910163e1 	add	x1, sp, #0x58
  416378:	aa0103e6 	mov	x6, x1
  41637c:	aa0003e5 	mov	x5, x0
  416380:	b9402fe4 	ldr	w4, [sp,#44]
  416384:	b9403be3 	ldr	w3, [sp,#56]
  416388:	b9403fe1 	ldr	w1, [sp,#60]
  41638c:	f94023e0 	ldr	x0, [sp,#64]
  416390:	97ffca68 	bl	408d30 <MPI_Rsend_init@plt>
  416394:	910163e0 	add	x0, sp, #0x58
  416398:	aa0003e1 	mov	x1, x0
  41639c:	aa1303e0 	mov	x0, x19
  4163a0:	97fffa18 	bl	414c00 <_ZN3MPI8PrequestC1ERKP14ompi_request_t>
  4163a4:	aa1303e0 	mov	x0, x19
  4163a8:	f9400bf3 	ldr	x19, [sp,#16]
  4163ac:	a8c67bfd 	ldp	x29, x30, [sp],#96
  4163b0:	d65f03c0 	ret

00000000004163b4 <_ZNK3MPI4Comm9Recv_initEPviRKNS_8DatatypeEii>:
  4163b4:	a9ba7bfd 	stp	x29, x30, [sp,#-96]!
  4163b8:	910003fd 	mov	x29, sp
  4163bc:	f9000bf3 	str	x19, [sp,#16]
  4163c0:	aa0803f3 	mov	x19, x8
  4163c4:	f90027e0 	str	x0, [sp,#72]
  4163c8:	f90023e1 	str	x1, [sp,#64]
  4163cc:	b9003fe2 	str	w2, [sp,#60]
  4163d0:	f9001be3 	str	x3, [sp,#48]
  4163d4:	b9003be4 	str	w4, [sp,#56]
  4163d8:	b9002fe5 	str	w5, [sp,#44]
  4163dc:	f9401be0 	ldr	x0, [sp,#48]
  4163e0:	97fff9c0 	bl	414ae0 <_ZNK3MPI8DatatypecvP15ompi_datatype_tEv>
  4163e4:	aa0003e2 	mov	x2, x0
  4163e8:	f94027e0 	ldr	x0, [sp,#72]
  4163ec:	f9400400 	ldr	x0, [x0,#8]
  4163f0:	910163e1 	add	x1, sp, #0x58
  4163f4:	aa0103e6 	mov	x6, x1
  4163f8:	aa0003e5 	mov	x5, x0
  4163fc:	b9402fe4 	ldr	w4, [sp,#44]
  416400:	b9403be3 	ldr	w3, [sp,#56]
  416404:	b9403fe1 	ldr	w1, [sp,#60]
  416408:	f94023e0 	ldr	x0, [sp,#64]
  41640c:	97ffc97d 	bl	408a00 <MPI_Recv_init@plt>
  416410:	910163e0 	add	x0, sp, #0x58
  416414:	aa0003e1 	mov	x1, x0
  416418:	aa1303e0 	mov	x0, x19
  41641c:	97fff9f9 	bl	414c00 <_ZN3MPI8PrequestC1ERKP14ompi_request_t>
  416420:	aa1303e0 	mov	x0, x19
  416424:	f9400bf3 	ldr	x19, [sp,#16]
  416428:	a8c67bfd 	ldp	x29, x30, [sp],#96
  41642c:	d65f03c0 	ret

0000000000416430 <_ZNK3MPI4Comm8SendrecvEPKviRKNS_8DatatypeEiiPviS5_iiRNS_6StatusE>:
  416430:	d101c3ff 	sub	sp, sp, #0x70
  416434:	a9027bfd 	stp	x29, x30, [sp,#32]
  416438:	910083fd 	add	x29, sp, #0x20
  41643c:	f9001bf3 	str	x19, [sp,#48]
  416440:	f90037e0 	str	x0, [sp,#104]
  416444:	f90033e1 	str	x1, [sp,#96]
  416448:	b9005fe2 	str	w2, [sp,#92]
  41644c:	f9002be3 	str	x3, [sp,#80]
  416450:	b9005be4 	str	w4, [sp,#88]
  416454:	b9004fe5 	str	w5, [sp,#76]
  416458:	f90023e6 	str	x6, [sp,#64]
  41645c:	b9004be7 	str	w7, [sp,#72]
  416460:	f9402be0 	ldr	x0, [sp,#80]
  416464:	97fff99f 	bl	414ae0 <_ZNK3MPI8DatatypecvP15ompi_datatype_tEv>
  416468:	aa0003f3 	mov	x19, x0
  41646c:	f9403be0 	ldr	x0, [sp,#112]
  416470:	97fff99c 	bl	414ae0 <_ZNK3MPI8DatatypecvP15ompi_datatype_tEv>
  416474:	aa0003e2 	mov	x2, x0
  416478:	f94037e0 	ldr	x0, [sp,#104]
  41647c:	f9400400 	ldr	x0, [x0,#8]
  416480:	f94047e1 	ldr	x1, [sp,#136]
  416484:	91002021 	add	x1, x1, #0x8
  416488:	f9000fe1 	str	x1, [sp,#24]
  41648c:	f9000be0 	str	x0, [sp,#16]
  416490:	b94083e0 	ldr	w0, [sp,#128]
  416494:	b9000be0 	str	w0, [sp,#8]
  416498:	b9407be0 	ldr	w0, [sp,#120]
  41649c:	b90003e0 	str	w0, [sp]
  4164a0:	aa0203e7 	mov	x7, x2
  4164a4:	b9404be6 	ldr	w6, [sp,#72]
  4164a8:	f94023e5 	ldr	x5, [sp,#64]
  4164ac:	b9404fe4 	ldr	w4, [sp,#76]
  4164b0:	b9405be3 	ldr	w3, [sp,#88]
  4164b4:	aa1303e2 	mov	x2, x19
  4164b8:	b9405fe1 	ldr	w1, [sp,#92]
  4164bc:	f94033e0 	ldr	x0, [sp,#96]
  4164c0:	97ffca28 	bl	408d60 <MPI_Sendrecv@plt>
  4164c4:	d503201f 	nop
  4164c8:	f9401bf3 	ldr	x19, [sp,#48]
  4164cc:	a9427bfd 	ldp	x29, x30, [sp,#32]
  4164d0:	9101c3ff 	add	sp, sp, #0x70
  4164d4:	d65f03c0 	ret

00000000004164d8 <_ZNK3MPI4Comm8SendrecvEPKviRKNS_8DatatypeEiiPviS5_ii>:
  4164d8:	d101c3ff 	sub	sp, sp, #0x70
  4164dc:	a9027bfd 	stp	x29, x30, [sp,#32]
  4164e0:	910083fd 	add	x29, sp, #0x20
  4164e4:	f9001bf3 	str	x19, [sp,#48]
  4164e8:	f90037e0 	str	x0, [sp,#104]
  4164ec:	f90033e1 	str	x1, [sp,#96]
  4164f0:	b9005fe2 	str	w2, [sp,#92]
  4164f4:	f9002be3 	str	x3, [sp,#80]
  4164f8:	b9005be4 	str	w4, [sp,#88]
  4164fc:	b9004fe5 	str	w5, [sp,#76]
  416500:	f90023e6 	str	x6, [sp,#64]
  416504:	b9004be7 	str	w7, [sp,#72]
  416508:	f9402be0 	ldr	x0, [sp,#80]
  41650c:	97fff975 	bl	414ae0 <_ZNK3MPI8DatatypecvP15ompi_datatype_tEv>
  416510:	aa0003f3 	mov	x19, x0
  416514:	f9403be0 	ldr	x0, [sp,#112]
  416518:	97fff972 	bl	414ae0 <_ZNK3MPI8DatatypecvP15ompi_datatype_tEv>
  41651c:	aa0003e1 	mov	x1, x0
  416520:	f94037e0 	ldr	x0, [sp,#104]
  416524:	f9400400 	ldr	x0, [x0,#8]
  416528:	f9000fff 	str	xzr, [sp,#24]
  41652c:	f9000be0 	str	x0, [sp,#16]
  416530:	b94083e0 	ldr	w0, [sp,#128]
  416534:	b9000be0 	str	w0, [sp,#8]
  416538:	b9407be0 	ldr	w0, [sp,#120]
  41653c:	b90003e0 	str	w0, [sp]
  416540:	aa0103e7 	mov	x7, x1
  416544:	b9404be6 	ldr	w6, [sp,#72]
  416548:	f94023e5 	ldr	x5, [sp,#64]
  41654c:	b9404fe4 	ldr	w4, [sp,#76]
  416550:	b9405be3 	ldr	w3, [sp,#88]
  416554:	aa1303e2 	mov	x2, x19
  416558:	b9405fe1 	ldr	w1, [sp,#92]
  41655c:	f94033e0 	ldr	x0, [sp,#96]
  416560:	97ffca00 	bl	408d60 <MPI_Sendrecv@plt>
  416564:	d503201f 	nop
  416568:	f9401bf3 	ldr	x19, [sp,#48]
  41656c:	a9427bfd 	ldp	x29, x30, [sp,#32]
  416570:	9101c3ff 	add	sp, sp, #0x70
  416574:	d65f03c0 	ret

0000000000416578 <_ZNK3MPI4Comm16Sendrecv_replaceEPviRKNS_8DatatypeEiiiiRNS_6StatusE>:
  416578:	d10143ff 	sub	sp, sp, #0x50
  41657c:	a9017bfd 	stp	x29, x30, [sp,#16]
  416580:	910043fd 	add	x29, sp, #0x10
  416584:	f90027e0 	str	x0, [sp,#72]
  416588:	f90023e1 	str	x1, [sp,#64]
  41658c:	b9003fe2 	str	w2, [sp,#60]
  416590:	f9001be3 	str	x3, [sp,#48]
  416594:	b9003be4 	str	w4, [sp,#56]
  416598:	b9002fe5 	str	w5, [sp,#44]
  41659c:	b9002be6 	str	w6, [sp,#40]
  4165a0:	b90027e7 	str	w7, [sp,#36]
  4165a4:	f9401be0 	ldr	x0, [sp,#48]
  4165a8:	97fff94e 	bl	414ae0 <_ZNK3MPI8DatatypecvP15ompi_datatype_tEv>
  4165ac:	aa0003e2 	mov	x2, x0
  4165b0:	f94027e0 	ldr	x0, [sp,#72]
  4165b4:	f9400401 	ldr	x1, [x0,#8]
  4165b8:	f9402be0 	ldr	x0, [sp,#80]
  4165bc:	91002000 	add	x0, x0, #0x8
  4165c0:	f90003e0 	str	x0, [sp]
  4165c4:	aa0103e7 	mov	x7, x1
  4165c8:	b94027e6 	ldr	w6, [sp,#36]
  4165cc:	b9402be5 	ldr	w5, [sp,#40]
  4165d0:	b9402fe4 	ldr	w4, [sp,#44]
  4165d4:	b9403be3 	ldr	w3, [sp,#56]
  4165d8:	b9403fe1 	ldr	w1, [sp,#60]
  4165dc:	f94023e0 	ldr	x0, [sp,#64]
  4165e0:	97ffcad8 	bl	409140 <MPI_Sendrecv_replace@plt>
  4165e4:	d503201f 	nop
  4165e8:	a9417bfd 	ldp	x29, x30, [sp,#16]
  4165ec:	910143ff 	add	sp, sp, #0x50
  4165f0:	d65f03c0 	ret

00000000004165f4 <_ZNK3MPI4Comm16Sendrecv_replaceEPviRKNS_8DatatypeEiiii>:
  4165f4:	d10143ff 	sub	sp, sp, #0x50
  4165f8:	a9017bfd 	stp	x29, x30, [sp,#16]
  4165fc:	910043fd 	add	x29, sp, #0x10
  416600:	f90027e0 	str	x0, [sp,#72]
  416604:	f90023e1 	str	x1, [sp,#64]
  416608:	b9003fe2 	str	w2, [sp,#60]
  41660c:	f9001be3 	str	x3, [sp,#48]
  416610:	b9003be4 	str	w4, [sp,#56]
  416614:	b9002fe5 	str	w5, [sp,#44]
  416618:	b9002be6 	str	w6, [sp,#40]
  41661c:	b90027e7 	str	w7, [sp,#36]
  416620:	f9401be0 	ldr	x0, [sp,#48]
  416624:	97fff92f 	bl	414ae0 <_ZNK3MPI8DatatypecvP15ompi_datatype_tEv>
  416628:	aa0003e1 	mov	x1, x0
  41662c:	f94027e0 	ldr	x0, [sp,#72]
  416630:	f9400400 	ldr	x0, [x0,#8]
  416634:	f90003ff 	str	xzr, [sp]
  416638:	aa0003e7 	mov	x7, x0
  41663c:	b94027e6 	ldr	w6, [sp,#36]
  416640:	b9402be5 	ldr	w5, [sp,#40]
  416644:	b9402fe4 	ldr	w4, [sp,#44]
  416648:	b9403be3 	ldr	w3, [sp,#56]
  41664c:	aa0103e2 	mov	x2, x1
  416650:	b9403fe1 	ldr	w1, [sp,#60]
  416654:	f94023e0 	ldr	x0, [sp,#64]
  416658:	97ffcaba 	bl	409140 <MPI_Sendrecv_replace@plt>
  41665c:	d503201f 	nop
  416660:	a9417bfd 	ldp	x29, x30, [sp,#16]
  416664:	910143ff 	add	sp, sp, #0x50
  416668:	d65f03c0 	ret

000000000041666c <_ZNK3MPI4Comm9Get_groupEv>:
  41666c:	a9bc7bfd 	stp	x29, x30, [sp,#-64]!
  416670:	910003fd 	mov	x29, sp
  416674:	f9000bf3 	str	x19, [sp,#16]
  416678:	aa0803f3 	mov	x19, x8
  41667c:	f90017e0 	str	x0, [sp,#40]
  416680:	f94017e0 	ldr	x0, [sp,#40]
  416684:	f9400400 	ldr	x0, [x0,#8]
  416688:	9100e3e1 	add	x1, sp, #0x38
  41668c:	97ffc9e5 	bl	408e20 <MPI_Comm_group@plt>
  416690:	f9401fe0 	ldr	x0, [sp,#56]
  416694:	aa0003e1 	mov	x1, x0
  416698:	aa1303e0 	mov	x0, x19
  41669c:	97fff996 	bl	414cf4 <_ZN3MPI5GroupC1EP12ompi_group_t>
  4166a0:	aa1303e0 	mov	x0, x19
  4166a4:	f9400bf3 	ldr	x19, [sp,#16]
  4166a8:	a8c47bfd 	ldp	x29, x30, [sp],#64
  4166ac:	d65f03c0 	ret

00000000004166b0 <_ZNK3MPI4Comm8Get_sizeEv>:
  4166b0:	a9bd7bfd 	stp	x29, x30, [sp,#-48]!
  4166b4:	910003fd 	mov	x29, sp
  4166b8:	f9000fe0 	str	x0, [sp,#24]
  4166bc:	f9400fe0 	ldr	x0, [sp,#24]
  4166c0:	f9400400 	ldr	x0, [x0,#8]
  4166c4:	9100b3e1 	add	x1, sp, #0x2c
  4166c8:	97ffca56 	bl	409020 <MPI_Comm_size@plt>
  4166cc:	b9402fe0 	ldr	w0, [sp,#44]
  4166d0:	a8c37bfd 	ldp	x29, x30, [sp],#48
  4166d4:	d65f03c0 	ret

00000000004166d8 <_ZNK3MPI4Comm8Get_rankEv>:
  4166d8:	a9bd7bfd 	stp	x29, x30, [sp,#-48]!
  4166dc:	910003fd 	mov	x29, sp
  4166e0:	f9000fe0 	str	x0, [sp,#24]
  4166e4:	f9400fe0 	ldr	x0, [sp,#24]
  4166e8:	f9400400 	ldr	x0, [x0,#8]
  4166ec:	9100b3e1 	add	x1, sp, #0x2c
  4166f0:	97ffcab4 	bl	4091c0 <MPI_Comm_rank@plt>
  4166f4:	b9402fe0 	ldr	w0, [sp,#44]
  4166f8:	a8c37bfd 	ldp	x29, x30, [sp],#48
  4166fc:	d65f03c0 	ret

0000000000416700 <_ZN3MPI4Comm4FreeEv>:
  416700:	a9be7bfd 	stp	x29, x30, [sp,#-32]!
  416704:	910003fd 	mov	x29, sp
  416708:	f9000fe0 	str	x0, [sp,#24]
  41670c:	f9400fe0 	ldr	x0, [sp,#24]
  416710:	91002000 	add	x0, x0, #0x8
  416714:	97ffcae7 	bl	4092b0 <MPI_Comm_free@plt>
  416718:	d503201f 	nop
  41671c:	a8c27bfd 	ldp	x29, x30, [sp],#32
  416720:	d65f03c0 	ret

0000000000416724 <_ZNK3MPI4Comm8Is_interEv>:
  416724:	a9bd7bfd 	stp	x29, x30, [sp,#-48]!
  416728:	910003fd 	mov	x29, sp
  41672c:	f9000fe0 	str	x0, [sp,#24]
  416730:	f9400fe0 	ldr	x0, [sp,#24]
  416734:	f9400400 	ldr	x0, [x0,#8]
  416738:	9100b3e1 	add	x1, sp, #0x2c
  41673c:	97ffcb89 	bl	409560 <MPI_Comm_test_inter@plt>
  416740:	b9402fe0 	ldr	w0, [sp,#44]
  416744:	7100001f 	cmp	w0, #0x0
  416748:	1a9f07e0 	cset	w0, ne
  41674c:	12001c00 	and	w0, w0, #0xff
  416750:	a8c37bfd 	ldp	x29, x30, [sp],#48
  416754:	d65f03c0 	ret

0000000000416758 <_ZNK3MPI4Comm7BarrierEv>:
  416758:	a9be7bfd 	stp	x29, x30, [sp,#-32]!
  41675c:	910003fd 	mov	x29, sp
  416760:	f9000fe0 	str	x0, [sp,#24]
  416764:	f9400fe0 	ldr	x0, [sp,#24]
  416768:	f9400400 	ldr	x0, [x0,#8]
  41676c:	97ffc965 	bl	408d00 <MPI_Barrier@plt>
  416770:	d503201f 	nop
  416774:	a8c27bfd 	ldp	x29, x30, [sp],#32
  416778:	d65f03c0 	ret

000000000041677c <_ZNK3MPI4Comm5BcastEPviRKNS_8DatatypeEi>:
  41677c:	a9bd7bfd 	stp	x29, x30, [sp,#-48]!
  416780:	910003fd 	mov	x29, sp
  416784:	f90017e0 	str	x0, [sp,#40]
  416788:	f90013e1 	str	x1, [sp,#32]
  41678c:	b9001fe2 	str	w2, [sp,#28]
  416790:	f9000be3 	str	x3, [sp,#16]
  416794:	b9001be4 	str	w4, [sp,#24]
  416798:	f9400be0 	ldr	x0, [sp,#16]
  41679c:	97fff8d1 	bl	414ae0 <_ZNK3MPI8DatatypecvP15ompi_datatype_tEv>
  4167a0:	aa0003e1 	mov	x1, x0
  4167a4:	f94017e0 	ldr	x0, [sp,#40]
  4167a8:	f9400400 	ldr	x0, [x0,#8]
  4167ac:	aa0003e4 	mov	x4, x0
  4167b0:	b9401be3 	ldr	w3, [sp,#24]
  4167b4:	aa0103e2 	mov	x2, x1
  4167b8:	b9401fe1 	ldr	w1, [sp,#28]
  4167bc:	f94013e0 	ldr	x0, [sp,#32]
  4167c0:	97ffc8a4 	bl	408a50 <MPI_Bcast@plt>
  4167c4:	d503201f 	nop
  4167c8:	a8c37bfd 	ldp	x29, x30, [sp],#48
  4167cc:	d65f03c0 	ret

00000000004167d0 <_ZNK3MPI4Comm6GatherEPKviRKNS_8DatatypeEPviS5_i>:
  4167d0:	a9ba7bfd 	stp	x29, x30, [sp,#-96]!
  4167d4:	910003fd 	mov	x29, sp
  4167d8:	f9000bf3 	str	x19, [sp,#16]
  4167dc:	f9002fe0 	str	x0, [sp,#88]
  4167e0:	f9002be1 	str	x1, [sp,#80]
  4167e4:	b9004fe2 	str	w2, [sp,#76]
  4167e8:	f90023e3 	str	x3, [sp,#64]
  4167ec:	f9001fe4 	str	x4, [sp,#56]
  4167f0:	b9004be5 	str	w5, [sp,#72]
  4167f4:	f9001be6 	str	x6, [sp,#48]
  4167f8:	b9002fe7 	str	w7, [sp,#44]
  4167fc:	f94023e0 	ldr	x0, [sp,#64]
  416800:	97fff8b8 	bl	414ae0 <_ZNK3MPI8DatatypecvP15ompi_datatype_tEv>
  416804:	aa0003f3 	mov	x19, x0
  416808:	f9401be0 	ldr	x0, [sp,#48]
  41680c:	97fff8b5 	bl	414ae0 <_ZNK3MPI8DatatypecvP15ompi_datatype_tEv>
  416810:	aa0003e1 	mov	x1, x0
  416814:	f9402fe0 	ldr	x0, [sp,#88]
  416818:	f9400400 	ldr	x0, [x0,#8]
  41681c:	aa0003e7 	mov	x7, x0
  416820:	b9402fe6 	ldr	w6, [sp,#44]
  416824:	aa0103e5 	mov	x5, x1
  416828:	b9404be4 	ldr	w4, [sp,#72]
  41682c:	f9401fe3 	ldr	x3, [sp,#56]
  416830:	aa1303e2 	mov	x2, x19
  416834:	b9404fe1 	ldr	w1, [sp,#76]
  416838:	f9402be0 	ldr	x0, [sp,#80]
  41683c:	97ffc959 	bl	408da0 <MPI_Gather@plt>
  416840:	d503201f 	nop
  416844:	f9400bf3 	ldr	x19, [sp,#16]
  416848:	a8c67bfd 	ldp	x29, x30, [sp],#96
  41684c:	d65f03c0 	ret

0000000000416850 <_ZNK3MPI4Comm7GathervEPKviRKNS_8DatatypeEPvPKiS8_S5_i>:
  416850:	d101c3ff 	sub	sp, sp, #0x70
  416854:	a9017bfd 	stp	x29, x30, [sp,#16]
  416858:	910043fd 	add	x29, sp, #0x10
  41685c:	f90013f3 	str	x19, [sp,#32]
  416860:	f90037e0 	str	x0, [sp,#104]
  416864:	f90033e1 	str	x1, [sp,#96]
  416868:	b9005fe2 	str	w2, [sp,#92]
  41686c:	f9002be3 	str	x3, [sp,#80]
  416870:	f90027e4 	str	x4, [sp,#72]
  416874:	f90023e5 	str	x5, [sp,#64]
  416878:	f9001fe6 	str	x6, [sp,#56]
  41687c:	f9001be7 	str	x7, [sp,#48]
  416880:	f9402be0 	ldr	x0, [sp,#80]
  416884:	97fff897 	bl	414ae0 <_ZNK3MPI8DatatypecvP15ompi_datatype_tEv>
  416888:	aa0003f3 	mov	x19, x0
  41688c:	f9401be0 	ldr	x0, [sp,#48]
  416890:	97fff894 	bl	414ae0 <_ZNK3MPI8DatatypecvP15ompi_datatype_tEv>
  416894:	aa0003e1 	mov	x1, x0
  416898:	f94037e0 	ldr	x0, [sp,#104]
  41689c:	f9400400 	ldr	x0, [x0,#8]
  4168a0:	f90003e0 	str	x0, [sp]
  4168a4:	b94073e7 	ldr	w7, [sp,#112]
  4168a8:	aa0103e6 	mov	x6, x1
  4168ac:	f9401fe5 	ldr	x5, [sp,#56]
  4168b0:	f94023e4 	ldr	x4, [sp,#64]
  4168b4:	f94027e3 	ldr	x3, [sp,#72]
  4168b8:	aa1303e2 	mov	x2, x19
  4168bc:	b9405fe1 	ldr	w1, [sp,#92]
  4168c0:	f94033e0 	ldr	x0, [sp,#96]
  4168c4:	97ffcae7 	bl	409460 <MPI_Gatherv@plt>
  4168c8:	d503201f 	nop
  4168cc:	f94013f3 	ldr	x19, [sp,#32]
  4168d0:	a9417bfd 	ldp	x29, x30, [sp,#16]
  4168d4:	9101c3ff 	add	sp, sp, #0x70
  4168d8:	d65f03c0 	ret

00000000004168dc <_ZNK3MPI4Comm7ScatterEPKviRKNS_8DatatypeEPviS5_i>:
  4168dc:	a9ba7bfd 	stp	x29, x30, [sp,#-96]!
  4168e0:	910003fd 	mov	x29, sp
  4168e4:	f9000bf3 	str	x19, [sp,#16]
  4168e8:	f9002fe0 	str	x0, [sp,#88]
  4168ec:	f9002be1 	str	x1, [sp,#80]
  4168f0:	b9004fe2 	str	w2, [sp,#76]
  4168f4:	f90023e3 	str	x3, [sp,#64]
  4168f8:	f9001fe4 	str	x4, [sp,#56]
  4168fc:	b9004be5 	str	w5, [sp,#72]
  416900:	f9001be6 	str	x6, [sp,#48]
  416904:	b9002fe7 	str	w7, [sp,#44]
  416908:	f94023e0 	ldr	x0, [sp,#64]
  41690c:	97fff875 	bl	414ae0 <_ZNK3MPI8DatatypecvP15ompi_datatype_tEv>
  416910:	aa0003f3 	mov	x19, x0
  416914:	f9401be0 	ldr	x0, [sp,#48]
  416918:	97fff872 	bl	414ae0 <_ZNK3MPI8DatatypecvP15ompi_datatype_tEv>
  41691c:	aa0003e1 	mov	x1, x0
  416920:	f9402fe0 	ldr	x0, [sp,#88]
  416924:	f9400400 	ldr	x0, [x0,#8]
  416928:	aa0003e7 	mov	x7, x0
  41692c:	b9402fe6 	ldr	w6, [sp,#44]
  416930:	aa0103e5 	mov	x5, x1
  416934:	b9404be4 	ldr	w4, [sp,#72]
  416938:	f9401fe3 	ldr	x3, [sp,#56]
  41693c:	aa1303e2 	mov	x2, x19
  416940:	b9404fe1 	ldr	w1, [sp,#76]
  416944:	f9402be0 	ldr	x0, [sp,#80]
  416948:	97ffc8de 	bl	408cc0 <MPI_Scatter@plt>
  41694c:	d503201f 	nop
  416950:	f9400bf3 	ldr	x19, [sp,#16]
  416954:	a8c67bfd 	ldp	x29, x30, [sp],#96
  416958:	d65f03c0 	ret

000000000041695c <_ZNK3MPI4Comm8ScattervEPKvPKiS4_RKNS_8DatatypeEPviS7_i>:
  41695c:	d101c3ff 	sub	sp, sp, #0x70
  416960:	a9017bfd 	stp	x29, x30, [sp,#16]
  416964:	910043fd 	add	x29, sp, #0x10
  416968:	f90013f3 	str	x19, [sp,#32]
  41696c:	f90037e0 	str	x0, [sp,#104]
  416970:	f90033e1 	str	x1, [sp,#96]
  416974:	f9002fe2 	str	x2, [sp,#88]
  416978:	f9002be3 	str	x3, [sp,#80]
  41697c:	f90027e4 	str	x4, [sp,#72]
  416980:	f90023e5 	str	x5, [sp,#64]
  416984:	b9003fe6 	str	w6, [sp,#60]
  416988:	f9001be7 	str	x7, [sp,#48]
  41698c:	f94027e0 	ldr	x0, [sp,#72]
  416990:	97fff854 	bl	414ae0 <_ZNK3MPI8DatatypecvP15ompi_datatype_tEv>
  416994:	aa0003f3 	mov	x19, x0
  416998:	f9401be0 	ldr	x0, [sp,#48]
  41699c:	97fff851 	bl	414ae0 <_ZNK3MPI8DatatypecvP15ompi_datatype_tEv>
  4169a0:	aa0003e1 	mov	x1, x0
  4169a4:	f94037e0 	ldr	x0, [sp,#104]
  4169a8:	f9400400 	ldr	x0, [x0,#8]
  4169ac:	f90003e0 	str	x0, [sp]
  4169b0:	b94073e7 	ldr	w7, [sp,#112]
  4169b4:	aa0103e6 	mov	x6, x1
  4169b8:	b9403fe5 	ldr	w5, [sp,#60]
  4169bc:	f94023e4 	ldr	x4, [sp,#64]
  4169c0:	aa1303e3 	mov	x3, x19
  4169c4:	f9402be2 	ldr	x2, [sp,#80]
  4169c8:	f9402fe1 	ldr	x1, [sp,#88]
  4169cc:	f94033e0 	ldr	x0, [sp,#96]
  4169d0:	97ffc894 	bl	408c20 <MPI_Scatterv@plt>
  4169d4:	d503201f 	nop
  4169d8:	f94013f3 	ldr	x19, [sp,#32]
  4169dc:	a9417bfd 	ldp	x29, x30, [sp,#16]
  4169e0:	9101c3ff 	add	sp, sp, #0x70
  4169e4:	d65f03c0 	ret

00000000004169e8 <_ZNK3MPI4Comm9AllgatherEPKviRKNS_8DatatypeEPviS5_>:
  4169e8:	a9bb7bfd 	stp	x29, x30, [sp,#-80]!
  4169ec:	910003fd 	mov	x29, sp
  4169f0:	f9000bf3 	str	x19, [sp,#16]
  4169f4:	f90027e0 	str	x0, [sp,#72]
  4169f8:	f90023e1 	str	x1, [sp,#64]
  4169fc:	b9003fe2 	str	w2, [sp,#60]
  416a00:	f9001be3 	str	x3, [sp,#48]
  416a04:	f90017e4 	str	x4, [sp,#40]
  416a08:	b9003be5 	str	w5, [sp,#56]
  416a0c:	f90013e6 	str	x6, [sp,#32]
  416a10:	f9401be0 	ldr	x0, [sp,#48]
  416a14:	97fff833 	bl	414ae0 <_ZNK3MPI8DatatypecvP15ompi_datatype_tEv>
  416a18:	aa0003f3 	mov	x19, x0
  416a1c:	f94013e0 	ldr	x0, [sp,#32]
  416a20:	97fff830 	bl	414ae0 <_ZNK3MPI8DatatypecvP15ompi_datatype_tEv>
  416a24:	aa0003e1 	mov	x1, x0
  416a28:	f94027e0 	ldr	x0, [sp,#72]
  416a2c:	f9400400 	ldr	x0, [x0,#8]
  416a30:	aa0003e6 	mov	x6, x0
  416a34:	aa0103e5 	mov	x5, x1
  416a38:	b9403be4 	ldr	w4, [sp,#56]
  416a3c:	f94017e3 	ldr	x3, [sp,#40]
  416a40:	aa1303e2 	mov	x2, x19
  416a44:	b9403fe1 	ldr	w1, [sp,#60]
  416a48:	f94023e0 	ldr	x0, [sp,#64]
  416a4c:	97ffc7e9 	bl	4089f0 <MPI_Allgather@plt>
  416a50:	d503201f 	nop
  416a54:	f9400bf3 	ldr	x19, [sp,#16]
  416a58:	a8c57bfd 	ldp	x29, x30, [sp],#80
  416a5c:	d65f03c0 	ret

0000000000416a60 <_ZNK3MPI4Comm10AllgathervEPKviRKNS_8DatatypeEPvPKiS8_S5_>:
  416a60:	a9ba7bfd 	stp	x29, x30, [sp,#-96]!
  416a64:	910003fd 	mov	x29, sp
  416a68:	f9000bf3 	str	x19, [sp,#16]
  416a6c:	f9002fe0 	str	x0, [sp,#88]
  416a70:	f9002be1 	str	x1, [sp,#80]
  416a74:	b9004fe2 	str	w2, [sp,#76]
  416a78:	f90023e3 	str	x3, [sp,#64]
  416a7c:	f9001fe4 	str	x4, [sp,#56]
  416a80:	f9001be5 	str	x5, [sp,#48]
  416a84:	f90017e6 	str	x6, [sp,#40]
  416a88:	f90013e7 	str	x7, [sp,#32]
  416a8c:	f94023e0 	ldr	x0, [sp,#64]
  416a90:	97fff814 	bl	414ae0 <_ZNK3MPI8DatatypecvP15ompi_datatype_tEv>
  416a94:	aa0003f3 	mov	x19, x0
  416a98:	f94013e0 	ldr	x0, [sp,#32]
  416a9c:	97fff811 	bl	414ae0 <_ZNK3MPI8DatatypecvP15ompi_datatype_tEv>
  416aa0:	aa0003e1 	mov	x1, x0
  416aa4:	f9402fe0 	ldr	x0, [sp,#88]
  416aa8:	f9400400 	ldr	x0, [x0,#8]
  416aac:	aa0003e7 	mov	x7, x0
  416ab0:	aa0103e6 	mov	x6, x1
  416ab4:	f94017e5 	ldr	x5, [sp,#40]
  416ab8:	f9401be4 	ldr	x4, [sp,#48]
  416abc:	f9401fe3 	ldr	x3, [sp,#56]
  416ac0:	aa1303e2 	mov	x2, x19
  416ac4:	b9404fe1 	ldr	w1, [sp,#76]
  416ac8:	f9402be0 	ldr	x0, [sp,#80]
  416acc:	97ffc96d 	bl	409080 <MPI_Allgatherv@plt>
  416ad0:	d503201f 	nop
  416ad4:	f9400bf3 	ldr	x19, [sp,#16]
  416ad8:	a8c67bfd 	ldp	x29, x30, [sp],#96
  416adc:	d65f03c0 	ret

0000000000416ae0 <_ZNK3MPI4Comm8AlltoallEPKviRKNS_8DatatypeEPviS5_>:
  416ae0:	a9bb7bfd 	stp	x29, x30, [sp,#-80]!
  416ae4:	910003fd 	mov	x29, sp
  416ae8:	f9000bf3 	str	x19, [sp,#16]
  416aec:	f90027e0 	str	x0, [sp,#72]
  416af0:	f90023e1 	str	x1, [sp,#64]
  416af4:	b9003fe2 	str	w2, [sp,#60]
  416af8:	f9001be3 	str	x3, [sp,#48]
  416afc:	f90017e4 	str	x4, [sp,#40]
  416b00:	b9003be5 	str	w5, [sp,#56]
  416b04:	f90013e6 	str	x6, [sp,#32]
  416b08:	f9401be0 	ldr	x0, [sp,#48]
  416b0c:	97fff7f5 	bl	414ae0 <_ZNK3MPI8DatatypecvP15ompi_datatype_tEv>
  416b10:	aa0003f3 	mov	x19, x0
  416b14:	f94013e0 	ldr	x0, [sp,#32]
  416b18:	97fff7f2 	bl	414ae0 <_ZNK3MPI8DatatypecvP15ompi_datatype_tEv>
  416b1c:	aa0003e1 	mov	x1, x0
  416b20:	f94027e0 	ldr	x0, [sp,#72]
  416b24:	f9400400 	ldr	x0, [x0,#8]
  416b28:	aa0003e6 	mov	x6, x0
  416b2c:	aa0103e5 	mov	x5, x1
  416b30:	b9403be4 	ldr	w4, [sp,#56]
  416b34:	f94017e3 	ldr	x3, [sp,#40]
  416b38:	aa1303e2 	mov	x2, x19
  416b3c:	b9403fe1 	ldr	w1, [sp,#60]
  416b40:	f94023e0 	ldr	x0, [sp,#64]
  416b44:	97ffc82b 	bl	408bf0 <MPI_Alltoall@plt>
  416b48:	d503201f 	nop
  416b4c:	f9400bf3 	ldr	x19, [sp,#16]
  416b50:	a8c57bfd 	ldp	x29, x30, [sp],#80
  416b54:	d65f03c0 	ret

0000000000416b58 <_ZNK3MPI4Comm9AlltoallvEPKvPKiS4_RKNS_8DatatypeEPvS4_S4_S7_>:
  416b58:	d101c3ff 	sub	sp, sp, #0x70
  416b5c:	a9017bfd 	stp	x29, x30, [sp,#16]
  416b60:	910043fd 	add	x29, sp, #0x10
  416b64:	f90013f3 	str	x19, [sp,#32]
  416b68:	f90037e0 	str	x0, [sp,#104]
  416b6c:	f90033e1 	str	x1, [sp,#96]
  416b70:	f9002fe2 	str	x2, [sp,#88]
  416b74:	f9002be3 	str	x3, [sp,#80]
  416b78:	f90027e4 	str	x4, [sp,#72]
  416b7c:	f90023e5 	str	x5, [sp,#64]
  416b80:	f9001fe6 	str	x6, [sp,#56]
  416b84:	f9001be7 	str	x7, [sp,#48]
  416b88:	f94027e0 	ldr	x0, [sp,#72]
  416b8c:	97fff7d5 	bl	414ae0 <_ZNK3MPI8DatatypecvP15ompi_datatype_tEv>
  416b90:	aa0003f3 	mov	x19, x0
  416b94:	f9403be0 	ldr	x0, [sp,#112]
  416b98:	97fff7d2 	bl	414ae0 <_ZNK3MPI8DatatypecvP15ompi_datatype_tEv>
  416b9c:	aa0003e1 	mov	x1, x0
  416ba0:	f94037e0 	ldr	x0, [sp,#104]
  416ba4:	f9400400 	ldr	x0, [x0,#8]
  416ba8:	f90003e0 	str	x0, [sp]
  416bac:	aa0103e7 	mov	x7, x1
  416bb0:	f9401be6 	ldr	x6, [sp,#48]
  416bb4:	f9401fe5 	ldr	x5, [sp,#56]
  416bb8:	f94023e4 	ldr	x4, [sp,#64]
  416bbc:	aa1303e3 	mov	x3, x19
  416bc0:	f9402be2 	ldr	x2, [sp,#80]
  416bc4:	f9402fe1 	ldr	x1, [sp,#88]
  416bc8:	f94033e0 	ldr	x0, [sp,#96]
  416bcc:	97ffc9ad 	bl	409280 <MPI_Alltoallv@plt>
  416bd0:	d503201f 	nop
  416bd4:	f94013f3 	ldr	x19, [sp,#32]
  416bd8:	a9417bfd 	ldp	x29, x30, [sp,#16]
  416bdc:	9101c3ff 	add	sp, sp, #0x70
  416be0:	d65f03c0 	ret

0000000000416be4 <_ZNK3MPI4Comm9AlltoallwEPKvPKiS4_PKNS_8DatatypeEPvS4_S4_S7_>:
  416be4:	d10203ff 	sub	sp, sp, #0x80
  416be8:	a9017bfd 	stp	x29, x30, [sp,#16]
  416bec:	910043fd 	add	x29, sp, #0x10
  416bf0:	f90013f3 	str	x19, [sp,#32]
  416bf4:	f90037e0 	str	x0, [sp,#104]
  416bf8:	f90033e1 	str	x1, [sp,#96]
  416bfc:	f9002fe2 	str	x2, [sp,#88]
  416c00:	f9002be3 	str	x3, [sp,#80]
  416c04:	f90027e4 	str	x4, [sp,#72]
  416c08:	f90023e5 	str	x5, [sp,#64]
  416c0c:	f9001fe6 	str	x6, [sp,#56]
  416c10:	f9001be7 	str	x7, [sp,#48]
  416c14:	f94037e0 	ldr	x0, [sp,#104]
  416c18:	f9400000 	ldr	x0, [x0]
  416c1c:	91036000 	add	x0, x0, #0xd8
  416c20:	f9400001 	ldr	x1, [x0]
  416c24:	f94037e0 	ldr	x0, [sp,#104]
  416c28:	d63f0020 	blr	x1
  416c2c:	b9007be0 	str	w0, [sp,#120]
  416c30:	b9407be0 	ldr	w0, [sp,#120]
  416c34:	531f7800 	lsl	w0, w0, #1
  416c38:	93407c01 	sxtw	x1, w0
  416c3c:	92fe0000 	mov	x0, #0xfffffffffffffff     	// #1152921504606846975
  416c40:	eb00003f 	cmp	x1, x0
  416c44:	54000128 	b.hi	416c68 <_ZNK3MPI4Comm9AlltoallwEPKvPKiS4_PKNS_8DatatypeEPvS4_S4_S7_+0x84>
  416c48:	b9407be0 	ldr	w0, [sp,#120]
  416c4c:	531f7800 	lsl	w0, w0, #1
  416c50:	93407c00 	sxtw	x0, w0
  416c54:	d37df000 	lsl	x0, x0, #3
  416c58:	97ffc756 	bl	4089b0 <_Znam@plt>
  416c5c:	f9003be0 	str	x0, [sp,#112]
  416c60:	b9007fff 	str	wzr, [sp,#124]
  416c64:	1400001e 	b	416cdc <_ZNK3MPI4Comm9AlltoallwEPKvPKiS4_PKNS_8DatatypeEPvS4_S4_S7_+0xf8>
  416c68:	97ffc952 	bl	4091b0 <__cxa_throw_bad_array_new_length@plt>
  416c6c:	b9807fe0 	ldrsw	x0, [sp,#124]
  416c70:	d37cec00 	lsl	x0, x0, #4
  416c74:	f94027e1 	ldr	x1, [sp,#72]
  416c78:	8b000022 	add	x2, x1, x0
  416c7c:	b9807fe0 	ldrsw	x0, [sp,#124]
  416c80:	d37df000 	lsl	x0, x0, #3
  416c84:	f9403be1 	ldr	x1, [sp,#112]
  416c88:	8b000033 	add	x19, x1, x0
  416c8c:	aa0203e0 	mov	x0, x2
  416c90:	97fff794 	bl	414ae0 <_ZNK3MPI8DatatypecvP15ompi_datatype_tEv>
  416c94:	f9000260 	str	x0, [x19]
  416c98:	b9807fe0 	ldrsw	x0, [sp,#124]
  416c9c:	d37cec00 	lsl	x0, x0, #4
  416ca0:	f94043e1 	ldr	x1, [sp,#128]
  416ca4:	8b000022 	add	x2, x1, x0
  416ca8:	b9407fe1 	ldr	w1, [sp,#124]
  416cac:	b9407be0 	ldr	w0, [sp,#120]
  416cb0:	0b000020 	add	w0, w1, w0
  416cb4:	93407c00 	sxtw	x0, w0
  416cb8:	d37df000 	lsl	x0, x0, #3
  416cbc:	f9403be1 	ldr	x1, [sp,#112]
  416cc0:	8b000033 	add	x19, x1, x0
  416cc4:	aa0203e0 	mov	x0, x2
  416cc8:	97fff786 	bl	414ae0 <_ZNK3MPI8DatatypecvP15ompi_datatype_tEv>
  416ccc:	f9000260 	str	x0, [x19]
  416cd0:	b9407fe0 	ldr	w0, [sp,#124]
  416cd4:	11000400 	add	w0, w0, #0x1
  416cd8:	b9007fe0 	str	w0, [sp,#124]
  416cdc:	b9407fe1 	ldr	w1, [sp,#124]
  416ce0:	b9407be0 	ldr	w0, [sp,#120]
  416ce4:	6b00003f 	cmp	w1, w0
  416ce8:	54fffc2b 	b.lt	416c6c <_ZNK3MPI4Comm9AlltoallwEPKvPKiS4_PKNS_8DatatypeEPvS4_S4_S7_+0x88>
  416cec:	b9807be0 	ldrsw	x0, [sp,#120]
  416cf0:	d37df000 	lsl	x0, x0, #3
  416cf4:	f9403be1 	ldr	x1, [sp,#112]
  416cf8:	8b000021 	add	x1, x1, x0
  416cfc:	f94037e0 	ldr	x0, [sp,#104]
  416d00:	f9400400 	ldr	x0, [x0,#8]
  416d04:	f90003e0 	str	x0, [sp]
  416d08:	aa0103e7 	mov	x7, x1
  416d0c:	f9401be6 	ldr	x6, [sp,#48]
  416d10:	f9401fe5 	ldr	x5, [sp,#56]
  416d14:	f94023e4 	ldr	x4, [sp,#64]
  416d18:	f9403be3 	ldr	x3, [sp,#112]
  416d1c:	f9402be2 	ldr	x2, [sp,#80]
  416d20:	f9402fe1 	ldr	x1, [sp,#88]
  416d24:	f94033e0 	ldr	x0, [sp,#96]
  416d28:	97ffc90e 	bl	409160 <MPI_Alltoallw@plt>
  416d2c:	f9403be0 	ldr	x0, [sp,#112]
  416d30:	f100001f 	cmp	x0, #0x0
  416d34:	54000060 	b.eq	416d40 <_ZNK3MPI4Comm9AlltoallwEPKvPKiS4_PKNS_8DatatypeEPvS4_S4_S7_+0x15c>
  416d38:	f9403be0 	ldr	x0, [sp,#112]
  416d3c:	97ffc8e1 	bl	4090c0 <_ZdaPv@plt>
  416d40:	d503201f 	nop
  416d44:	f94013f3 	ldr	x19, [sp,#32]
  416d48:	a9417bfd 	ldp	x29, x30, [sp,#16]
  416d4c:	910203ff 	add	sp, sp, #0x80
  416d50:	d65f03c0 	ret

0000000000416d54 <_ZNK3MPI4Comm6ReduceEPKvPviRKNS_8DatatypeERKNS_2OpEi>:
  416d54:	a9bb7bfd 	stp	x29, x30, [sp,#-80]!
  416d58:	910003fd 	mov	x29, sp
  416d5c:	f9000bf3 	str	x19, [sp,#16]
  416d60:	f90027e0 	str	x0, [sp,#72]
  416d64:	f90023e1 	str	x1, [sp,#64]
  416d68:	f9001fe2 	str	x2, [sp,#56]
  416d6c:	b90037e3 	str	w3, [sp,#52]
  416d70:	f90017e4 	str	x4, [sp,#40]
  416d74:	f90013e5 	str	x5, [sp,#32]
  416d78:	b90033e6 	str	w6, [sp,#48]
  416d7c:	f94017e0 	ldr	x0, [sp,#40]
  416d80:	97fff758 	bl	414ae0 <_ZNK3MPI8DatatypecvP15ompi_datatype_tEv>
  416d84:	aa0003f3 	mov	x19, x0
  416d88:	f94013e0 	ldr	x0, [sp,#32]
  416d8c:	940005bc 	bl	41847c <_ZNK3MPI2OpcvP9ompi_op_tEv>
  416d90:	aa0003e1 	mov	x1, x0
  416d94:	f94027e0 	ldr	x0, [sp,#72]
  416d98:	f9400400 	ldr	x0, [x0,#8]
  416d9c:	aa0003e6 	mov	x6, x0
  416da0:	b94033e5 	ldr	w5, [sp,#48]
  416da4:	aa0103e4 	mov	x4, x1
  416da8:	aa1303e3 	mov	x3, x19
  416dac:	b94037e2 	ldr	w2, [sp,#52]
  416db0:	f9401fe1 	ldr	x1, [sp,#56]
  416db4:	f94023e0 	ldr	x0, [sp,#64]
  416db8:	97ffc8d2 	bl	409100 <MPI_Reduce@plt>
  416dbc:	d503201f 	nop
  416dc0:	f9400bf3 	ldr	x19, [sp,#16]
  416dc4:	a8c57bfd 	ldp	x29, x30, [sp],#80
  416dc8:	d65f03c0 	ret

0000000000416dcc <_ZNK3MPI4Comm9AllreduceEPKvPviRKNS_8DatatypeERKNS_2OpE>:
  416dcc:	a9bb7bfd 	stp	x29, x30, [sp,#-80]!
  416dd0:	910003fd 	mov	x29, sp
  416dd4:	f9000bf3 	str	x19, [sp,#16]
  416dd8:	f90027e0 	str	x0, [sp,#72]
  416ddc:	f90023e1 	str	x1, [sp,#64]
  416de0:	f9001fe2 	str	x2, [sp,#56]
  416de4:	b90037e3 	str	w3, [sp,#52]
  416de8:	f90017e4 	str	x4, [sp,#40]
  416dec:	f90013e5 	str	x5, [sp,#32]
  416df0:	f94017e0 	ldr	x0, [sp,#40]
  416df4:	97fff73b 	bl	414ae0 <_ZNK3MPI8DatatypecvP15ompi_datatype_tEv>
  416df8:	aa0003f3 	mov	x19, x0
  416dfc:	f94013e0 	ldr	x0, [sp,#32]
  416e00:	9400059f 	bl	41847c <_ZNK3MPI2OpcvP9ompi_op_tEv>
  416e04:	aa0003e1 	mov	x1, x0
  416e08:	f94027e0 	ldr	x0, [sp,#72]
  416e0c:	f9400400 	ldr	x0, [x0,#8]
  416e10:	aa0003e5 	mov	x5, x0
  416e14:	aa0103e4 	mov	x4, x1
  416e18:	aa1303e3 	mov	x3, x19
  416e1c:	b94037e2 	ldr	w2, [sp,#52]
  416e20:	f9401fe1 	ldr	x1, [sp,#56]
  416e24:	f94023e0 	ldr	x0, [sp,#64]
  416e28:	97ffc892 	bl	409070 <MPI_Allreduce@plt>
  416e2c:	d503201f 	nop
  416e30:	f9400bf3 	ldr	x19, [sp,#16]
  416e34:	a8c57bfd 	ldp	x29, x30, [sp],#80
  416e38:	d65f03c0 	ret

0000000000416e3c <_ZNK3MPI4Comm14Reduce_scatterEPKvPvPiRKNS_8DatatypeERKNS_2OpE>:
  416e3c:	a9bb7bfd 	stp	x29, x30, [sp,#-80]!
  416e40:	910003fd 	mov	x29, sp
  416e44:	f9000bf3 	str	x19, [sp,#16]
  416e48:	f90027e0 	str	x0, [sp,#72]
  416e4c:	f90023e1 	str	x1, [sp,#64]
  416e50:	f9001fe2 	str	x2, [sp,#56]
  416e54:	f9001be3 	str	x3, [sp,#48]
  416e58:	f90017e4 	str	x4, [sp,#40]
  416e5c:	f90013e5 	str	x5, [sp,#32]
  416e60:	f94017e0 	ldr	x0, [sp,#40]
  416e64:	97fff71f 	bl	414ae0 <_ZNK3MPI8DatatypecvP15ompi_datatype_tEv>
  416e68:	aa0003f3 	mov	x19, x0
  416e6c:	f94013e0 	ldr	x0, [sp,#32]
  416e70:	94000583 	bl	41847c <_ZNK3MPI2OpcvP9ompi_op_tEv>
  416e74:	aa0003e1 	mov	x1, x0
  416e78:	f94027e0 	ldr	x0, [sp,#72]
  416e7c:	f9400400 	ldr	x0, [x0,#8]
  416e80:	aa0003e5 	mov	x5, x0
  416e84:	aa0103e4 	mov	x4, x1
  416e88:	aa1303e3 	mov	x3, x19
  416e8c:	f9401be2 	ldr	x2, [sp,#48]
  416e90:	f9401fe1 	ldr	x1, [sp,#56]
  416e94:	f94023e0 	ldr	x0, [sp,#64]
  416e98:	97ffc86e 	bl	409050 <MPI_Reduce_scatter@plt>
  416e9c:	d503201f 	nop
  416ea0:	f9400bf3 	ldr	x19, [sp,#16]
  416ea4:	a8c57bfd 	ldp	x29, x30, [sp],#80
  416ea8:	d65f03c0 	ret

0000000000416eac <_ZN3MPI4Comm10DisconnectEv>:
  416eac:	a9be7bfd 	stp	x29, x30, [sp,#-32]!
  416eb0:	910003fd 	mov	x29, sp
  416eb4:	f9000fe0 	str	x0, [sp,#24]
  416eb8:	f9400fe0 	ldr	x0, [sp,#24]
  416ebc:	91002000 	add	x0, x0, #0x8
  416ec0:	97ffc6fc 	bl	408ab0 <MPI_Comm_disconnect@plt>
  416ec4:	d503201f 	nop
  416ec8:	a8c27bfd 	ldp	x29, x30, [sp],#32
  416ecc:	d65f03c0 	ret

0000000000416ed0 <_ZNK3MPI4Comm8Get_nameEPcRi>:
  416ed0:	a9bd7bfd 	stp	x29, x30, [sp,#-48]!
  416ed4:	910003fd 	mov	x29, sp
  416ed8:	f90017e0 	str	x0, [sp,#40]
  416edc:	f90013e1 	str	x1, [sp,#32]
  416ee0:	f9000fe2 	str	x2, [sp,#24]
  416ee4:	f94017e0 	ldr	x0, [sp,#40]
  416ee8:	f9400400 	ldr	x0, [x0,#8]
  416eec:	f9400fe2 	ldr	x2, [sp,#24]
  416ef0:	f94013e1 	ldr	x1, [sp,#32]
  416ef4:	97ffc6cb 	bl	408a20 <MPI_Comm_get_name@plt>
  416ef8:	d503201f 	nop
  416efc:	a8c37bfd 	ldp	x29, x30, [sp],#48
  416f00:	d65f03c0 	ret

0000000000416f04 <_ZN3MPI4Comm8Set_nameEPKc>:
  416f04:	a9be7bfd 	stp	x29, x30, [sp,#-32]!
  416f08:	910003fd 	mov	x29, sp
  416f0c:	f9000fe0 	str	x0, [sp,#24]
  416f10:	f9000be1 	str	x1, [sp,#16]
  416f14:	f9400fe0 	ldr	x0, [sp,#24]
  416f18:	f9400400 	ldr	x0, [x0,#8]
  416f1c:	f9400be1 	ldr	x1, [sp,#16]
  416f20:	97ffc918 	bl	409380 <MPI_Comm_set_name@plt>
  416f24:	d503201f 	nop
  416f28:	a8c27bfd 	ldp	x29, x30, [sp],#32
  416f2c:	d65f03c0 	ret

0000000000416f30 <_ZNK3MPI4Comm12Get_topologyEv>:
  416f30:	a9bd7bfd 	stp	x29, x30, [sp,#-48]!
  416f34:	910003fd 	mov	x29, sp
  416f38:	f9000fe0 	str	x0, [sp,#24]
  416f3c:	f9400fe0 	ldr	x0, [sp,#24]
  416f40:	f9400400 	ldr	x0, [x0,#8]
  416f44:	9100b3e1 	add	x1, sp, #0x2c
  416f48:	97ffc8aa 	bl	4091f0 <MPI_Topo_test@plt>
  416f4c:	b9402fe0 	ldr	w0, [sp,#44]
  416f50:	a8c37bfd 	ldp	x29, x30, [sp],#48
  416f54:	d65f03c0 	ret

0000000000416f58 <_ZN3MPI4Comm5AbortEi>:
  416f58:	a9be7bfd 	stp	x29, x30, [sp,#-32]!
  416f5c:	910003fd 	mov	x29, sp
  416f60:	f9000fe0 	str	x0, [sp,#24]
  416f64:	b90017e1 	str	w1, [sp,#20]
  416f68:	f9400fe0 	ldr	x0, [sp,#24]
  416f6c:	f9400400 	ldr	x0, [x0,#8]
  416f70:	b94017e1 	ldr	w1, [sp,#20]
  416f74:	97ffc7f7 	bl	408f50 <MPI_Abort@plt>
  416f78:	d503201f 	nop
  416f7c:	a8c27bfd 	ldp	x29, x30, [sp],#32
  416f80:	d65f03c0 	ret

0000000000416f84 <_ZNK3MPI4Comm14Get_errhandlerEv>:
  416f84:	a9bc7bfd 	stp	x29, x30, [sp,#-64]!
  416f88:	910003fd 	mov	x29, sp
  416f8c:	f9000bf3 	str	x19, [sp,#16]
  416f90:	aa0803f3 	mov	x19, x8
  416f94:	f90017e0 	str	x0, [sp,#40]
  416f98:	f94017e0 	ldr	x0, [sp,#40]
  416f9c:	f9400400 	ldr	x0, [x0,#8]
  416fa0:	9100e3e1 	add	x1, sp, #0x38
  416fa4:	97ffc853 	bl	4090f0 <MPI_Comm_get_errhandler@plt>
  416fa8:	f9401fe0 	ldr	x0, [sp,#56]
  416fac:	aa0003e1 	mov	x1, x0
  416fb0:	aa1303e0 	mov	x0, x19
  416fb4:	97fff7d0 	bl	414ef4 <_ZN3MPI10ErrhandlerC1EP17ompi_errhandler_t>
  416fb8:	aa1303e0 	mov	x0, x19
  416fbc:	f9400bf3 	ldr	x19, [sp,#16]
  416fc0:	a8c47bfd 	ldp	x29, x30, [sp],#64
  416fc4:	d65f03c0 	ret

0000000000416fc8 <_ZN3MPI4Comm14Set_errhandlerERKNS_10ErrhandlerE>:
  416fc8:	a9bd7bfd 	stp	x29, x30, [sp,#-48]!
  416fcc:	910003fd 	mov	x29, sp
  416fd0:	f9000bf3 	str	x19, [sp,#16]
  416fd4:	f90017e0 	str	x0, [sp,#40]
  416fd8:	f90013e1 	str	x1, [sp,#32]
  416fdc:	f94017e0 	ldr	x0, [sp,#40]
  416fe0:	f9400413 	ldr	x19, [x0,#8]
  416fe4:	f94013e0 	ldr	x0, [sp,#32]
  416fe8:	97fff7d0 	bl	414f28 <_ZNK3MPI10ErrhandlercvP17ompi_errhandler_tEv>
  416fec:	aa0003e1 	mov	x1, x0
  416ff0:	aa1303e0 	mov	x0, x19
  416ff4:	97ffc89b 	bl	409260 <MPI_Comm_set_errhandler@plt>
  416ff8:	d503201f 	nop
  416ffc:	f9400bf3 	ldr	x19, [sp,#16]
  417000:	a8c37bfd 	ldp	x29, x30, [sp],#48
  417004:	d65f03c0 	ret

0000000000417008 <_ZNK3MPI4Comm8Set_attrEiPKv>:
  417008:	a9bd7bfd 	stp	x29, x30, [sp,#-48]!
  41700c:	910003fd 	mov	x29, sp
  417010:	f90017e0 	str	x0, [sp,#40]
  417014:	b90027e1 	str	w1, [sp,#36]
  417018:	f9000fe2 	str	x2, [sp,#24]
  41701c:	f94017e0 	ldr	x0, [sp,#40]
  417020:	f9400400 	ldr	x0, [x0,#8]
  417024:	f9400fe2 	ldr	x2, [sp,#24]
  417028:	b94027e1 	ldr	w1, [sp,#36]
  41702c:	97ffc6e9 	bl	408bd0 <MPI_Comm_set_attr@plt>
  417030:	d503201f 	nop
  417034:	a8c37bfd 	ldp	x29, x30, [sp],#48
  417038:	d65f03c0 	ret

000000000041703c <_ZNK3MPI4Comm8Get_attrEiPv>:
  41703c:	a9bc7bfd 	stp	x29, x30, [sp,#-64]!
  417040:	910003fd 	mov	x29, sp
  417044:	f90017e0 	str	x0, [sp,#40]
  417048:	b90027e1 	str	w1, [sp,#36]
  41704c:	f9000fe2 	str	x2, [sp,#24]
  417050:	f94017e0 	ldr	x0, [sp,#40]
  417054:	f9400400 	ldr	x0, [x0,#8]
  417058:	9100f3e1 	add	x1, sp, #0x3c
  41705c:	aa0103e3 	mov	x3, x1
  417060:	f9400fe2 	ldr	x2, [sp,#24]
  417064:	b94027e1 	ldr	w1, [sp,#36]
  417068:	97ffc84e 	bl	4091a0 <MPI_Comm_get_attr@plt>
  41706c:	b9403fe0 	ldr	w0, [sp,#60]
  417070:	7100001f 	cmp	w0, #0x0
  417074:	1a9f07e0 	cset	w0, ne
  417078:	12001c00 	and	w0, w0, #0xff
  41707c:	a8c47bfd 	ldp	x29, x30, [sp],#64
  417080:	d65f03c0 	ret

0000000000417084 <_ZN3MPI4Comm11Delete_attrEi>:
  417084:	a9be7bfd 	stp	x29, x30, [sp,#-32]!
  417088:	910003fd 	mov	x29, sp
  41708c:	f9000fe0 	str	x0, [sp,#24]
  417090:	b90017e1 	str	w1, [sp,#20]
  417094:	f9400fe0 	ldr	x0, [sp,#24]
  417098:	f9400400 	ldr	x0, [x0,#8]
  41709c:	b94017e1 	ldr	w1, [sp,#20]
  4170a0:	97ffc7c4 	bl	408fb0 <MPI_Comm_delete_attr@plt>
  4170a4:	d503201f 	nop
  4170a8:	a8c27bfd 	ldp	x29, x30, [sp],#32
  4170ac:	d65f03c0 	ret

00000000004170b0 <_ZN3MPI9IntracommC1EP19ompi_communicator_t>:
  4170b0:	a9bc7bfd 	stp	x29, x30, [sp,#-64]!
  4170b4:	910003fd 	mov	x29, sp
  4170b8:	f9000bf3 	str	x19, [sp,#16]
  4170bc:	f90017e0 	str	x0, [sp,#40]
  4170c0:	f90013e1 	str	x1, [sp,#32]
  4170c4:	f94017e0 	ldr	x0, [sp,#40]
  4170c8:	97ffc6de 	bl	408c40 <_ZN3MPI4CommC2Ev@plt>
  4170cc:	f0000000 	adrp	x0, 41a000 <_ZTVN3MPI8CartcommE+0x188>
  4170d0:	9103e001 	add	x1, x0, #0xf8
  4170d4:	f94017e0 	ldr	x0, [sp,#40]
  4170d8:	f9000001 	str	x1, [x0]
  4170dc:	b9003fff 	str	wzr, [sp,#60]
  4170e0:	97fffa38 	bl	4159c0 <_ZN3MPI14Is_initializedEv>
  4170e4:	12001c00 	and	w0, w0, #0xff
  4170e8:	7100001f 	cmp	w0, #0x0
  4170ec:	54000100 	b.eq	41710c <_ZN3MPI9IntracommC1EP19ompi_communicator_t+0x5c>
  4170f0:	f94013e1 	ldr	x1, [sp,#32]
  4170f4:	f00000a0 	adrp	x0, 42e000 <_Znam@GLIBCXX_3.4>
  4170f8:	91206000 	add	x0, x0, #0x818
  4170fc:	eb00003f 	cmp	x1, x0
  417100:	54000060 	b.eq	41710c <_ZN3MPI9IntracommC1EP19ompi_communicator_t+0x5c>
  417104:	52800020 	mov	w0, #0x1                   	// #1
  417108:	14000002 	b	417110 <_ZN3MPI9IntracommC1EP19ompi_communicator_t+0x60>
  41710c:	52800000 	mov	w0, #0x0                   	// #0
  417110:	7100001f 	cmp	w0, #0x0
  417114:	54000220 	b.eq	417158 <_ZN3MPI9IntracommC1EP19ompi_communicator_t+0xa8>
  417118:	9100f3e0 	add	x0, sp, #0x3c
  41711c:	aa0003e1 	mov	x1, x0
  417120:	f94013e0 	ldr	x0, [sp,#32]
  417124:	97ffc90f 	bl	409560 <MPI_Comm_test_inter@plt>
  417128:	b9403fe0 	ldr	w0, [sp,#60]
  41712c:	7100001f 	cmp	w0, #0x0
  417130:	540000c0 	b.eq	417148 <_ZN3MPI9IntracommC1EP19ompi_communicator_t+0x98>
  417134:	f94017e0 	ldr	x0, [sp,#40]
  417138:	f00000a1 	adrp	x1, 42e000 <_Znam@GLIBCXX_3.4>
  41713c:	91206021 	add	x1, x1, #0x818
  417140:	f9000401 	str	x1, [x0,#8]
  417144:	1400000e 	b	41717c <_ZN3MPI9IntracommC1EP19ompi_communicator_t+0xcc>
  417148:	f94017e0 	ldr	x0, [sp,#40]
  41714c:	f94013e1 	ldr	x1, [sp,#32]
  417150:	f9000401 	str	x1, [x0,#8]
  417154:	1400000a 	b	41717c <_ZN3MPI9IntracommC1EP19ompi_communicator_t+0xcc>
  417158:	f94017e0 	ldr	x0, [sp,#40]
  41715c:	f94013e1 	ldr	x1, [sp,#32]
  417160:	f9000401 	str	x1, [x0,#8]
  417164:	14000006 	b	41717c <_ZN3MPI9IntracommC1EP19ompi_communicator_t+0xcc>
  417168:	aa0003f3 	mov	x19, x0
  41716c:	f94017e0 	ldr	x0, [sp,#40]
  417170:	97fff774 	bl	414f40 <_ZN3MPI4CommD1Ev>
  417174:	aa1303e0 	mov	x0, x19
  417178:	97ffc89e 	bl	4093f0 <_Unwind_Resume@plt>
  41717c:	f9400bf3 	ldr	x19, [sp,#16]
  417180:	a8c47bfd 	ldp	x29, x30, [sp],#64
  417184:	d65f03c0 	ret

0000000000417188 <_ZNK3MPI9Intracomm4ScanEPKvPviRKNS_8DatatypeERKNS_2OpE>:
  417188:	a9bb7bfd 	stp	x29, x30, [sp,#-80]!
  41718c:	910003fd 	mov	x29, sp
  417190:	f9000bf3 	str	x19, [sp,#16]
  417194:	f90027e0 	str	x0, [sp,#72]
  417198:	f90023e1 	str	x1, [sp,#64]
  41719c:	f9001fe2 	str	x2, [sp,#56]
  4171a0:	b90037e3 	str	w3, [sp,#52]
  4171a4:	f90017e4 	str	x4, [sp,#40]
  4171a8:	f90013e5 	str	x5, [sp,#32]
  4171ac:	f94017e0 	ldr	x0, [sp,#40]
  4171b0:	97fff64c 	bl	414ae0 <_ZNK3MPI8DatatypecvP15ompi_datatype_tEv>
  4171b4:	aa0003f3 	mov	x19, x0
  4171b8:	f94013e0 	ldr	x0, [sp,#32]
  4171bc:	940004b0 	bl	41847c <_ZNK3MPI2OpcvP9ompi_op_tEv>
  4171c0:	aa0003e1 	mov	x1, x0
  4171c4:	f94027e0 	ldr	x0, [sp,#72]
  4171c8:	f9400400 	ldr	x0, [x0,#8]
  4171cc:	aa0003e5 	mov	x5, x0
  4171d0:	aa0103e4 	mov	x4, x1
  4171d4:	aa1303e3 	mov	x3, x19
  4171d8:	b94037e2 	ldr	w2, [sp,#52]
  4171dc:	f9401fe1 	ldr	x1, [sp,#56]
  4171e0:	f94023e0 	ldr	x0, [sp,#64]
  4171e4:	97ffc783 	bl	408ff0 <MPI_Scan@plt>
  4171e8:	d503201f 	nop
  4171ec:	f9400bf3 	ldr	x19, [sp,#16]
  4171f0:	a8c57bfd 	ldp	x29, x30, [sp],#80
  4171f4:	d65f03c0 	ret

00000000004171f8 <_ZNK3MPI9Intracomm6ExscanEPKvPviRKNS_8DatatypeERKNS_2OpE>:
  4171f8:	a9bb7bfd 	stp	x29, x30, [sp,#-80]!
  4171fc:	910003fd 	mov	x29, sp
  417200:	f9000bf3 	str	x19, [sp,#16]
  417204:	f90027e0 	str	x0, [sp,#72]
  417208:	f90023e1 	str	x1, [sp,#64]
  41720c:	f9001fe2 	str	x2, [sp,#56]
  417210:	b90037e3 	str	w3, [sp,#52]
  417214:	f90017e4 	str	x4, [sp,#40]
  417218:	f90013e5 	str	x5, [sp,#32]
  41721c:	f94017e0 	ldr	x0, [sp,#40]
  417220:	97fff630 	bl	414ae0 <_ZNK3MPI8DatatypecvP15ompi_datatype_tEv>
  417224:	aa0003f3 	mov	x19, x0
  417228:	f94013e0 	ldr	x0, [sp,#32]
  41722c:	94000494 	bl	41847c <_ZNK3MPI2OpcvP9ompi_op_tEv>
  417230:	aa0003e1 	mov	x1, x0
  417234:	f94027e0 	ldr	x0, [sp,#72]
  417238:	f9400400 	ldr	x0, [x0,#8]
  41723c:	aa0003e5 	mov	x5, x0
  417240:	aa0103e4 	mov	x4, x1
  417244:	aa1303e3 	mov	x3, x19
  417248:	b94037e2 	ldr	w2, [sp,#52]
  41724c:	f9401fe1 	ldr	x1, [sp,#56]
  417250:	f94023e0 	ldr	x0, [sp,#64]
  417254:	97ffc71b 	bl	408ec0 <MPI_Exscan@plt>
  417258:	d503201f 	nop
  41725c:	f9400bf3 	ldr	x19, [sp,#16]
  417260:	a8c57bfd 	ldp	x29, x30, [sp],#80
  417264:	d65f03c0 	ret

0000000000417268 <_ZNK3MPI9Intracomm5CloneEv>:
  417268:	a9bc7bfd 	stp	x29, x30, [sp,#-64]!
  41726c:	910003fd 	mov	x29, sp
  417270:	a90153f3 	stp	x19, x20, [sp,#16]
  417274:	f90017e0 	str	x0, [sp,#40]
  417278:	f94017e0 	ldr	x0, [sp,#40]
  41727c:	f9400400 	ldr	x0, [x0,#8]
  417280:	9100c3e1 	add	x1, sp, #0x30
  417284:	97ffc7ab 	bl	409130 <MPI_Comm_dup@plt>
  417288:	d2800200 	mov	x0, #0x10                  	// #16
  41728c:	97ffc71d 	bl	408f00 <_Znwm@plt>
  417290:	aa0003f3 	mov	x19, x0
  417294:	f9401be0 	ldr	x0, [sp,#48]
  417298:	aa0003e1 	mov	x1, x0
  41729c:	aa1303e0 	mov	x0, x19
  4172a0:	97ffff84 	bl	4170b0 <_ZN3MPI9IntracommC1EP19ompi_communicator_t>
  4172a4:	f9001ff3 	str	x19, [sp,#56]
  4172a8:	f9401fe0 	ldr	x0, [sp,#56]
  4172ac:	14000007 	b	4172c8 <_ZNK3MPI9Intracomm5CloneEv+0x60>
  4172b0:	aa0003f4 	mov	x20, x0
  4172b4:	d2800201 	mov	x1, #0x10                  	// #16
  4172b8:	aa1303e0 	mov	x0, x19
  4172bc:	97ffc719 	bl	408f20 <_ZdlPvm@plt>
  4172c0:	aa1403e0 	mov	x0, x20
  4172c4:	97ffc84b 	bl	4093f0 <_Unwind_Resume@plt>
  4172c8:	a94153f3 	ldp	x19, x20, [sp,#16]
  4172cc:	a8c47bfd 	ldp	x29, x30, [sp],#64
  4172d0:	d65f03c0 	ret

00000000004172d4 <_ZNK3MPI9Intracomm6CreateERKNS_5GroupE>:
  4172d4:	a9bc7bfd 	stp	x29, x30, [sp,#-64]!
  4172d8:	910003fd 	mov	x29, sp
  4172dc:	a90153f3 	stp	x19, x20, [sp,#16]
  4172e0:	aa0803f3 	mov	x19, x8
  4172e4:	f90017e0 	str	x0, [sp,#40]
  4172e8:	f90013e1 	str	x1, [sp,#32]
  4172ec:	f94017e0 	ldr	x0, [sp,#40]
  4172f0:	f9400414 	ldr	x20, [x0,#8]
  4172f4:	f94013e0 	ldr	x0, [sp,#32]
  4172f8:	97fff69f 	bl	414d74 <_ZNK3MPI5GroupcvP12ompi_group_tEv>
  4172fc:	aa0003e1 	mov	x1, x0
  417300:	9100e3e0 	add	x0, sp, #0x38
  417304:	aa0003e2 	mov	x2, x0
  417308:	aa1403e0 	mov	x0, x20
  41730c:	97ffc6c9 	bl	408e30 <MPI_Comm_create@plt>
  417310:	f9401fe0 	ldr	x0, [sp,#56]
  417314:	aa0003e1 	mov	x1, x0
  417318:	aa1303e0 	mov	x0, x19
  41731c:	97ffff65 	bl	4170b0 <_ZN3MPI9IntracommC1EP19ompi_communicator_t>
  417320:	aa1303e0 	mov	x0, x19
  417324:	a94153f3 	ldp	x19, x20, [sp,#16]
  417328:	a8c47bfd 	ldp	x29, x30, [sp],#64
  41732c:	d65f03c0 	ret

0000000000417330 <_ZNK3MPI9Intracomm5SplitEii>:
  417330:	a9bc7bfd 	stp	x29, x30, [sp,#-64]!
  417334:	910003fd 	mov	x29, sp
  417338:	f9000bf3 	str	x19, [sp,#16]
  41733c:	aa0803f3 	mov	x19, x8
  417340:	f90017e0 	str	x0, [sp,#40]
  417344:	b90027e1 	str	w1, [sp,#36]
  417348:	b90023e2 	str	w2, [sp,#32]
  41734c:	f94017e0 	ldr	x0, [sp,#40]
  417350:	f9400400 	ldr	x0, [x0,#8]
  417354:	9100e3e1 	add	x1, sp, #0x38
  417358:	aa0103e3 	mov	x3, x1
  41735c:	b94023e2 	ldr	w2, [sp,#32]
  417360:	b94027e1 	ldr	w1, [sp,#36]
  417364:	97ffc7d7 	bl	4092c0 <MPI_Comm_split@plt>
  417368:	f9401fe0 	ldr	x0, [sp,#56]
  41736c:	aa0003e1 	mov	x1, x0
  417370:	aa1303e0 	mov	x0, x19
  417374:	97ffff4f 	bl	4170b0 <_ZN3MPI9IntracommC1EP19ompi_communicator_t>
  417378:	aa1303e0 	mov	x0, x19
  41737c:	f9400bf3 	ldr	x19, [sp,#16]
  417380:	a8c47bfd 	ldp	x29, x30, [sp],#64
  417384:	d65f03c0 	ret

0000000000417388 <_ZNK3MPI9Intracomm16Create_intercommEiRKNS_4CommEii>:
  417388:	a9bb7bfd 	stp	x29, x30, [sp,#-80]!
  41738c:	910003fd 	mov	x29, sp
  417390:	a90153f3 	stp	x19, x20, [sp,#16]
  417394:	aa0803f3 	mov	x19, x8
  417398:	f9001fe0 	str	x0, [sp,#56]
  41739c:	b90037e1 	str	w1, [sp,#52]
  4173a0:	f90017e2 	str	x2, [sp,#40]
  4173a4:	b90033e3 	str	w3, [sp,#48]
  4173a8:	b90027e4 	str	w4, [sp,#36]
  4173ac:	f9401fe0 	ldr	x0, [sp,#56]
  4173b0:	f9400414 	ldr	x20, [x0,#8]
  4173b4:	f94017e0 	ldr	x0, [sp,#40]
  4173b8:	97fff695 	bl	414e0c <_ZNK3MPI9Comm_NullcvP19ompi_communicator_tEv>
  4173bc:	aa0003e1 	mov	x1, x0
  4173c0:	910123e0 	add	x0, sp, #0x48
  4173c4:	aa0003e5 	mov	x5, x0
  4173c8:	b94027e4 	ldr	w4, [sp,#36]
  4173cc:	b94033e3 	ldr	w3, [sp,#48]
  4173d0:	aa0103e2 	mov	x2, x1
  4173d4:	b94037e1 	ldr	w1, [sp,#52]
  4173d8:	aa1403e0 	mov	x0, x20
  4173dc:	97ffc6e1 	bl	408f60 <MPI_Intercomm_create@plt>
  4173e0:	f94027e0 	ldr	x0, [sp,#72]
  4173e4:	aa0003e1 	mov	x1, x0
  4173e8:	aa1303e0 	mov	x0, x19
  4173ec:	97fff70d 	bl	415020 <_ZN3MPI9IntercommC1EP19ompi_communicator_t>
  4173f0:	aa1303e0 	mov	x0, x19
  4173f4:	a94153f3 	ldp	x19, x20, [sp,#16]
  4173f8:	a8c57bfd 	ldp	x29, x30, [sp],#80
  4173fc:	d65f03c0 	ret

0000000000417400 <_ZNK3MPI9Intracomm11Create_cartEiPKiPKbb>:
  417400:	a9ba7bfd 	stp	x29, x30, [sp,#-96]!
  417404:	910003fd 	mov	x29, sp
  417408:	f9000bf3 	str	x19, [sp,#16]
  41740c:	aa0803f3 	mov	x19, x8
  417410:	f9001fe0 	str	x0, [sp,#56]
  417414:	b90037e1 	str	w1, [sp,#52]
  417418:	f90017e2 	str	x2, [sp,#40]
  41741c:	f90013e3 	str	x3, [sp,#32]
  417420:	3900cfe4 	strb	w4, [sp,#51]
  417424:	b98037e0 	ldrsw	x0, [sp,#52]
  417428:	b27fefe1 	mov	x1, #0x1ffffffffffffffe    	// #2305843009213693950
  41742c:	eb01001f 	cmp	x0, x1
  417430:	540000c8 	b.hi	417448 <_ZNK3MPI9Intracomm11Create_cartEiPKiPKbb+0x48>
  417434:	d37ef400 	lsl	x0, x0, #2
  417438:	97ffc55e 	bl	4089b0 <_Znam@plt>
  41743c:	f9002be0 	str	x0, [sp,#80]
  417440:	b9005fff 	str	wzr, [sp,#92]
  417444:	1400000f 	b	417480 <_ZNK3MPI9Intracomm11Create_cartEiPKiPKbb+0x80>
  417448:	97ffc75a 	bl	4091b0 <__cxa_throw_bad_array_new_length@plt>
  41744c:	b9805fe0 	ldrsw	x0, [sp,#92]
  417450:	f94013e1 	ldr	x1, [sp,#32]
  417454:	8b000020 	add	x0, x1, x0
  417458:	39400002 	ldrb	w2, [x0]
  41745c:	b9805fe0 	ldrsw	x0, [sp,#92]
  417460:	d37ef400 	lsl	x0, x0, #2
  417464:	f9402be1 	ldr	x1, [sp,#80]
  417468:	8b000020 	add	x0, x1, x0
  41746c:	2a0203e1 	mov	w1, w2
  417470:	b9000001 	str	w1, [x0]
  417474:	b9405fe0 	ldr	w0, [sp,#92]
  417478:	11000400 	add	w0, w0, #0x1
  41747c:	b9005fe0 	str	w0, [sp,#92]
  417480:	b9405fe1 	ldr	w1, [sp,#92]
  417484:	b94037e0 	ldr	w0, [sp,#52]
  417488:	6b00003f 	cmp	w1, w0
  41748c:	54fffe0b 	b.lt	41744c <_ZNK3MPI9Intracomm11Create_cartEiPKiPKbb+0x4c>
  417490:	f9401fe0 	ldr	x0, [sp,#56]
  417494:	f9400400 	ldr	x0, [x0,#8]
  417498:	3940cfe1 	ldrb	w1, [sp,#51]
  41749c:	910123e2 	add	x2, sp, #0x48
  4174a0:	aa0203e5 	mov	x5, x2
  4174a4:	2a0103e4 	mov	w4, w1
  4174a8:	f9402be3 	ldr	x3, [sp,#80]
  4174ac:	f94017e2 	ldr	x2, [sp,#40]
  4174b0:	b94037e1 	ldr	w1, [sp,#52]
  4174b4:	97ffc557 	bl	408a10 <MPI_Cart_create@plt>
  4174b8:	f9402be0 	ldr	x0, [sp,#80]
  4174bc:	f100001f 	cmp	x0, #0x0
  4174c0:	54000060 	b.eq	4174cc <_ZNK3MPI9Intracomm11Create_cartEiPKiPKbb+0xcc>
  4174c4:	f9402be0 	ldr	x0, [sp,#80]
  4174c8:	97ffc6fe 	bl	4090c0 <_ZdaPv@plt>
  4174cc:	910123e0 	add	x0, sp, #0x48
  4174d0:	aa0003e1 	mov	x1, x0
  4174d4:	aa1303e0 	mov	x0, x19
  4174d8:	94000118 	bl	417938 <_ZN3MPI8CartcommC1ERKP19ompi_communicator_t>
  4174dc:	aa1303e0 	mov	x0, x19
  4174e0:	f9400bf3 	ldr	x19, [sp,#16]
  4174e4:	a8c67bfd 	ldp	x29, x30, [sp],#96
  4174e8:	d65f03c0 	ret

00000000004174ec <_ZNK3MPI9Intracomm12Create_graphEiPKiS2_b>:
  4174ec:	a9bb7bfd 	stp	x29, x30, [sp,#-80]!
  4174f0:	910003fd 	mov	x29, sp
  4174f4:	f9000bf3 	str	x19, [sp,#16]
  4174f8:	aa0803f3 	mov	x19, x8
  4174fc:	f9001fe0 	str	x0, [sp,#56]
  417500:	b90037e1 	str	w1, [sp,#52]
  417504:	f90017e2 	str	x2, [sp,#40]
  417508:	f90013e3 	str	x3, [sp,#32]
  41750c:	3900cfe4 	strb	w4, [sp,#51]
  417510:	f9401fe0 	ldr	x0, [sp,#56]
  417514:	f9400400 	ldr	x0, [x0,#8]
  417518:	3940cfe1 	ldrb	w1, [sp,#51]
  41751c:	910123e2 	add	x2, sp, #0x48
  417520:	aa0203e5 	mov	x5, x2
  417524:	2a0103e4 	mov	w4, w1
  417528:	f94013e3 	ldr	x3, [sp,#32]
  41752c:	f94017e2 	ldr	x2, [sp,#40]
  417530:	b94037e1 	ldr	w1, [sp,#52]
  417534:	97ffc803 	bl	409540 <MPI_Graph_create@plt>
  417538:	910123e0 	add	x0, sp, #0x48
  41753c:	aa0003e1 	mov	x1, x0
  417540:	aa1303e0 	mov	x0, x19
  417544:	94000238 	bl	417e24 <_ZN3MPI9GraphcommC1ERKP19ompi_communicator_t>
  417548:	aa1303e0 	mov	x0, x19
  41754c:	f9400bf3 	ldr	x19, [sp,#16]
  417550:	a8c57bfd 	ldp	x29, x30, [sp],#80
  417554:	d65f03c0 	ret

0000000000417558 <_ZNK3MPI9Intracomm6AcceptEPKcRKNS_4InfoEi>:
  417558:	a9bb7bfd 	stp	x29, x30, [sp,#-80]!
  41755c:	910003fd 	mov	x29, sp
  417560:	f9000bf3 	str	x19, [sp,#16]
  417564:	aa0803f3 	mov	x19, x8
  417568:	f9001fe0 	str	x0, [sp,#56]
  41756c:	f9001be1 	str	x1, [sp,#48]
  417570:	f90017e2 	str	x2, [sp,#40]
  417574:	b90027e3 	str	w3, [sp,#36]
  417578:	f94017e0 	ldr	x0, [sp,#40]
  41757c:	97fff6d7 	bl	4150d8 <_ZNK3MPI4InfocvP11ompi_info_tEv>
  417580:	aa0003e5 	mov	x5, x0
  417584:	f9401fe0 	ldr	x0, [sp,#56]
  417588:	f9400400 	ldr	x0, [x0,#8]
  41758c:	910123e1 	add	x1, sp, #0x48
  417590:	aa0103e4 	mov	x4, x1
  417594:	aa0003e3 	mov	x3, x0
  417598:	b94027e2 	ldr	w2, [sp,#36]
  41759c:	aa0503e1 	mov	x1, x5
  4175a0:	f9401be0 	ldr	x0, [sp,#48]
  4175a4:	97ffc79b 	bl	409410 <MPI_Comm_accept@plt>
  4175a8:	f94027e0 	ldr	x0, [sp,#72]
  4175ac:	aa0003e1 	mov	x1, x0
  4175b0:	aa1303e0 	mov	x0, x19
  4175b4:	97fff69b 	bl	415020 <_ZN3MPI9IntercommC1EP19ompi_communicator_t>
  4175b8:	aa1303e0 	mov	x0, x19
  4175bc:	f9400bf3 	ldr	x19, [sp,#16]
  4175c0:	a8c57bfd 	ldp	x29, x30, [sp],#80
  4175c4:	d65f03c0 	ret

00000000004175c8 <_ZNK3MPI9Intracomm7ConnectEPKcRKNS_4InfoEi>:
  4175c8:	a9bb7bfd 	stp	x29, x30, [sp,#-80]!
  4175cc:	910003fd 	mov	x29, sp
  4175d0:	f9000bf3 	str	x19, [sp,#16]
  4175d4:	aa0803f3 	mov	x19, x8
  4175d8:	f9001fe0 	str	x0, [sp,#56]
  4175dc:	f9001be1 	str	x1, [sp,#48]
  4175e0:	f90017e2 	str	x2, [sp,#40]
  4175e4:	b90027e3 	str	w3, [sp,#36]
  4175e8:	f94017e0 	ldr	x0, [sp,#40]
  4175ec:	97fff6bb 	bl	4150d8 <_ZNK3MPI4InfocvP11ompi_info_tEv>
  4175f0:	aa0003e5 	mov	x5, x0
  4175f4:	f9401fe0 	ldr	x0, [sp,#56]
  4175f8:	f9400400 	ldr	x0, [x0,#8]
  4175fc:	910123e1 	add	x1, sp, #0x48
  417600:	aa0103e4 	mov	x4, x1
  417604:	aa0003e3 	mov	x3, x0
  417608:	b94027e2 	ldr	w2, [sp,#36]
  41760c:	aa0503e1 	mov	x1, x5
  417610:	f9401be0 	ldr	x0, [sp,#48]
  417614:	97ffc723 	bl	4092a0 <MPI_Comm_connect@plt>
  417618:	f94027e0 	ldr	x0, [sp,#72]
  41761c:	aa0003e1 	mov	x1, x0
  417620:	aa1303e0 	mov	x0, x19
  417624:	97fff67f 	bl	415020 <_ZN3MPI9IntercommC1EP19ompi_communicator_t>
  417628:	aa1303e0 	mov	x0, x19
  41762c:	f9400bf3 	ldr	x19, [sp,#16]
  417630:	a8c57bfd 	ldp	x29, x30, [sp],#80
  417634:	d65f03c0 	ret

0000000000417638 <_ZNK3MPI9Intracomm5SpawnEPKcPS2_iRKNS_4InfoEi>:
  417638:	a9ba7bfd 	stp	x29, x30, [sp,#-96]!
  41763c:	910003fd 	mov	x29, sp
  417640:	f9000bf3 	str	x19, [sp,#16]
  417644:	aa0803f3 	mov	x19, x8
  417648:	f90027e0 	str	x0, [sp,#72]
  41764c:	f90023e1 	str	x1, [sp,#64]
  417650:	f9001fe2 	str	x2, [sp,#56]
  417654:	b90037e3 	str	w3, [sp,#52]
  417658:	f90017e4 	str	x4, [sp,#40]
  41765c:	b90033e5 	str	w5, [sp,#48]
  417660:	f94017e0 	ldr	x0, [sp,#40]
  417664:	97fff69d 	bl	4150d8 <_ZNK3MPI4InfocvP11ompi_info_tEv>
  417668:	aa0003e2 	mov	x2, x0
  41766c:	f94027e0 	ldr	x0, [sp,#72]
  417670:	f9400400 	ldr	x0, [x0,#8]
  417674:	910163e1 	add	x1, sp, #0x58
  417678:	d2800007 	mov	x7, #0x0                   	// #0
  41767c:	aa0103e6 	mov	x6, x1
  417680:	aa0003e5 	mov	x5, x0
  417684:	b94033e4 	ldr	w4, [sp,#48]
  417688:	aa0203e3 	mov	x3, x2
  41768c:	b94037e2 	ldr	w2, [sp,#52]
  417690:	f9401fe1 	ldr	x1, [sp,#56]
  417694:	f94023e0 	ldr	x0, [sp,#64]
  417698:	97ffc596 	bl	408cf0 <MPI_Comm_spawn@plt>
  41769c:	f9402fe0 	ldr	x0, [sp,#88]
  4176a0:	aa0003e1 	mov	x1, x0
  4176a4:	aa1303e0 	mov	x0, x19
  4176a8:	97fff65e 	bl	415020 <_ZN3MPI9IntercommC1EP19ompi_communicator_t>
  4176ac:	aa1303e0 	mov	x0, x19
  4176b0:	f9400bf3 	ldr	x19, [sp,#16]
  4176b4:	a8c67bfd 	ldp	x29, x30, [sp],#96
  4176b8:	d65f03c0 	ret

00000000004176bc <_ZNK3MPI9Intracomm5SpawnEPKcPS2_iRKNS_4InfoEiPi>:
  4176bc:	a9ba7bfd 	stp	x29, x30, [sp,#-96]!
  4176c0:	910003fd 	mov	x29, sp
  4176c4:	f9000bf3 	str	x19, [sp,#16]
  4176c8:	aa0803f3 	mov	x19, x8
  4176cc:	f90027e0 	str	x0, [sp,#72]
  4176d0:	f90023e1 	str	x1, [sp,#64]
  4176d4:	f9001fe2 	str	x2, [sp,#56]
  4176d8:	b90037e3 	str	w3, [sp,#52]
  4176dc:	f90017e4 	str	x4, [sp,#40]
  4176e0:	b90033e5 	str	w5, [sp,#48]
  4176e4:	f90013e6 	str	x6, [sp,#32]
  4176e8:	f94017e0 	ldr	x0, [sp,#40]
  4176ec:	97fff67b 	bl	4150d8 <_ZNK3MPI4InfocvP11ompi_info_tEv>
  4176f0:	aa0003e2 	mov	x2, x0
  4176f4:	f94027e0 	ldr	x0, [sp,#72]
  4176f8:	f9400400 	ldr	x0, [x0,#8]
  4176fc:	910163e1 	add	x1, sp, #0x58
  417700:	f94013e7 	ldr	x7, [sp,#32]
  417704:	aa0103e6 	mov	x6, x1
  417708:	aa0003e5 	mov	x5, x0
  41770c:	b94033e4 	ldr	w4, [sp,#48]
  417710:	aa0203e3 	mov	x3, x2
  417714:	b94037e2 	ldr	w2, [sp,#52]
  417718:	f9401fe1 	ldr	x1, [sp,#56]
  41771c:	f94023e0 	ldr	x0, [sp,#64]
  417720:	97ffc574 	bl	408cf0 <MPI_Comm_spawn@plt>
  417724:	f9402fe0 	ldr	x0, [sp,#88]
  417728:	aa0003e1 	mov	x1, x0
  41772c:	aa1303e0 	mov	x0, x19
  417730:	97fff63c 	bl	415020 <_ZN3MPI9IntercommC1EP19ompi_communicator_t>
  417734:	aa1303e0 	mov	x0, x19
  417738:	f9400bf3 	ldr	x19, [sp,#16]
  41773c:	a8c67bfd 	ldp	x29, x30, [sp],#96
  417740:	d65f03c0 	ret

0000000000417744 <_ZN3MPI9Intracomm14Spawn_multipleEiPPKcPS3_PKiPKNS_4InfoEi>:
  417744:	d101c3ff 	sub	sp, sp, #0x70
  417748:	a9017bfd 	stp	x29, x30, [sp,#16]
  41774c:	910043fd 	add	x29, sp, #0x10
  417750:	f90013f3 	str	x19, [sp,#32]
  417754:	aa0803f3 	mov	x19, x8
  417758:	f9002fe0 	str	x0, [sp,#88]
  41775c:	b90057e1 	str	w1, [sp,#84]
  417760:	f90027e2 	str	x2, [sp,#72]
  417764:	f90023e3 	str	x3, [sp,#64]
  417768:	f9001fe4 	str	x4, [sp,#56]
  41776c:	f9001be5 	str	x5, [sp,#48]
  417770:	b90053e6 	str	w6, [sp,#80]
  417774:	f9401be1 	ldr	x1, [sp,#48]
  417778:	b94057e0 	ldr	w0, [sp,#84]
  41777c:	9400001d 	bl	4177f0 <_ZN3MPI9Intracomm24convert_info_to_mpi_infoEiPKNS_4InfoE>
  417780:	f90037e0 	str	x0, [sp,#104]
  417784:	f9402fe0 	ldr	x0, [sp,#88]
  417788:	f9400400 	ldr	x0, [x0,#8]
  41778c:	910183e1 	add	x1, sp, #0x60
  417790:	f90003ff 	str	xzr, [sp]
  417794:	aa0103e7 	mov	x7, x1
  417798:	aa0003e6 	mov	x6, x0
  41779c:	b94053e5 	ldr	w5, [sp,#80]
  4177a0:	f94037e4 	ldr	x4, [sp,#104]
  4177a4:	f9401fe3 	ldr	x3, [sp,#56]
  4177a8:	f94023e2 	ldr	x2, [sp,#64]
  4177ac:	f94027e1 	ldr	x1, [sp,#72]
  4177b0:	b94057e0 	ldr	w0, [sp,#84]
  4177b4:	97ffc6cf 	bl	4092f0 <MPI_Comm_spawn_multiple@plt>
  4177b8:	f94037e0 	ldr	x0, [sp,#104]
  4177bc:	f100001f 	cmp	x0, #0x0
  4177c0:	54000060 	b.eq	4177cc <_ZN3MPI9Intracomm14Spawn_multipleEiPPKcPS3_PKiPKNS_4InfoEi+0x88>
  4177c4:	f94037e0 	ldr	x0, [sp,#104]
  4177c8:	97ffc63e 	bl	4090c0 <_ZdaPv@plt>
  4177cc:	f94033e0 	ldr	x0, [sp,#96]
  4177d0:	aa0003e1 	mov	x1, x0
  4177d4:	aa1303e0 	mov	x0, x19
  4177d8:	97fff612 	bl	415020 <_ZN3MPI9IntercommC1EP19ompi_communicator_t>
  4177dc:	aa1303e0 	mov	x0, x19
  4177e0:	f94013f3 	ldr	x19, [sp,#32]
  4177e4:	a9417bfd 	ldp	x29, x30, [sp,#16]
  4177e8:	9101c3ff 	add	sp, sp, #0x70
  4177ec:	d65f03c0 	ret

00000000004177f0 <_ZN3MPI9Intracomm24convert_info_to_mpi_infoEiPKNS_4InfoE>:
  4177f0:	a9bc7bfd 	stp	x29, x30, [sp,#-64]!
  4177f4:	910003fd 	mov	x29, sp
  4177f8:	f9000bf3 	str	x19, [sp,#16]
  4177fc:	b9002fe0 	str	w0, [sp,#44]
  417800:	f90013e1 	str	x1, [sp,#32]
  417804:	b9802fe0 	ldrsw	x0, [sp,#44]
  417808:	92fe0001 	mov	x1, #0xfffffffffffffff     	// #1152921504606846975
  41780c:	eb01001f 	cmp	x0, x1
  417810:	540000c8 	b.hi	417828 <_ZN3MPI9Intracomm24convert_info_to_mpi_infoEiPKNS_4InfoE+0x38>
  417814:	d37df000 	lsl	x0, x0, #3
  417818:	97ffc466 	bl	4089b0 <_Znam@plt>
  41781c:	f9001be0 	str	x0, [sp,#48]
  417820:	b9003fff 	str	wzr, [sp,#60]
  417824:	14000010 	b	417864 <_ZN3MPI9Intracomm24convert_info_to_mpi_infoEiPKNS_4InfoE+0x74>
  417828:	97ffc662 	bl	4091b0 <__cxa_throw_bad_array_new_length@plt>
  41782c:	b9803fe0 	ldrsw	x0, [sp,#60]
  417830:	d37cec00 	lsl	x0, x0, #4
  417834:	f94013e1 	ldr	x1, [sp,#32]
  417838:	8b000022 	add	x2, x1, x0
  41783c:	b9803fe0 	ldrsw	x0, [sp,#60]
  417840:	d37df000 	lsl	x0, x0, #3
  417844:	f9401be1 	ldr	x1, [sp,#48]
  417848:	8b000033 	add	x19, x1, x0
  41784c:	aa0203e0 	mov	x0, x2
  417850:	97fff622 	bl	4150d8 <_ZNK3MPI4InfocvP11ompi_info_tEv>
  417854:	f9000260 	str	x0, [x19]
  417858:	b9403fe0 	ldr	w0, [sp,#60]
  41785c:	11000400 	add	w0, w0, #0x1
  417860:	b9003fe0 	str	w0, [sp,#60]
  417864:	b9403fe1 	ldr	w1, [sp,#60]
  417868:	b9402fe0 	ldr	w0, [sp,#44]
  41786c:	6b00003f 	cmp	w1, w0
  417870:	54fffdeb 	b.lt	41782c <_ZN3MPI9Intracomm24convert_info_to_mpi_infoEiPKNS_4InfoE+0x3c>
  417874:	f9401be0 	ldr	x0, [sp,#48]
  417878:	f9400bf3 	ldr	x19, [sp,#16]
  41787c:	a8c47bfd 	ldp	x29, x30, [sp],#64
  417880:	d65f03c0 	ret

0000000000417884 <_ZN3MPI9Intracomm14Spawn_multipleEiPPKcPS3_PKiPKNS_4InfoEiPi>:
  417884:	d10203ff 	sub	sp, sp, #0x80
  417888:	a9017bfd 	stp	x29, x30, [sp,#16]
  41788c:	910043fd 	add	x29, sp, #0x10
  417890:	f90013f3 	str	x19, [sp,#32]
  417894:	aa0803f3 	mov	x19, x8
  417898:	f90037e0 	str	x0, [sp,#104]
  41789c:	b90067e1 	str	w1, [sp,#100]
  4178a0:	f9002fe2 	str	x2, [sp,#88]
  4178a4:	f9002be3 	str	x3, [sp,#80]
  4178a8:	f90027e4 	str	x4, [sp,#72]
  4178ac:	f90023e5 	str	x5, [sp,#64]
  4178b0:	b90063e6 	str	w6, [sp,#96]
  4178b4:	f9001fe7 	str	x7, [sp,#56]
  4178b8:	f94023e1 	ldr	x1, [sp,#64]
  4178bc:	b94067e0 	ldr	w0, [sp,#100]
  4178c0:	97ffffcc 	bl	4177f0 <_ZN3MPI9Intracomm24convert_info_to_mpi_infoEiPKNS_4InfoE>
  4178c4:	f9003fe0 	str	x0, [sp,#120]
  4178c8:	f94037e0 	ldr	x0, [sp,#104]
  4178cc:	f9400401 	ldr	x1, [x0,#8]
  4178d0:	9101c3e2 	add	x2, sp, #0x70
  4178d4:	f9401fe0 	ldr	x0, [sp,#56]
  4178d8:	f90003e0 	str	x0, [sp]
  4178dc:	aa0203e7 	mov	x7, x2
  4178e0:	aa0103e6 	mov	x6, x1
  4178e4:	b94063e5 	ldr	w5, [sp,#96]
  4178e8:	f9403fe4 	ldr	x4, [sp,#120]
  4178ec:	f94027e3 	ldr	x3, [sp,#72]
  4178f0:	f9402be2 	ldr	x2, [sp,#80]
  4178f4:	f9402fe1 	ldr	x1, [sp,#88]
  4178f8:	b94067e0 	ldr	w0, [sp,#100]
  4178fc:	97ffc67d 	bl	4092f0 <MPI_Comm_spawn_multiple@plt>
  417900:	f9403fe0 	ldr	x0, [sp,#120]
  417904:	f100001f 	cmp	x0, #0x0
  417908:	54000060 	b.eq	417914 <_ZN3MPI9Intracomm14Spawn_multipleEiPPKcPS3_PKiPKNS_4InfoEiPi+0x90>
  41790c:	f9403fe0 	ldr	x0, [sp,#120]
  417910:	97ffc5ec 	bl	4090c0 <_ZdaPv@plt>
  417914:	f9403be0 	ldr	x0, [sp,#112]
  417918:	aa0003e1 	mov	x1, x0
  41791c:	aa1303e0 	mov	x0, x19
  417920:	97fff5c0 	bl	415020 <_ZN3MPI9IntercommC1EP19ompi_communicator_t>
  417924:	aa1303e0 	mov	x0, x19
  417928:	f94013f3 	ldr	x19, [sp,#32]
  41792c:	a9417bfd 	ldp	x29, x30, [sp,#16]
  417930:	910203ff 	add	sp, sp, #0x80
  417934:	d65f03c0 	ret

0000000000417938 <_ZN3MPI8CartcommC1ERKP19ompi_communicator_t>:
  417938:	a9bc7bfd 	stp	x29, x30, [sp,#-64]!
  41793c:	910003fd 	mov	x29, sp
  417940:	f9000bf3 	str	x19, [sp,#16]
  417944:	f90017e0 	str	x0, [sp,#40]
  417948:	f90013e1 	str	x1, [sp,#32]
  41794c:	f94017e0 	ldr	x0, [sp,#40]
  417950:	97fff592 	bl	414f98 <_ZN3MPI9IntracommC1Ev>
  417954:	d0000000 	adrp	x0, 419000 <_IO_stdin_used+0x8>
  417958:	913a2001 	add	x1, x0, #0xe88
  41795c:	f94017e0 	ldr	x0, [sp,#40]
  417960:	f9000001 	str	x1, [x0]
  417964:	b9003fff 	str	wzr, [sp,#60]
  417968:	97fff816 	bl	4159c0 <_ZN3MPI14Is_initializedEv>
  41796c:	12001c00 	and	w0, w0, #0xff
  417970:	7100001f 	cmp	w0, #0x0
  417974:	54000120 	b.eq	417998 <_ZN3MPI8CartcommC1ERKP19ompi_communicator_t+0x60>
  417978:	f94013e0 	ldr	x0, [sp,#32]
  41797c:	f9400001 	ldr	x1, [x0]
  417980:	f00000a0 	adrp	x0, 42e000 <_Znam@GLIBCXX_3.4>
  417984:	91206000 	add	x0, x0, #0x818
  417988:	eb00003f 	cmp	x1, x0
  41798c:	54000060 	b.eq	417998 <_ZN3MPI8CartcommC1ERKP19ompi_communicator_t+0x60>
  417990:	52800020 	mov	w0, #0x1                   	// #1
  417994:	14000002 	b	41799c <_ZN3MPI8CartcommC1ERKP19ompi_communicator_t+0x64>
  417998:	52800000 	mov	w0, #0x0                   	// #0
  41799c:	7100001f 	cmp	w0, #0x0
  4179a0:	54000240 	b.eq	4179e8 <_ZN3MPI8CartcommC1ERKP19ompi_communicator_t+0xb0>
  4179a4:	f94013e0 	ldr	x0, [sp,#32]
  4179a8:	f9400000 	ldr	x0, [x0]
  4179ac:	9100f3e1 	add	x1, sp, #0x3c
  4179b0:	97ffc610 	bl	4091f0 <MPI_Topo_test@plt>
  4179b4:	b9403fe0 	ldr	w0, [sp,#60]
  4179b8:	7100041f 	cmp	w0, #0x1
  4179bc:	540000c1 	b.ne	4179d4 <_ZN3MPI8CartcommC1ERKP19ompi_communicator_t+0x9c>
  4179c0:	f94013e0 	ldr	x0, [sp,#32]
  4179c4:	f9400001 	ldr	x1, [x0]
  4179c8:	f94017e0 	ldr	x0, [sp,#40]
  4179cc:	f9000401 	str	x1, [x0,#8]
  4179d0:	14000010 	b	417a10 <_ZN3MPI8CartcommC1ERKP19ompi_communicator_t+0xd8>
  4179d4:	f94017e0 	ldr	x0, [sp,#40]
  4179d8:	f00000a1 	adrp	x1, 42e000 <_Znam@GLIBCXX_3.4>
  4179dc:	91206021 	add	x1, x1, #0x818
  4179e0:	f9000401 	str	x1, [x0,#8]
  4179e4:	1400000b 	b	417a10 <_ZN3MPI8CartcommC1ERKP19ompi_communicator_t+0xd8>
  4179e8:	f94013e0 	ldr	x0, [sp,#32]
  4179ec:	f9400001 	ldr	x1, [x0]
  4179f0:	f94017e0 	ldr	x0, [sp,#40]
  4179f4:	f9000401 	str	x1, [x0,#8]
  4179f8:	14000006 	b	417a10 <_ZN3MPI8CartcommC1ERKP19ompi_communicator_t+0xd8>
  4179fc:	aa0003f3 	mov	x19, x0
  417a00:	f94017e0 	ldr	x0, [sp,#40]
  417a04:	97fff571 	bl	414fc8 <_ZN3MPI9IntracommD1Ev>
  417a08:	aa1303e0 	mov	x0, x19
  417a0c:	97ffc679 	bl	4093f0 <_Unwind_Resume@plt>
  417a10:	f9400bf3 	ldr	x19, [sp,#16]
  417a14:	a8c47bfd 	ldp	x29, x30, [sp],#64
  417a18:	d65f03c0 	ret

0000000000417a1c <_ZNK3MPI8Cartcomm7Get_dimEv>:
  417a1c:	a9bd7bfd 	stp	x29, x30, [sp,#-48]!
  417a20:	910003fd 	mov	x29, sp
  417a24:	f9000fe0 	str	x0, [sp,#24]
  417a28:	f9400fe0 	ldr	x0, [sp,#24]
  417a2c:	f9400400 	ldr	x0, [x0,#8]
  417a30:	9100b3e1 	add	x1, sp, #0x2c
  417a34:	97ffc54f 	bl	408f70 <MPI_Cartdim_get@plt>
  417a38:	b9402fe0 	ldr	w0, [sp,#44]
  417a3c:	a8c37bfd 	ldp	x29, x30, [sp],#48
  417a40:	d65f03c0 	ret

0000000000417a44 <_ZNK3MPI8Cartcomm8Get_topoEiPiPbS1_>:
  417a44:	a9bb7bfd 	stp	x29, x30, [sp,#-80]!
  417a48:	910003fd 	mov	x29, sp
  417a4c:	f9001fe0 	str	x0, [sp,#56]
  417a50:	b90037e1 	str	w1, [sp,#52]
  417a54:	f90017e2 	str	x2, [sp,#40]
  417a58:	f90013e3 	str	x3, [sp,#32]
  417a5c:	f9000fe4 	str	x4, [sp,#24]
  417a60:	b98037e0 	ldrsw	x0, [sp,#52]
  417a64:	b27fefe1 	mov	x1, #0x1ffffffffffffffe    	// #2305843009213693950
  417a68:	eb01001f 	cmp	x0, x1
  417a6c:	540000c8 	b.hi	417a84 <_ZNK3MPI8Cartcomm8Get_topoEiPiPbS1_+0x40>
  417a70:	d37ef400 	lsl	x0, x0, #2
  417a74:	97ffc3cf 	bl	4089b0 <_Znam@plt>
  417a78:	f90023e0 	str	x0, [sp,#64]
  417a7c:	b9004fff 	str	wzr, [sp,#76]
  417a80:	1400000f 	b	417abc <_ZNK3MPI8Cartcomm8Get_topoEiPiPbS1_+0x78>
  417a84:	97ffc5cb 	bl	4091b0 <__cxa_throw_bad_array_new_length@plt>
  417a88:	b9804fe0 	ldrsw	x0, [sp,#76]
  417a8c:	f94013e1 	ldr	x1, [sp,#32]
  417a90:	8b000020 	add	x0, x1, x0
  417a94:	39400002 	ldrb	w2, [x0]
  417a98:	b9804fe0 	ldrsw	x0, [sp,#76]
  417a9c:	d37ef400 	lsl	x0, x0, #2
  417aa0:	f94023e1 	ldr	x1, [sp,#64]
  417aa4:	8b000020 	add	x0, x1, x0
  417aa8:	2a0203e1 	mov	w1, w2
  417aac:	b9000001 	str	w1, [x0]
  417ab0:	b9404fe0 	ldr	w0, [sp,#76]
  417ab4:	11000400 	add	w0, w0, #0x1
  417ab8:	b9004fe0 	str	w0, [sp,#76]
  417abc:	b9404fe1 	ldr	w1, [sp,#76]
  417ac0:	b94037e0 	ldr	w0, [sp,#52]
  417ac4:	6b00003f 	cmp	w1, w0
  417ac8:	54fffe0b 	b.lt	417a88 <_ZNK3MPI8Cartcomm8Get_topoEiPiPbS1_+0x44>
  417acc:	f9401fe0 	ldr	x0, [sp,#56]
  417ad0:	f9400400 	ldr	x0, [x0,#8]
  417ad4:	f9400fe4 	ldr	x4, [sp,#24]
  417ad8:	f94023e3 	ldr	x3, [sp,#64]
  417adc:	f94017e2 	ldr	x2, [sp,#40]
  417ae0:	b94037e1 	ldr	w1, [sp,#52]
  417ae4:	97ffc4db 	bl	408e50 <MPI_Cart_get@plt>
  417ae8:	b9004fff 	str	wzr, [sp,#76]
  417aec:	14000010 	b	417b2c <_ZNK3MPI8Cartcomm8Get_topoEiPiPbS1_+0xe8>
  417af0:	b9804fe0 	ldrsw	x0, [sp,#76]
  417af4:	d37ef400 	lsl	x0, x0, #2
  417af8:	f94023e1 	ldr	x1, [sp,#64]
  417afc:	8b000020 	add	x0, x1, x0
  417b00:	b9400001 	ldr	w1, [x0]
  417b04:	b9804fe0 	ldrsw	x0, [sp,#76]
  417b08:	f94013e2 	ldr	x2, [sp,#32]
  417b0c:	8b000040 	add	x0, x2, x0
  417b10:	7100003f 	cmp	w1, #0x0
  417b14:	1a9f07e1 	cset	w1, ne
  417b18:	12001c21 	and	w1, w1, #0xff
  417b1c:	39000001 	strb	w1, [x0]
  417b20:	b9404fe0 	ldr	w0, [sp,#76]
  417b24:	11000400 	add	w0, w0, #0x1
  417b28:	b9004fe0 	str	w0, [sp,#76]
  417b2c:	b9404fe1 	ldr	w1, [sp,#76]
  417b30:	b94037e0 	ldr	w0, [sp,#52]
  417b34:	6b00003f 	cmp	w1, w0
  417b38:	54fffdcb 	b.lt	417af0 <_ZNK3MPI8Cartcomm8Get_topoEiPiPbS1_+0xac>
  417b3c:	f94023e0 	ldr	x0, [sp,#64]
  417b40:	f100001f 	cmp	x0, #0x0
  417b44:	54000060 	b.eq	417b50 <_ZNK3MPI8Cartcomm8Get_topoEiPiPbS1_+0x10c>
  417b48:	f94023e0 	ldr	x0, [sp,#64]
  417b4c:	97ffc55d 	bl	4090c0 <_ZdaPv@plt>
  417b50:	d503201f 	nop
  417b54:	a8c57bfd 	ldp	x29, x30, [sp],#80
  417b58:	d65f03c0 	ret

0000000000417b5c <_ZNK3MPI8Cartcomm13Get_cart_rankEPKi>:
  417b5c:	a9bd7bfd 	stp	x29, x30, [sp,#-48]!
  417b60:	910003fd 	mov	x29, sp
  417b64:	f9000fe0 	str	x0, [sp,#24]
  417b68:	f9000be1 	str	x1, [sp,#16]
  417b6c:	f9400fe0 	ldr	x0, [sp,#24]
  417b70:	f9400400 	ldr	x0, [x0,#8]
  417b74:	9100b3e1 	add	x1, sp, #0x2c
  417b78:	aa0103e2 	mov	x2, x1
  417b7c:	f9400be1 	ldr	x1, [sp,#16]
  417b80:	97ffc620 	bl	409400 <MPI_Cart_rank@plt>
  417b84:	b9402fe0 	ldr	w0, [sp,#44]
  417b88:	a8c37bfd 	ldp	x29, x30, [sp],#48
  417b8c:	d65f03c0 	ret

0000000000417b90 <_ZNK3MPI8Cartcomm10Get_coordsEiiPi>:
  417b90:	a9bd7bfd 	stp	x29, x30, [sp,#-48]!
  417b94:	910003fd 	mov	x29, sp
  417b98:	f90017e0 	str	x0, [sp,#40]
  417b9c:	b90027e1 	str	w1, [sp,#36]
  417ba0:	b90023e2 	str	w2, [sp,#32]
  417ba4:	f9000fe3 	str	x3, [sp,#24]
  417ba8:	f94017e0 	ldr	x0, [sp,#40]
  417bac:	f9400400 	ldr	x0, [x0,#8]
  417bb0:	f9400fe3 	ldr	x3, [sp,#24]
  417bb4:	b94023e2 	ldr	w2, [sp,#32]
  417bb8:	b94027e1 	ldr	w1, [sp,#36]
  417bbc:	97ffc4f1 	bl	408f80 <MPI_Cart_coords@plt>
  417bc0:	d503201f 	nop
  417bc4:	a8c37bfd 	ldp	x29, x30, [sp],#48
  417bc8:	d65f03c0 	ret

0000000000417bcc <_ZNK3MPI8Cartcomm5ShiftEiiRiS1_>:
  417bcc:	a9bd7bfd 	stp	x29, x30, [sp,#-48]!
  417bd0:	910003fd 	mov	x29, sp
  417bd4:	f90017e0 	str	x0, [sp,#40]
  417bd8:	b90027e1 	str	w1, [sp,#36]
  417bdc:	b90023e2 	str	w2, [sp,#32]
  417be0:	f9000fe3 	str	x3, [sp,#24]
  417be4:	f9000be4 	str	x4, [sp,#16]
  417be8:	f94017e0 	ldr	x0, [sp,#40]
  417bec:	f9400400 	ldr	x0, [x0,#8]
  417bf0:	f9400be4 	ldr	x4, [sp,#16]
  417bf4:	f9400fe3 	ldr	x3, [sp,#24]
  417bf8:	b94023e2 	ldr	w2, [sp,#32]
  417bfc:	b94027e1 	ldr	w1, [sp,#36]
  417c00:	97ffc41c 	bl	408c70 <MPI_Cart_shift@plt>
  417c04:	d503201f 	nop
  417c08:	a8c37bfd 	ldp	x29, x30, [sp],#48
  417c0c:	d65f03c0 	ret

0000000000417c10 <_ZNK3MPI8Cartcomm3SubEPKb>:
  417c10:	a9bb7bfd 	stp	x29, x30, [sp,#-80]!
  417c14:	910003fd 	mov	x29, sp
  417c18:	f9000bf3 	str	x19, [sp,#16]
  417c1c:	aa0803f3 	mov	x19, x8
  417c20:	f90017e0 	str	x0, [sp,#40]
  417c24:	f90013e1 	str	x1, [sp,#32]
  417c28:	f94017e0 	ldr	x0, [sp,#40]
  417c2c:	f9400400 	ldr	x0, [x0,#8]
  417c30:	9100f3e1 	add	x1, sp, #0x3c
  417c34:	97ffc4cf 	bl	408f70 <MPI_Cartdim_get@plt>
  417c38:	b9403fe0 	ldr	w0, [sp,#60]
  417c3c:	93407c00 	sxtw	x0, w0
  417c40:	b27fefe1 	mov	x1, #0x1ffffffffffffffe    	// #2305843009213693950
  417c44:	eb01001f 	cmp	x0, x1
  417c48:	540000c8 	b.hi	417c60 <_ZNK3MPI8Cartcomm3SubEPKb+0x50>
  417c4c:	d37ef400 	lsl	x0, x0, #2
  417c50:	97ffc358 	bl	4089b0 <_Znam@plt>
  417c54:	f90023e0 	str	x0, [sp,#64]
  417c58:	b9004fff 	str	wzr, [sp,#76]
  417c5c:	1400000f 	b	417c98 <_ZNK3MPI8Cartcomm3SubEPKb+0x88>
  417c60:	97ffc554 	bl	4091b0 <__cxa_throw_bad_array_new_length@plt>
  417c64:	b9804fe0 	ldrsw	x0, [sp,#76]
  417c68:	f94013e1 	ldr	x1, [sp,#32]
  417c6c:	8b000020 	add	x0, x1, x0
  417c70:	39400002 	ldrb	w2, [x0]
  417c74:	b9804fe0 	ldrsw	x0, [sp,#76]
  417c78:	d37ef400 	lsl	x0, x0, #2
  417c7c:	f94023e1 	ldr	x1, [sp,#64]
  417c80:	8b000020 	add	x0, x1, x0
  417c84:	2a0203e1 	mov	w1, w2
  417c88:	b9000001 	str	w1, [x0]
  417c8c:	b9404fe0 	ldr	w0, [sp,#76]
  417c90:	11000400 	add	w0, w0, #0x1
  417c94:	b9004fe0 	str	w0, [sp,#76]
  417c98:	b9403fe0 	ldr	w0, [sp,#60]
  417c9c:	b9404fe1 	ldr	w1, [sp,#76]
  417ca0:	6b00003f 	cmp	w1, w0
  417ca4:	54fffe0b 	b.lt	417c64 <_ZNK3MPI8Cartcomm3SubEPKb+0x54>
  417ca8:	f94017e0 	ldr	x0, [sp,#40]
  417cac:	f9400400 	ldr	x0, [x0,#8]
  417cb0:	9100c3e1 	add	x1, sp, #0x30
  417cb4:	aa0103e2 	mov	x2, x1
  417cb8:	f94023e1 	ldr	x1, [sp,#64]
  417cbc:	97ffc3fd 	bl	408cb0 <MPI_Cart_sub@plt>
  417cc0:	f94023e0 	ldr	x0, [sp,#64]
  417cc4:	f100001f 	cmp	x0, #0x0
  417cc8:	54000060 	b.eq	417cd4 <_ZNK3MPI8Cartcomm3SubEPKb+0xc4>
  417ccc:	f94023e0 	ldr	x0, [sp,#64]
  417cd0:	97ffc4fc 	bl	4090c0 <_ZdaPv@plt>
  417cd4:	9100c3e0 	add	x0, sp, #0x30
  417cd8:	aa0003e1 	mov	x1, x0
  417cdc:	aa1303e0 	mov	x0, x19
  417ce0:	97ffff16 	bl	417938 <_ZN3MPI8CartcommC1ERKP19ompi_communicator_t>
  417ce4:	aa1303e0 	mov	x0, x19
  417ce8:	f9400bf3 	ldr	x19, [sp,#16]
  417cec:	a8c57bfd 	ldp	x29, x30, [sp],#80
  417cf0:	d65f03c0 	ret

0000000000417cf4 <_ZNK3MPI8Cartcomm3MapEiPKiPKb>:
  417cf4:	a9bb7bfd 	stp	x29, x30, [sp,#-80]!
  417cf8:	910003fd 	mov	x29, sp
  417cfc:	f90017e0 	str	x0, [sp,#40]
  417d00:	b90027e1 	str	w1, [sp,#36]
  417d04:	f9000fe2 	str	x2, [sp,#24]
  417d08:	f9000be3 	str	x3, [sp,#16]
  417d0c:	b98027e0 	ldrsw	x0, [sp,#36]
  417d10:	b27fefe1 	mov	x1, #0x1ffffffffffffffe    	// #2305843009213693950
  417d14:	eb01001f 	cmp	x0, x1
  417d18:	540000c8 	b.hi	417d30 <_ZNK3MPI8Cartcomm3MapEiPKiPKb+0x3c>
  417d1c:	d37ef400 	lsl	x0, x0, #2
  417d20:	97ffc324 	bl	4089b0 <_Znam@plt>
  417d24:	f90023e0 	str	x0, [sp,#64]
  417d28:	b9004fff 	str	wzr, [sp,#76]
  417d2c:	1400000f 	b	417d68 <_ZNK3MPI8Cartcomm3MapEiPKiPKb+0x74>
  417d30:	97ffc520 	bl	4091b0 <__cxa_throw_bad_array_new_length@plt>
  417d34:	b9804fe0 	ldrsw	x0, [sp,#76]
  417d38:	f9400be1 	ldr	x1, [sp,#16]
  417d3c:	8b000020 	add	x0, x1, x0
  417d40:	39400002 	ldrb	w2, [x0]
  417d44:	b9804fe0 	ldrsw	x0, [sp,#76]
  417d48:	d37ef400 	lsl	x0, x0, #2
  417d4c:	f94023e1 	ldr	x1, [sp,#64]
  417d50:	8b000020 	add	x0, x1, x0
  417d54:	2a0203e1 	mov	w1, w2
  417d58:	b9000001 	str	w1, [x0]
  417d5c:	b9404fe0 	ldr	w0, [sp,#76]
  417d60:	11000400 	add	w0, w0, #0x1
  417d64:	b9004fe0 	str	w0, [sp,#76]
  417d68:	b9404fe1 	ldr	w1, [sp,#76]
  417d6c:	b94027e0 	ldr	w0, [sp,#36]
  417d70:	6b00003f 	cmp	w1, w0
  417d74:	54fffe0b 	b.lt	417d34 <_ZNK3MPI8Cartcomm3MapEiPKiPKb+0x40>
  417d78:	f94017e0 	ldr	x0, [sp,#40]
  417d7c:	f9400400 	ldr	x0, [x0,#8]
  417d80:	9100f3e1 	add	x1, sp, #0x3c
  417d84:	aa0103e4 	mov	x4, x1
  417d88:	f94023e3 	ldr	x3, [sp,#64]
  417d8c:	f9400fe2 	ldr	x2, [sp,#24]
  417d90:	b94027e1 	ldr	w1, [sp,#36]
  417d94:	97ffc447 	bl	408eb0 <MPI_Cart_map@plt>
  417d98:	f94023e0 	ldr	x0, [sp,#64]
  417d9c:	f100001f 	cmp	x0, #0x0
  417da0:	54000060 	b.eq	417dac <_ZNK3MPI8Cartcomm3MapEiPKiPKb+0xb8>
  417da4:	f94023e0 	ldr	x0, [sp,#64]
  417da8:	97ffc4c6 	bl	4090c0 <_ZdaPv@plt>
  417dac:	b9403fe0 	ldr	w0, [sp,#60]
  417db0:	a8c57bfd 	ldp	x29, x30, [sp],#80
  417db4:	d65f03c0 	ret

0000000000417db8 <_ZNK3MPI8Cartcomm5CloneEv>:
  417db8:	a9bc7bfd 	stp	x29, x30, [sp,#-64]!
  417dbc:	910003fd 	mov	x29, sp
  417dc0:	a90153f3 	stp	x19, x20, [sp,#16]
  417dc4:	f90017e0 	str	x0, [sp,#40]
  417dc8:	f94017e0 	ldr	x0, [sp,#40]
  417dcc:	f9400400 	ldr	x0, [x0,#8]
  417dd0:	9100c3e1 	add	x1, sp, #0x30
  417dd4:	97ffc4d7 	bl	409130 <MPI_Comm_dup@plt>
  417dd8:	d2800200 	mov	x0, #0x10                  	// #16
  417ddc:	97ffc449 	bl	408f00 <_Znwm@plt>
  417de0:	aa0003f3 	mov	x19, x0
  417de4:	9100c3e0 	add	x0, sp, #0x30
  417de8:	aa0003e1 	mov	x1, x0
  417dec:	aa1303e0 	mov	x0, x19
  417df0:	97fffed2 	bl	417938 <_ZN3MPI8CartcommC1ERKP19ompi_communicator_t>
  417df4:	f9001ff3 	str	x19, [sp,#56]
  417df8:	f9401fe0 	ldr	x0, [sp,#56]
  417dfc:	14000007 	b	417e18 <_ZNK3MPI8Cartcomm5CloneEv+0x60>
  417e00:	aa0003f4 	mov	x20, x0
  417e04:	d2800201 	mov	x1, #0x10                  	// #16
  417e08:	aa1303e0 	mov	x0, x19
  417e0c:	97ffc445 	bl	408f20 <_ZdlPvm@plt>
  417e10:	aa1403e0 	mov	x0, x20
  417e14:	97ffc577 	bl	4093f0 <_Unwind_Resume@plt>
  417e18:	a94153f3 	ldp	x19, x20, [sp,#16]
  417e1c:	a8c47bfd 	ldp	x29, x30, [sp],#64
  417e20:	d65f03c0 	ret

0000000000417e24 <_ZN3MPI9GraphcommC1ERKP19ompi_communicator_t>:
  417e24:	a9bc7bfd 	stp	x29, x30, [sp,#-64]!
  417e28:	910003fd 	mov	x29, sp
  417e2c:	f9000bf3 	str	x19, [sp,#16]
  417e30:	f90017e0 	str	x0, [sp,#40]
  417e34:	f90013e1 	str	x1, [sp,#32]
  417e38:	f94017e0 	ldr	x0, [sp,#40]
  417e3c:	97fff457 	bl	414f98 <_ZN3MPI9IntracommC1Ev>
  417e40:	d0000000 	adrp	x0, 419000 <_IO_stdin_used+0x8>
  417e44:	9130a001 	add	x1, x0, #0xc28
  417e48:	f94017e0 	ldr	x0, [sp,#40]
  417e4c:	f9000001 	str	x1, [x0]
  417e50:	b9003fff 	str	wzr, [sp,#60]
  417e54:	97fff6db 	bl	4159c0 <_ZN3MPI14Is_initializedEv>
  417e58:	12001c00 	and	w0, w0, #0xff
  417e5c:	7100001f 	cmp	w0, #0x0
  417e60:	54000120 	b.eq	417e84 <_ZN3MPI9GraphcommC1ERKP19ompi_communicator_t+0x60>
  417e64:	f94013e0 	ldr	x0, [sp,#32]
  417e68:	f9400001 	ldr	x1, [x0]
  417e6c:	f00000a0 	adrp	x0, 42e000 <_Znam@GLIBCXX_3.4>
  417e70:	91206000 	add	x0, x0, #0x818
  417e74:	eb00003f 	cmp	x1, x0
  417e78:	54000060 	b.eq	417e84 <_ZN3MPI9GraphcommC1ERKP19ompi_communicator_t+0x60>
  417e7c:	52800020 	mov	w0, #0x1                   	// #1
  417e80:	14000002 	b	417e88 <_ZN3MPI9GraphcommC1ERKP19ompi_communicator_t+0x64>
  417e84:	52800000 	mov	w0, #0x0                   	// #0
  417e88:	7100001f 	cmp	w0, #0x0
  417e8c:	54000240 	b.eq	417ed4 <_ZN3MPI9GraphcommC1ERKP19ompi_communicator_t+0xb0>
  417e90:	f94013e0 	ldr	x0, [sp,#32]
  417e94:	f9400000 	ldr	x0, [x0]
  417e98:	9100f3e1 	add	x1, sp, #0x3c
  417e9c:	97ffc4d5 	bl	4091f0 <MPI_Topo_test@plt>
  417ea0:	b9403fe0 	ldr	w0, [sp,#60]
  417ea4:	7100081f 	cmp	w0, #0x2
  417ea8:	540000c1 	b.ne	417ec0 <_ZN3MPI9GraphcommC1ERKP19ompi_communicator_t+0x9c>
  417eac:	f94013e0 	ldr	x0, [sp,#32]
  417eb0:	f9400001 	ldr	x1, [x0]
  417eb4:	f94017e0 	ldr	x0, [sp,#40]
  417eb8:	f9000401 	str	x1, [x0,#8]
  417ebc:	14000010 	b	417efc <_ZN3MPI9GraphcommC1ERKP19ompi_communicator_t+0xd8>
  417ec0:	f94017e0 	ldr	x0, [sp,#40]
  417ec4:	f00000a1 	adrp	x1, 42e000 <_Znam@GLIBCXX_3.4>
  417ec8:	91206021 	add	x1, x1, #0x818
  417ecc:	f9000401 	str	x1, [x0,#8]
  417ed0:	1400000b 	b	417efc <_ZN3MPI9GraphcommC1ERKP19ompi_communicator_t+0xd8>
  417ed4:	f94013e0 	ldr	x0, [sp,#32]
  417ed8:	f9400001 	ldr	x1, [x0]
  417edc:	f94017e0 	ldr	x0, [sp,#40]
  417ee0:	f9000401 	str	x1, [x0,#8]
  417ee4:	14000006 	b	417efc <_ZN3MPI9GraphcommC1ERKP19ompi_communicator_t+0xd8>
  417ee8:	aa0003f3 	mov	x19, x0
  417eec:	f94017e0 	ldr	x0, [sp,#40]
  417ef0:	97fff436 	bl	414fc8 <_ZN3MPI9IntracommD1Ev>
  417ef4:	aa1303e0 	mov	x0, x19
  417ef8:	97ffc53e 	bl	4093f0 <_Unwind_Resume@plt>
  417efc:	f9400bf3 	ldr	x19, [sp,#16]
  417f00:	a8c47bfd 	ldp	x29, x30, [sp],#64
  417f04:	d65f03c0 	ret

0000000000417f08 <_ZNK3MPI9Graphcomm8Get_dimsEPiS1_>:
  417f08:	a9bd7bfd 	stp	x29, x30, [sp,#-48]!
  417f0c:	910003fd 	mov	x29, sp
  417f10:	f90017e0 	str	x0, [sp,#40]
  417f14:	f90013e1 	str	x1, [sp,#32]
  417f18:	f9000fe2 	str	x2, [sp,#24]
  417f1c:	f94017e0 	ldr	x0, [sp,#40]
  417f20:	f9400400 	ldr	x0, [x0,#8]
  417f24:	f9400fe2 	ldr	x2, [sp,#24]
  417f28:	f94013e1 	ldr	x1, [sp,#32]
  417f2c:	97ffc349 	bl	408c50 <MPI_Graphdims_get@plt>
  417f30:	d503201f 	nop
  417f34:	a8c37bfd 	ldp	x29, x30, [sp],#48
  417f38:	d65f03c0 	ret

0000000000417f3c <_ZNK3MPI9Graphcomm8Get_topoEiiPiS1_>:
  417f3c:	a9bd7bfd 	stp	x29, x30, [sp,#-48]!
  417f40:	910003fd 	mov	x29, sp
  417f44:	f90017e0 	str	x0, [sp,#40]
  417f48:	b90027e1 	str	w1, [sp,#36]
  417f4c:	b90023e2 	str	w2, [sp,#32]
  417f50:	f9000fe3 	str	x3, [sp,#24]
  417f54:	f9000be4 	str	x4, [sp,#16]
  417f58:	f94017e0 	ldr	x0, [sp,#40]
  417f5c:	f9400400 	ldr	x0, [x0,#8]
  417f60:	f9400be4 	ldr	x4, [sp,#16]
  417f64:	f9400fe3 	ldr	x3, [sp,#24]
  417f68:	b94023e2 	ldr	w2, [sp,#32]
  417f6c:	b94027e1 	ldr	w1, [sp,#36]
  417f70:	97ffc3a8 	bl	408e10 <MPI_Graph_get@plt>
  417f74:	d503201f 	nop
  417f78:	a8c37bfd 	ldp	x29, x30, [sp],#48
  417f7c:	d65f03c0 	ret

0000000000417f80 <_ZNK3MPI9Graphcomm19Get_neighbors_countEi>:
  417f80:	a9bd7bfd 	stp	x29, x30, [sp,#-48]!
  417f84:	910003fd 	mov	x29, sp
  417f88:	f9000fe0 	str	x0, [sp,#24]
  417f8c:	b90017e1 	str	w1, [sp,#20]
  417f90:	f9400fe0 	ldr	x0, [sp,#24]
  417f94:	f9400400 	ldr	x0, [x0,#8]
  417f98:	9100b3e1 	add	x1, sp, #0x2c
  417f9c:	aa0103e2 	mov	x2, x1
  417fa0:	b94017e1 	ldr	w1, [sp,#20]
  417fa4:	97ffc557 	bl	409500 <MPI_Graph_neighbors_count@plt>
  417fa8:	b9402fe0 	ldr	w0, [sp,#44]
  417fac:	a8c37bfd 	ldp	x29, x30, [sp],#48
  417fb0:	d65f03c0 	ret

0000000000417fb4 <_ZNK3MPI9Graphcomm13Get_neighborsEiiPi>:
  417fb4:	a9bd7bfd 	stp	x29, x30, [sp,#-48]!
  417fb8:	910003fd 	mov	x29, sp
  417fbc:	f90017e0 	str	x0, [sp,#40]
  417fc0:	b90027e1 	str	w1, [sp,#36]
  417fc4:	b90023e2 	str	w2, [sp,#32]
  417fc8:	f9000fe3 	str	x3, [sp,#24]
  417fcc:	f94017e0 	ldr	x0, [sp,#40]
  417fd0:	f9400400 	ldr	x0, [x0,#8]
  417fd4:	f9400fe3 	ldr	x3, [sp,#24]
  417fd8:	b94023e2 	ldr	w2, [sp,#32]
  417fdc:	b94027e1 	ldr	w1, [sp,#36]
  417fe0:	97ffc2c4 	bl	408af0 <MPI_Graph_neighbors@plt>
  417fe4:	d503201f 	nop
  417fe8:	a8c37bfd 	ldp	x29, x30, [sp],#48
  417fec:	d65f03c0 	ret

0000000000417ff0 <_ZNK3MPI9Graphcomm3MapEiPKiS2_>:
  417ff0:	a9bc7bfd 	stp	x29, x30, [sp,#-64]!
  417ff4:	910003fd 	mov	x29, sp
  417ff8:	f90017e0 	str	x0, [sp,#40]
  417ffc:	b90027e1 	str	w1, [sp,#36]
  418000:	f9000fe2 	str	x2, [sp,#24]
  418004:	f9000be3 	str	x3, [sp,#16]
  418008:	f94017e0 	ldr	x0, [sp,#40]
  41800c:	f9400400 	ldr	x0, [x0,#8]
  418010:	9100f3e1 	add	x1, sp, #0x3c
  418014:	aa0103e4 	mov	x4, x1
  418018:	f9400be3 	ldr	x3, [sp,#16]
  41801c:	f9400fe2 	ldr	x2, [sp,#24]
  418020:	b94027e1 	ldr	w1, [sp,#36]
  418024:	97ffc397 	bl	408e80 <MPI_Graph_map@plt>
  418028:	b9403fe0 	ldr	w0, [sp,#60]
  41802c:	a8c47bfd 	ldp	x29, x30, [sp],#64
  418030:	d65f03c0 	ret

0000000000418034 <_ZNK3MPI9Graphcomm5CloneEv>:
  418034:	a9bc7bfd 	stp	x29, x30, [sp,#-64]!
  418038:	910003fd 	mov	x29, sp
  41803c:	a90153f3 	stp	x19, x20, [sp,#16]
  418040:	f90017e0 	str	x0, [sp,#40]
  418044:	f94017e0 	ldr	x0, [sp,#40]
  418048:	f9400400 	ldr	x0, [x0,#8]
  41804c:	9100c3e1 	add	x1, sp, #0x30
  418050:	97ffc438 	bl	409130 <MPI_Comm_dup@plt>
  418054:	d2800200 	mov	x0, #0x10                  	// #16
  418058:	97ffc3aa 	bl	408f00 <_Znwm@plt>
  41805c:	aa0003f3 	mov	x19, x0
  418060:	9100c3e0 	add	x0, sp, #0x30
  418064:	aa0003e1 	mov	x1, x0
  418068:	aa1303e0 	mov	x0, x19
  41806c:	97ffff6e 	bl	417e24 <_ZN3MPI9GraphcommC1ERKP19ompi_communicator_t>
  418070:	f9001ff3 	str	x19, [sp,#56]
  418074:	f9401fe0 	ldr	x0, [sp,#56]
  418078:	14000007 	b	418094 <_ZNK3MPI9Graphcomm5CloneEv+0x60>
  41807c:	aa0003f4 	mov	x20, x0
  418080:	d2800201 	mov	x1, #0x10                  	// #16
  418084:	aa1303e0 	mov	x0, x19
  418088:	97ffc3a6 	bl	408f20 <_ZdlPvm@plt>
  41808c:	aa1403e0 	mov	x0, x20
  418090:	97ffc4d8 	bl	4093f0 <_Unwind_Resume@plt>
  418094:	a94153f3 	ldp	x19, x20, [sp,#16]
  418098:	a8c47bfd 	ldp	x29, x30, [sp],#64
  41809c:	d65f03c0 	ret

00000000004180a0 <_ZNK3MPI9Intercomm5CloneEv>:
  4180a0:	a9bc7bfd 	stp	x29, x30, [sp,#-64]!
  4180a4:	910003fd 	mov	x29, sp
  4180a8:	f9000bf3 	str	x19, [sp,#16]
  4180ac:	f90017e0 	str	x0, [sp,#40]
  4180b0:	f94017e0 	ldr	x0, [sp,#40]
  4180b4:	f9400400 	ldr	x0, [x0,#8]
  4180b8:	9100c3e1 	add	x1, sp, #0x30
  4180bc:	97ffc41d 	bl	409130 <MPI_Comm_dup@plt>
  4180c0:	d2800200 	mov	x0, #0x10                  	// #16
  4180c4:	97ffc38f 	bl	408f00 <_Znwm@plt>
  4180c8:	aa0003f3 	mov	x19, x0
  4180cc:	f9401be0 	ldr	x0, [sp,#48]
  4180d0:	aa0003e1 	mov	x1, x0
  4180d4:	aa1303e0 	mov	x0, x19
  4180d8:	97fff3d2 	bl	415020 <_ZN3MPI9IntercommC1EP19ompi_communicator_t>
  4180dc:	f9001ff3 	str	x19, [sp,#56]
  4180e0:	f9401fe0 	ldr	x0, [sp,#56]
  4180e4:	f9400bf3 	ldr	x19, [sp,#16]
  4180e8:	a8c47bfd 	ldp	x29, x30, [sp],#64
  4180ec:	d65f03c0 	ret

00000000004180f0 <_ZNK3MPI9Intercomm15Get_remote_sizeEv>:
  4180f0:	a9bd7bfd 	stp	x29, x30, [sp,#-48]!
  4180f4:	910003fd 	mov	x29, sp
  4180f8:	f9000fe0 	str	x0, [sp,#24]
  4180fc:	f9400fe0 	ldr	x0, [sp,#24]
  418100:	f9400400 	ldr	x0, [x0,#8]
  418104:	9100b3e1 	add	x1, sp, #0x2c
  418108:	97ffc44a 	bl	409230 <MPI_Comm_remote_size@plt>
  41810c:	b9402fe0 	ldr	w0, [sp,#44]
  418110:	a8c37bfd 	ldp	x29, x30, [sp],#48
  418114:	d65f03c0 	ret

0000000000418118 <_ZNK3MPI9Intercomm16Get_remote_groupEv>:
  418118:	a9bc7bfd 	stp	x29, x30, [sp,#-64]!
  41811c:	910003fd 	mov	x29, sp
  418120:	f9000bf3 	str	x19, [sp,#16]
  418124:	aa0803f3 	mov	x19, x8
  418128:	f90017e0 	str	x0, [sp,#40]
  41812c:	f94017e0 	ldr	x0, [sp,#40]
  418130:	f9400400 	ldr	x0, [x0,#8]
  418134:	9100e3e1 	add	x1, sp, #0x38
  418138:	97ffc3f6 	bl	409110 <MPI_Comm_remote_group@plt>
  41813c:	f9401fe0 	ldr	x0, [sp,#56]
  418140:	aa0003e1 	mov	x1, x0
  418144:	aa1303e0 	mov	x0, x19
  418148:	97fff2eb 	bl	414cf4 <_ZN3MPI5GroupC1EP12ompi_group_t>
  41814c:	aa1303e0 	mov	x0, x19
  418150:	f9400bf3 	ldr	x19, [sp,#16]
  418154:	a8c47bfd 	ldp	x29, x30, [sp],#64
  418158:	d65f03c0 	ret

000000000041815c <_ZNK3MPI9Intercomm5MergeEb>:
  41815c:	a9bc7bfd 	stp	x29, x30, [sp,#-64]!
  418160:	910003fd 	mov	x29, sp
  418164:	f9000bf3 	str	x19, [sp,#16]
  418168:	aa0803f3 	mov	x19, x8
  41816c:	f90017e0 	str	x0, [sp,#40]
  418170:	39009fe1 	strb	w1, [sp,#39]
  418174:	f94017e0 	ldr	x0, [sp,#40]
  418178:	f9400400 	ldr	x0, [x0,#8]
  41817c:	39409fe1 	ldrb	w1, [sp,#39]
  418180:	9100e3e2 	add	x2, sp, #0x38
  418184:	97ffc4bf 	bl	409480 <MPI_Intercomm_merge@plt>
  418188:	f9401fe0 	ldr	x0, [sp,#56]
  41818c:	aa0003e1 	mov	x1, x0
  418190:	aa1303e0 	mov	x0, x19
  418194:	97fffbc7 	bl	4170b0 <_ZN3MPI9IntracommC1EP19ompi_communicator_t>
  418198:	aa1303e0 	mov	x0, x19
  41819c:	f9400bf3 	ldr	x19, [sp,#16]
  4181a0:	a8c47bfd 	ldp	x29, x30, [sp],#64
  4181a4:	d65f03c0 	ret

00000000004181a8 <_ZNK3MPI9Intercomm6CreateERKNS_5GroupE>:
  4181a8:	a9bc7bfd 	stp	x29, x30, [sp,#-64]!
  4181ac:	910003fd 	mov	x29, sp
  4181b0:	a90153f3 	stp	x19, x20, [sp,#16]
  4181b4:	aa0803f3 	mov	x19, x8
  4181b8:	f90017e0 	str	x0, [sp,#40]
  4181bc:	f90013e1 	str	x1, [sp,#32]
  4181c0:	f94017e0 	ldr	x0, [sp,#40]
  4181c4:	f9400414 	ldr	x20, [x0,#8]
  4181c8:	f94013e0 	ldr	x0, [sp,#32]
  4181cc:	97fff2ea 	bl	414d74 <_ZNK3MPI5GroupcvP12ompi_group_tEv>
  4181d0:	aa0003e1 	mov	x1, x0
  4181d4:	9100e3e0 	add	x0, sp, #0x38
  4181d8:	aa0003e2 	mov	x2, x0
  4181dc:	aa1403e0 	mov	x0, x20
  4181e0:	97ffc314 	bl	408e30 <MPI_Comm_create@plt>
  4181e4:	f9401fe0 	ldr	x0, [sp,#56]
  4181e8:	aa0003e1 	mov	x1, x0
  4181ec:	aa1303e0 	mov	x0, x19
  4181f0:	97fff38c 	bl	415020 <_ZN3MPI9IntercommC1EP19ompi_communicator_t>
  4181f4:	aa1303e0 	mov	x0, x19
  4181f8:	a94153f3 	ldp	x19, x20, [sp,#16]
  4181fc:	a8c47bfd 	ldp	x29, x30, [sp],#64
  418200:	d65f03c0 	ret

0000000000418204 <_ZNK3MPI9Intercomm5SplitEii>:
  418204:	a9bc7bfd 	stp	x29, x30, [sp,#-64]!
  418208:	910003fd 	mov	x29, sp
  41820c:	f9000bf3 	str	x19, [sp,#16]
  418210:	aa0803f3 	mov	x19, x8
  418214:	f90017e0 	str	x0, [sp,#40]
  418218:	b90027e1 	str	w1, [sp,#36]
  41821c:	b90023e2 	str	w2, [sp,#32]
  418220:	f94017e0 	ldr	x0, [sp,#40]
  418224:	f9400400 	ldr	x0, [x0,#8]
  418228:	9100e3e1 	add	x1, sp, #0x38
  41822c:	aa0103e3 	mov	x3, x1
  418230:	b94023e2 	ldr	w2, [sp,#32]
  418234:	b94027e1 	ldr	w1, [sp,#36]
  418238:	97ffc422 	bl	4092c0 <MPI_Comm_split@plt>
  41823c:	f9401fe0 	ldr	x0, [sp,#56]
  418240:	aa0003e1 	mov	x1, x0
  418244:	aa1303e0 	mov	x0, x19
  418248:	97fff376 	bl	415020 <_ZN3MPI9IntercommC1EP19ompi_communicator_t>
  41824c:	aa1303e0 	mov	x0, x19
  418250:	f9400bf3 	ldr	x19, [sp,#16]
  418254:	a8c47bfd 	ldp	x29, x30, [sp],#64
  418258:	d65f03c0 	ret

000000000041825c <_ZNK3MPI5Group8Get_sizeEv>:
  41825c:	a9bd7bfd 	stp	x29, x30, [sp,#-48]!
  418260:	910003fd 	mov	x29, sp
  418264:	f9000fe0 	str	x0, [sp,#24]
  418268:	f9400fe0 	ldr	x0, [sp,#24]
  41826c:	f9400400 	ldr	x0, [x0,#8]
  418270:	9100b3e1 	add	x1, sp, #0x2c
  418274:	97ffc20b 	bl	408aa0 <MPI_Group_size@plt>
  418278:	b9402fe0 	ldr	w0, [sp,#44]
  41827c:	a8c37bfd 	ldp	x29, x30, [sp],#48
  418280:	d65f03c0 	ret

0000000000418284 <_ZNK3MPI5Group8Get_rankEv>:
  418284:	a9bd7bfd 	stp	x29, x30, [sp,#-48]!
  418288:	910003fd 	mov	x29, sp
  41828c:	f9000fe0 	str	x0, [sp,#24]
  418290:	f9400fe0 	ldr	x0, [sp,#24]
  418294:	f9400400 	ldr	x0, [x0,#8]
  418298:	9100b3e1 	add	x1, sp, #0x2c
  41829c:	97ffc475 	bl	409470 <MPI_Group_rank@plt>
  4182a0:	b9402fe0 	ldr	w0, [sp,#44]
  4182a4:	a8c37bfd 	ldp	x29, x30, [sp],#48
  4182a8:	d65f03c0 	ret

00000000004182ac <_ZNK3MPI5Group4InclEiPKi>:
  4182ac:	a9bb7bfd 	stp	x29, x30, [sp,#-80]!
  4182b0:	910003fd 	mov	x29, sp
  4182b4:	f9000bf3 	str	x19, [sp,#16]
  4182b8:	aa0803f3 	mov	x19, x8
  4182bc:	f9001fe0 	str	x0, [sp,#56]
  4182c0:	b90037e1 	str	w1, [sp,#52]
  4182c4:	f90017e2 	str	x2, [sp,#40]
  4182c8:	f9401fe0 	ldr	x0, [sp,#56]
  4182cc:	f9400400 	ldr	x0, [x0,#8]
  4182d0:	910123e1 	add	x1, sp, #0x48
  4182d4:	aa0103e3 	mov	x3, x1
  4182d8:	f94017e2 	ldr	x2, [sp,#40]
  4182dc:	b94037e1 	ldr	w1, [sp,#52]
  4182e0:	97ffc298 	bl	408d40 <MPI_Group_incl@plt>
  4182e4:	f94027e0 	ldr	x0, [sp,#72]
  4182e8:	aa0003e1 	mov	x1, x0
  4182ec:	aa1303e0 	mov	x0, x19
  4182f0:	97fff281 	bl	414cf4 <_ZN3MPI5GroupC1EP12ompi_group_t>
  4182f4:	aa1303e0 	mov	x0, x19
  4182f8:	f9400bf3 	ldr	x19, [sp,#16]
  4182fc:	a8c57bfd 	ldp	x29, x30, [sp],#80
  418300:	d65f03c0 	ret

0000000000418304 <_ZNK3MPI5Group4ExclEiPKi>:
  418304:	a9bb7bfd 	stp	x29, x30, [sp,#-80]!
  418308:	910003fd 	mov	x29, sp
  41830c:	f9000bf3 	str	x19, [sp,#16]
  418310:	aa0803f3 	mov	x19, x8
  418314:	f9001fe0 	str	x0, [sp,#56]
  418318:	b90037e1 	str	w1, [sp,#52]
  41831c:	f90017e2 	str	x2, [sp,#40]
  418320:	f9401fe0 	ldr	x0, [sp,#56]
  418324:	f9400400 	ldr	x0, [x0,#8]
  418328:	910123e1 	add	x1, sp, #0x48
  41832c:	aa0103e3 	mov	x3, x1
  418330:	f94017e2 	ldr	x2, [sp,#40]
  418334:	b94037e1 	ldr	w1, [sp,#52]
  418338:	97ffc1aa 	bl	4089e0 <MPI_Group_excl@plt>
  41833c:	f94027e0 	ldr	x0, [sp,#72]
  418340:	aa0003e1 	mov	x1, x0
  418344:	aa1303e0 	mov	x0, x19
  418348:	97fff26b 	bl	414cf4 <_ZN3MPI5GroupC1EP12ompi_group_t>
  41834c:	aa1303e0 	mov	x0, x19
  418350:	f9400bf3 	ldr	x19, [sp,#16]
  418354:	a8c57bfd 	ldp	x29, x30, [sp],#80
  418358:	d65f03c0 	ret

000000000041835c <_ZNK3MPI5Group10Range_inclEiPA3_Ki>:
  41835c:	a9bb7bfd 	stp	x29, x30, [sp,#-80]!
  418360:	910003fd 	mov	x29, sp
  418364:	f9000bf3 	str	x19, [sp,#16]
  418368:	aa0803f3 	mov	x19, x8
  41836c:	f9001fe0 	str	x0, [sp,#56]
  418370:	b90037e1 	str	w1, [sp,#52]
  418374:	f90017e2 	str	x2, [sp,#40]
  418378:	f9401fe0 	ldr	x0, [sp,#56]
  41837c:	f9400400 	ldr	x0, [x0,#8]
  418380:	910123e1 	add	x1, sp, #0x48
  418384:	aa0103e3 	mov	x3, x1
  418388:	f94017e2 	ldr	x2, [sp,#40]
  41838c:	b94037e1 	ldr	w1, [sp,#52]
  418390:	97ffc1b8 	bl	408a70 <MPI_Group_range_incl@plt>
  418394:	f94027e0 	ldr	x0, [sp,#72]
  418398:	aa0003e1 	mov	x1, x0
  41839c:	aa1303e0 	mov	x0, x19
  4183a0:	97fff255 	bl	414cf4 <_ZN3MPI5GroupC1EP12ompi_group_t>
  4183a4:	aa1303e0 	mov	x0, x19
  4183a8:	f9400bf3 	ldr	x19, [sp,#16]
  4183ac:	a8c57bfd 	ldp	x29, x30, [sp],#80
  4183b0:	d65f03c0 	ret

00000000004183b4 <_ZNK3MPI5Group10Range_exclEiPA3_Ki>:
  4183b4:	a9bb7bfd 	stp	x29, x30, [sp,#-80]!
  4183b8:	910003fd 	mov	x29, sp
  4183bc:	f9000bf3 	str	x19, [sp,#16]
  4183c0:	aa0803f3 	mov	x19, x8
  4183c4:	f9001fe0 	str	x0, [sp,#56]
  4183c8:	b90037e1 	str	w1, [sp,#52]
  4183cc:	f90017e2 	str	x2, [sp,#40]
  4183d0:	f9401fe0 	ldr	x0, [sp,#56]
  4183d4:	f9400400 	ldr	x0, [x0,#8]
  4183d8:	910123e1 	add	x1, sp, #0x48
  4183dc:	aa0103e3 	mov	x3, x1
  4183e0:	f94017e2 	ldr	x2, [sp,#40]
  4183e4:	b94037e1 	ldr	w1, [sp,#52]
  4183e8:	97ffc32a 	bl	409090 <MPI_Group_range_excl@plt>
  4183ec:	f94027e0 	ldr	x0, [sp,#72]
  4183f0:	aa0003e1 	mov	x1, x0
  4183f4:	aa1303e0 	mov	x0, x19
  4183f8:	97fff23f 	bl	414cf4 <_ZN3MPI5GroupC1EP12ompi_group_t>
  4183fc:	aa1303e0 	mov	x0, x19
  418400:	f9400bf3 	ldr	x19, [sp,#16]
  418404:	a8c57bfd 	ldp	x29, x30, [sp],#80
  418408:	d65f03c0 	ret

000000000041840c <_ZN3MPI5Group4FreeEv>:
  41840c:	a9be7bfd 	stp	x29, x30, [sp,#-32]!
  418410:	910003fd 	mov	x29, sp
  418414:	f9000fe0 	str	x0, [sp,#24]
  418418:	f9400fe0 	ldr	x0, [sp,#24]
  41841c:	91002000 	add	x0, x0, #0x8
  418420:	97ffc3ec 	bl	4093d0 <MPI_Group_free@plt>
  418424:	d503201f 	nop
  418428:	a8c27bfd 	ldp	x29, x30, [sp],#32
  41842c:	d65f03c0 	ret

0000000000418430 <_ZN3MPI2OpD1Ev>:
  418430:	d10043ff 	sub	sp, sp, #0x10
  418434:	f90007e0 	str	x0, [sp,#8]
  418438:	b0000000 	adrp	x0, 419000 <_IO_stdin_used+0x8>
  41843c:	91266001 	add	x1, x0, #0x998
  418440:	f94007e0 	ldr	x0, [sp,#8]
  418444:	f9000001 	str	x1, [x0]
  418448:	d503201f 	nop
  41844c:	910043ff 	add	sp, sp, #0x10
  418450:	d65f03c0 	ret

0000000000418454 <_ZN3MPI2OpD0Ev>:
  418454:	a9be7bfd 	stp	x29, x30, [sp,#-32]!
  418458:	910003fd 	mov	x29, sp
  41845c:	f9000fe0 	str	x0, [sp,#24]
  418460:	f9400fe0 	ldr	x0, [sp,#24]
  418464:	97fffff3 	bl	418430 <_ZN3MPI2OpD1Ev>
  418468:	d2800201 	mov	x1, #0x10                  	// #16
  41846c:	f9400fe0 	ldr	x0, [sp,#24]
  418470:	97ffc2ac 	bl	408f20 <_ZdlPvm@plt>
  418474:	a8c27bfd 	ldp	x29, x30, [sp],#32
  418478:	d65f03c0 	ret

000000000041847c <_ZNK3MPI2OpcvP9ompi_op_tEv>:
  41847c:	d10043ff 	sub	sp, sp, #0x10
  418480:	f90007e0 	str	x0, [sp,#8]
  418484:	f94007e0 	ldr	x0, [sp,#8]
  418488:	f9400400 	ldr	x0, [x0,#8]
  41848c:	910043ff 	add	sp, sp, #0x10
  418490:	d65f03c0 	ret

0000000000418494 <_ZN3MPI2Op4InitEPFvPKvPviRKNS_8DatatypeEEb>:
  418494:	a9bd7bfd 	stp	x29, x30, [sp,#-48]!
  418498:	910003fd 	mov	x29, sp
  41849c:	f90017e0 	str	x0, [sp,#40]
  4184a0:	f90013e1 	str	x1, [sp,#32]
  4184a4:	39007fe2 	strb	w2, [sp,#31]
  4184a8:	39407fe1 	ldrb	w1, [sp,#31]
  4184ac:	f94017e0 	ldr	x0, [sp,#40]
  4184b0:	91002000 	add	x0, x0, #0x8
  4184b4:	aa0003e2 	mov	x2, x0
  4184b8:	90ffff80 	adrp	x0, 408000 <_init-0x970>
  4184bc:	91270000 	add	x0, x0, #0x9c0
  4184c0:	97ffc174 	bl	408a90 <MPI_Op_create@plt>
  4184c4:	f94017e0 	ldr	x0, [sp,#40]
  4184c8:	f9400400 	ldr	x0, [x0,#8]
  4184cc:	f94013e1 	ldr	x1, [sp,#32]
  4184d0:	97ffc2b0 	bl	408f90 <ompi_op_set_cxx_callback@plt>
  4184d4:	d503201f 	nop
  4184d8:	a8c37bfd 	ldp	x29, x30, [sp],#48
  4184dc:	d65f03c0 	ret

00000000004184e0 <_ZN3MPI2Op4FreeEv>:
  4184e0:	a9be7bfd 	stp	x29, x30, [sp,#-32]!
  4184e4:	910003fd 	mov	x29, sp
  4184e8:	f9000fe0 	str	x0, [sp,#24]
  4184ec:	f9400fe0 	ldr	x0, [sp,#24]
  4184f0:	91002000 	add	x0, x0, #0x8
  4184f4:	97ffc367 	bl	409290 <MPI_Op_free@plt>
  4184f8:	d503201f 	nop
  4184fc:	a8c27bfd 	ldp	x29, x30, [sp],#32
  418500:	d65f03c0 	ret

0000000000418504 <_ZNK3MPI2Op12Reduce_localEPKvPviRKNS_8DatatypeE>:
  418504:	a9bc7bfd 	stp	x29, x30, [sp,#-64]!
  418508:	910003fd 	mov	x29, sp
  41850c:	f9001fe0 	str	x0, [sp,#56]
  418510:	f9001be1 	str	x1, [sp,#48]
  418514:	f90017e2 	str	x2, [sp,#40]
  418518:	b90027e3 	str	w3, [sp,#36]
  41851c:	f9000fe4 	str	x4, [sp,#24]
  418520:	f9400fe0 	ldr	x0, [sp,#24]
  418524:	97fff16f 	bl	414ae0 <_ZNK3MPI8DatatypecvP15ompi_datatype_tEv>
  418528:	aa0003e1 	mov	x1, x0
  41852c:	f9401fe0 	ldr	x0, [sp,#56]
  418530:	f9400400 	ldr	x0, [x0,#8]
  418534:	aa0003e4 	mov	x4, x0
  418538:	aa0103e3 	mov	x3, x1
  41853c:	b94027e2 	ldr	w2, [sp,#36]
  418540:	f94017e1 	ldr	x1, [sp,#40]
  418544:	f9401be0 	ldr	x0, [sp,#48]
  418548:	97ffc2be 	bl	409040 <MPI_Reduce_local@plt>
  41854c:	d503201f 	nop
  418550:	a8c47bfd 	ldp	x29, x30, [sp],#64
  418554:	d65f03c0 	ret

0000000000418558 <_ZNK3MPI2Op14Is_commutativeEv>:
  418558:	a9bd7bfd 	stp	x29, x30, [sp,#-48]!
  41855c:	910003fd 	mov	x29, sp
  418560:	f9000fe0 	str	x0, [sp,#24]
  418564:	f9400fe0 	ldr	x0, [sp,#24]
  418568:	f9400400 	ldr	x0, [x0,#8]
  41856c:	9100b3e1 	add	x1, sp, #0x2c
  418570:	97ffc240 	bl	408e70 <MPI_Op_commutative@plt>
  418574:	b9402fe0 	ldr	w0, [sp,#44]
  418578:	7100001f 	cmp	w0, #0x0
  41857c:	1a9f07e0 	cset	w0, ne
  418580:	12001c00 	and	w0, w0, #0xff
  418584:	a8c37bfd 	ldp	x29, x30, [sp],#48
  418588:	d65f03c0 	ret

000000000041858c <_ZN3MPI10Errhandler4FreeEv>:
  41858c:	a9be7bfd 	stp	x29, x30, [sp,#-32]!
  418590:	910003fd 	mov	x29, sp
  418594:	f9000fe0 	str	x0, [sp,#24]
  418598:	f9400fe0 	ldr	x0, [sp,#24]
  41859c:	91002000 	add	x0, x0, #0x8
  4185a0:	97ffc25c 	bl	408f10 <MPI_Errhandler_free@plt>
  4185a4:	d503201f 	nop
  4185a8:	a8c27bfd 	ldp	x29, x30, [sp],#32
  4185ac:	d65f03c0 	ret

00000000004185b0 <_ZNK3MPI6Status9Get_countERKNS_8DatatypeE>:
  4185b0:	a9bc7bfd 	stp	x29, x30, [sp,#-64]!
  4185b4:	910003fd 	mov	x29, sp
  4185b8:	f9000bf3 	str	x19, [sp,#16]
  4185bc:	f90017e0 	str	x0, [sp,#40]
  4185c0:	f90013e1 	str	x1, [sp,#32]
  4185c4:	f94017e0 	ldr	x0, [sp,#40]
  4185c8:	91002013 	add	x19, x0, #0x8
  4185cc:	f94013e0 	ldr	x0, [sp,#32]
  4185d0:	97fff144 	bl	414ae0 <_ZNK3MPI8DatatypecvP15ompi_datatype_tEv>
  4185d4:	aa0003e1 	mov	x1, x0
  4185d8:	9100f3e0 	add	x0, sp, #0x3c
  4185dc:	aa0003e2 	mov	x2, x0
  4185e0:	aa1303e0 	mov	x0, x19
  4185e4:	97ffc307 	bl	409200 <MPI_Get_count@plt>
  4185e8:	b9403fe0 	ldr	w0, [sp,#60]
  4185ec:	f9400bf3 	ldr	x19, [sp,#16]
  4185f0:	a8c47bfd 	ldp	x29, x30, [sp],#64
  4185f4:	d65f03c0 	ret

00000000004185f8 <_ZNK3MPI6Status12Is_cancelledEv>:
  4185f8:	a9bd7bfd 	stp	x29, x30, [sp,#-48]!
  4185fc:	910003fd 	mov	x29, sp
  418600:	f9000fe0 	str	x0, [sp,#24]
  418604:	f9400fe0 	ldr	x0, [sp,#24]
  418608:	91002000 	add	x0, x0, #0x8
  41860c:	9100b3e1 	add	x1, sp, #0x2c
  418610:	97ffc224 	bl	408ea0 <MPI_Test_cancelled@plt>
  418614:	b9402fe0 	ldr	w0, [sp,#44]
  418618:	7100001f 	cmp	w0, #0x0
  41861c:	1a9f07e0 	cset	w0, ne
  418620:	12001c00 	and	w0, w0, #0xff
  418624:	a8c37bfd 	ldp	x29, x30, [sp],#48
  418628:	d65f03c0 	ret

000000000041862c <_ZNK3MPI6Status12Get_elementsERKNS_8DatatypeE>:
  41862c:	a9bc7bfd 	stp	x29, x30, [sp,#-64]!
  418630:	910003fd 	mov	x29, sp
  418634:	f9000bf3 	str	x19, [sp,#16]
  418638:	f90017e0 	str	x0, [sp,#40]
  41863c:	f90013e1 	str	x1, [sp,#32]
  418640:	f94017e0 	ldr	x0, [sp,#40]
  418644:	91002013 	add	x19, x0, #0x8
  418648:	f94013e0 	ldr	x0, [sp,#32]
  41864c:	97fff125 	bl	414ae0 <_ZNK3MPI8DatatypecvP15ompi_datatype_tEv>
  418650:	aa0003e1 	mov	x1, x0
  418654:	9100f3e0 	add	x0, sp, #0x3c
  418658:	aa0003e2 	mov	x2, x0
  41865c:	aa1303e0 	mov	x0, x19
  418660:	97ffc250 	bl	408fa0 <MPI_Get_elements@plt>
  418664:	b9403fe0 	ldr	w0, [sp,#60]
  418668:	f9400bf3 	ldr	x19, [sp,#16]
  41866c:	a8c47bfd 	ldp	x29, x30, [sp],#64
  418670:	d65f03c0 	ret

0000000000418674 <_ZNK3MPI6Status10Get_sourceEv>:
  418674:	d10083ff 	sub	sp, sp, #0x20
  418678:	f90007e0 	str	x0, [sp,#8]
  41867c:	f94007e0 	ldr	x0, [sp,#8]
  418680:	b9400800 	ldr	w0, [x0,#8]
  418684:	b9001fe0 	str	w0, [sp,#28]
  418688:	b9401fe0 	ldr	w0, [sp,#28]
  41868c:	910083ff 	add	sp, sp, #0x20
  418690:	d65f03c0 	ret

0000000000418694 <_ZN3MPI6Status10Set_sourceEi>:
  418694:	d10043ff 	sub	sp, sp, #0x10
  418698:	f90007e0 	str	x0, [sp,#8]
  41869c:	b90007e1 	str	w1, [sp,#4]
  4186a0:	f94007e0 	ldr	x0, [sp,#8]
  4186a4:	b94007e1 	ldr	w1, [sp,#4]
  4186a8:	b9000801 	str	w1, [x0,#8]
  4186ac:	d503201f 	nop
  4186b0:	910043ff 	add	sp, sp, #0x10
  4186b4:	d65f03c0 	ret

00000000004186b8 <_ZNK3MPI6Status7Get_tagEv>:
  4186b8:	d10083ff 	sub	sp, sp, #0x20
  4186bc:	f90007e0 	str	x0, [sp,#8]
  4186c0:	f94007e0 	ldr	x0, [sp,#8]
  4186c4:	b9400c00 	ldr	w0, [x0,#12]
  4186c8:	b9001fe0 	str	w0, [sp,#28]
  4186cc:	b9401fe0 	ldr	w0, [sp,#28]
  4186d0:	910083ff 	add	sp, sp, #0x20
  4186d4:	d65f03c0 	ret

00000000004186d8 <_ZN3MPI6Status7Set_tagEi>:
  4186d8:	d10043ff 	sub	sp, sp, #0x10
  4186dc:	f90007e0 	str	x0, [sp,#8]
  4186e0:	b90007e1 	str	w1, [sp,#4]
  4186e4:	f94007e0 	ldr	x0, [sp,#8]
  4186e8:	b94007e1 	ldr	w1, [sp,#4]
  4186ec:	b9000c01 	str	w1, [x0,#12]
  4186f0:	d503201f 	nop
  4186f4:	910043ff 	add	sp, sp, #0x10
  4186f8:	d65f03c0 	ret

00000000004186fc <_ZNK3MPI6Status9Get_errorEv>:
  4186fc:	d10083ff 	sub	sp, sp, #0x20
  418700:	f90007e0 	str	x0, [sp,#8]
  418704:	f94007e0 	ldr	x0, [sp,#8]
  418708:	b9401000 	ldr	w0, [x0,#16]
  41870c:	b9001fe0 	str	w0, [sp,#28]
  418710:	b9401fe0 	ldr	w0, [sp,#28]
  418714:	910083ff 	add	sp, sp, #0x20
  418718:	d65f03c0 	ret

000000000041871c <_ZN3MPI6Status9Set_errorEi>:
  41871c:	d10043ff 	sub	sp, sp, #0x10
  418720:	f90007e0 	str	x0, [sp,#8]
  418724:	b90007e1 	str	w1, [sp,#4]
  418728:	f94007e0 	ldr	x0, [sp,#8]
  41872c:	b94007e1 	ldr	w1, [sp,#4]
  418730:	b9001001 	str	w1, [x0,#16]
  418734:	d503201f 	nop
  418738:	910043ff 	add	sp, sp, #0x10
  41873c:	d65f03c0 	ret

0000000000418740 <_ZN3MPI6Status12Set_elementsERKNS_8DatatypeEi>:
  418740:	a9bc7bfd 	stp	x29, x30, [sp,#-64]!
  418744:	910003fd 	mov	x29, sp
  418748:	f9000bf3 	str	x19, [sp,#16]
  41874c:	f9001fe0 	str	x0, [sp,#56]
  418750:	f9001be1 	str	x1, [sp,#48]
  418754:	b9002fe2 	str	w2, [sp,#44]
  418758:	f9401fe0 	ldr	x0, [sp,#56]
  41875c:	91002013 	add	x19, x0, #0x8
  418760:	f9401be0 	ldr	x0, [sp,#48]
  418764:	97fff0df 	bl	414ae0 <_ZNK3MPI8DatatypecvP15ompi_datatype_tEv>
  418768:	b9402fe2 	ldr	w2, [sp,#44]
  41876c:	aa0003e1 	mov	x1, x0
  418770:	aa1303e0 	mov	x0, x19
  418774:	97ffc25b 	bl	4090e0 <MPI_Status_set_elements@plt>
  418778:	d503201f 	nop
  41877c:	f9400bf3 	ldr	x19, [sp,#16]
  418780:	a8c47bfd 	ldp	x29, x30, [sp],#64
  418784:	d65f03c0 	ret

0000000000418788 <_ZN3MPI6Status13Set_cancelledEb>:
  418788:	a9be7bfd 	stp	x29, x30, [sp,#-32]!
  41878c:	910003fd 	mov	x29, sp
  418790:	f9000fe0 	str	x0, [sp,#24]
  418794:	39005fe1 	strb	w1, [sp,#23]
  418798:	f9400fe0 	ldr	x0, [sp,#24]
  41879c:	91002000 	add	x0, x0, #0x8
  4187a0:	39405fe1 	ldrb	w1, [sp,#23]
  4187a4:	97ffc353 	bl	4094f0 <MPI_Status_set_cancelled@plt>
  4187a8:	d503201f 	nop
  4187ac:	a8c27bfd 	ldp	x29, x30, [sp],#32
  4187b0:	d65f03c0 	ret

00000000004187b4 <_ZN3MPI4Info6DeleteEPKc>:
  4187b4:	a9be7bfd 	stp	x29, x30, [sp,#-32]!
  4187b8:	910003fd 	mov	x29, sp
  4187bc:	f9000fe0 	str	x0, [sp,#24]
  4187c0:	f9000be1 	str	x1, [sp,#16]
  4187c4:	f9400fe0 	ldr	x0, [sp,#24]
  4187c8:	f9400400 	ldr	x0, [x0,#8]
  4187cc:	f9400be1 	ldr	x1, [sp,#16]
  4187d0:	97ffc284 	bl	4091e0 <MPI_Info_delete@plt>
  4187d4:	d503201f 	nop
  4187d8:	a8c27bfd 	ldp	x29, x30, [sp],#32
  4187dc:	d65f03c0 	ret

00000000004187e0 <_ZNK3MPI4Info3DupEv>:
  4187e0:	a9bc7bfd 	stp	x29, x30, [sp,#-64]!
  4187e4:	910003fd 	mov	x29, sp
  4187e8:	f9000bf3 	str	x19, [sp,#16]
  4187ec:	aa0803f3 	mov	x19, x8
  4187f0:	f90017e0 	str	x0, [sp,#40]
  4187f4:	f94017e0 	ldr	x0, [sp,#40]
  4187f8:	f9400400 	ldr	x0, [x0,#8]
  4187fc:	9100e3e1 	add	x1, sp, #0x38
  418800:	97ffc08c 	bl	408a30 <MPI_Info_dup@plt>
  418804:	f9401fe0 	ldr	x0, [sp,#56]
  418808:	aa0003e1 	mov	x1, x0
  41880c:	aa1303e0 	mov	x0, x19
  418810:	97fff212 	bl	415058 <_ZN3MPI4InfoC1EP11ompi_info_t>
  418814:	aa1303e0 	mov	x0, x19
  418818:	f9400bf3 	ldr	x19, [sp,#16]
  41881c:	a8c47bfd 	ldp	x29, x30, [sp],#64
  418820:	d65f03c0 	ret

0000000000418824 <_ZN3MPI4Info4FreeEv>:
  418824:	a9be7bfd 	stp	x29, x30, [sp,#-32]!
  418828:	910003fd 	mov	x29, sp
  41882c:	f9000fe0 	str	x0, [sp,#24]
  418830:	f9400fe0 	ldr	x0, [sp,#24]
  418834:	91002000 	add	x0, x0, #0x8
  418838:	97ffc336 	bl	409510 <MPI_Info_free@plt>
  41883c:	d503201f 	nop
  418840:	a8c27bfd 	ldp	x29, x30, [sp],#32
  418844:	d65f03c0 	ret

0000000000418848 <_ZNK3MPI4Info3GetEPKciPc>:
  418848:	a9bc7bfd 	stp	x29, x30, [sp,#-64]!
  41884c:	910003fd 	mov	x29, sp
  418850:	f90017e0 	str	x0, [sp,#40]
  418854:	f90013e1 	str	x1, [sp,#32]
  418858:	b9001fe2 	str	w2, [sp,#28]
  41885c:	f9000be3 	str	x3, [sp,#16]
  418860:	f94017e0 	ldr	x0, [sp,#40]
  418864:	f9400400 	ldr	x0, [x0,#8]
  418868:	9100f3e1 	add	x1, sp, #0x3c
  41886c:	aa0103e4 	mov	x4, x1
  418870:	f9400be3 	ldr	x3, [sp,#16]
  418874:	b9401fe2 	ldr	w2, [sp,#28]
  418878:	f94013e1 	ldr	x1, [sp,#32]
  41887c:	97ffc0f9 	bl	408c60 <MPI_Info_get@plt>
  418880:	b9403fe0 	ldr	w0, [sp,#60]
  418884:	7100001f 	cmp	w0, #0x0
  418888:	1a9f07e0 	cset	w0, ne
  41888c:	12001c00 	and	w0, w0, #0xff
  418890:	a8c47bfd 	ldp	x29, x30, [sp],#64
  418894:	d65f03c0 	ret

0000000000418898 <_ZNK3MPI4Info9Get_nkeysEv>:
  418898:	a9bd7bfd 	stp	x29, x30, [sp,#-48]!
  41889c:	910003fd 	mov	x29, sp
  4188a0:	f9000fe0 	str	x0, [sp,#24]
  4188a4:	f9400fe0 	ldr	x0, [sp,#24]
  4188a8:	f9400400 	ldr	x0, [x0,#8]
  4188ac:	9100b3e1 	add	x1, sp, #0x2c
  4188b0:	97ffc1c8 	bl	408fd0 <MPI_Info_get_nkeys@plt>
  4188b4:	b9402fe0 	ldr	w0, [sp,#44]
  4188b8:	a8c37bfd 	ldp	x29, x30, [sp],#48
  4188bc:	d65f03c0 	ret

00000000004188c0 <_ZNK3MPI4Info10Get_nthkeyEiPc>:
  4188c0:	a9bd7bfd 	stp	x29, x30, [sp,#-48]!
  4188c4:	910003fd 	mov	x29, sp
  4188c8:	f90017e0 	str	x0, [sp,#40]
  4188cc:	b90027e1 	str	w1, [sp,#36]
  4188d0:	f9000fe2 	str	x2, [sp,#24]
  4188d4:	f94017e0 	ldr	x0, [sp,#40]
  4188d8:	f9400400 	ldr	x0, [x0,#8]
  4188dc:	f9400fe2 	ldr	x2, [sp,#24]
  4188e0:	b94027e1 	ldr	w1, [sp,#36]
  4188e4:	97ffc24b 	bl	409210 <MPI_Info_get_nthkey@plt>
  4188e8:	d503201f 	nop
  4188ec:	a8c37bfd 	ldp	x29, x30, [sp],#48
  4188f0:	d65f03c0 	ret

00000000004188f4 <_ZNK3MPI4Info12Get_valuelenEPKcRi>:
  4188f4:	a9bc7bfd 	stp	x29, x30, [sp,#-64]!
  4188f8:	910003fd 	mov	x29, sp
  4188fc:	f90017e0 	str	x0, [sp,#40]
  418900:	f90013e1 	str	x1, [sp,#32]
  418904:	f9000fe2 	str	x2, [sp,#24]
  418908:	f94017e0 	ldr	x0, [sp,#40]
  41890c:	f9400400 	ldr	x0, [x0,#8]
  418910:	9100f3e1 	add	x1, sp, #0x3c
  418914:	aa0103e3 	mov	x3, x1
  418918:	f9400fe2 	ldr	x2, [sp,#24]
  41891c:	f94013e1 	ldr	x1, [sp,#32]
  418920:	97ffc280 	bl	409320 <MPI_Info_get_valuelen@plt>
  418924:	b9403fe0 	ldr	w0, [sp,#60]
  418928:	7100001f 	cmp	w0, #0x0
  41892c:	1a9f07e0 	cset	w0, ne
  418930:	12001c00 	and	w0, w0, #0xff
  418934:	a8c47bfd 	ldp	x29, x30, [sp],#64
  418938:	d65f03c0 	ret

000000000041893c <_ZN3MPI4Info3SetEPKcS2_>:
  41893c:	a9bd7bfd 	stp	x29, x30, [sp,#-48]!
  418940:	910003fd 	mov	x29, sp
  418944:	f90017e0 	str	x0, [sp,#40]
  418948:	f90013e1 	str	x1, [sp,#32]
  41894c:	f9000fe2 	str	x2, [sp,#24]
  418950:	f94017e0 	ldr	x0, [sp,#40]
  418954:	f9400400 	ldr	x0, [x0,#8]
  418958:	f9400fe2 	ldr	x2, [sp,#24]
  41895c:	f94013e1 	ldr	x1, [sp,#32]
  418960:	97ffc07c 	bl	408b50 <MPI_Info_set@plt>
  418964:	d503201f 	nop
  418968:	a8c37bfd 	ldp	x29, x30, [sp],#48
  41896c:	d65f03c0 	ret

0000000000418970 <_ZNK3MPI3Win14Get_errhandlerEv>:
  418970:	a9bc7bfd 	stp	x29, x30, [sp,#-64]!
  418974:	910003fd 	mov	x29, sp
  418978:	f9000bf3 	str	x19, [sp,#16]
  41897c:	aa0803f3 	mov	x19, x8
  418980:	f90017e0 	str	x0, [sp,#40]
  418984:	f94017e0 	ldr	x0, [sp,#40]
  418988:	f9400400 	ldr	x0, [x0,#8]
  41898c:	9100e3e1 	add	x1, sp, #0x38
  418990:	97ffc2c0 	bl	409490 <MPI_Win_get_errhandler@plt>
  418994:	f9401fe0 	ldr	x0, [sp,#56]
  418998:	aa0003e1 	mov	x1, x0
  41899c:	aa1303e0 	mov	x0, x19
  4189a0:	97fff155 	bl	414ef4 <_ZN3MPI10ErrhandlerC1EP17ompi_errhandler_t>
  4189a4:	aa1303e0 	mov	x0, x19
  4189a8:	f9400bf3 	ldr	x19, [sp,#16]
  4189ac:	a8c47bfd 	ldp	x29, x30, [sp],#64
  4189b0:	d65f03c0 	ret

00000000004189b4 <_ZNK3MPI3Win14Set_errhandlerERKNS_10ErrhandlerE>:
  4189b4:	a9bd7bfd 	stp	x29, x30, [sp,#-48]!
  4189b8:	910003fd 	mov	x29, sp
  4189bc:	f9000bf3 	str	x19, [sp,#16]
  4189c0:	f90017e0 	str	x0, [sp,#40]
  4189c4:	f90013e1 	str	x1, [sp,#32]
  4189c8:	f94017e0 	ldr	x0, [sp,#40]
  4189cc:	f9400413 	ldr	x19, [x0,#8]
  4189d0:	f94013e0 	ldr	x0, [sp,#32]
  4189d4:	97fff155 	bl	414f28 <_ZNK3MPI10ErrhandlercvP17ompi_errhandler_tEv>
  4189d8:	aa0003e1 	mov	x1, x0
  4189dc:	aa1303e0 	mov	x0, x19
  4189e0:	97ffc210 	bl	409220 <MPI_Win_set_errhandler@plt>
  4189e4:	d503201f 	nop
  4189e8:	f9400bf3 	ldr	x19, [sp,#16]
  4189ec:	a8c37bfd 	ldp	x29, x30, [sp],#48
  4189f0:	d65f03c0 	ret

00000000004189f4 <_ZNK3MPI3Win10AccumulateEPKviRKNS_8DatatypeEiliS5_RKNS_2OpE>:
  4189f4:	d101c3ff 	sub	sp, sp, #0x70
  4189f8:	a9017bfd 	stp	x29, x30, [sp,#16]
  4189fc:	910043fd 	add	x29, sp, #0x10
  418a00:	a90253f3 	stp	x19, x20, [sp,#32]
  418a04:	f90037e0 	str	x0, [sp,#104]
  418a08:	f90033e1 	str	x1, [sp,#96]
  418a0c:	b9005fe2 	str	w2, [sp,#92]
  418a10:	f9002be3 	str	x3, [sp,#80]
  418a14:	b9005be4 	str	w4, [sp,#88]
  418a18:	f90027e5 	str	x5, [sp,#72]
  418a1c:	b90047e6 	str	w6, [sp,#68]
  418a20:	f9001fe7 	str	x7, [sp,#56]
  418a24:	f9402be0 	ldr	x0, [sp,#80]
  418a28:	97fff02e 	bl	414ae0 <_ZNK3MPI8DatatypecvP15ompi_datatype_tEv>
  418a2c:	aa0003f3 	mov	x19, x0
  418a30:	f9401fe0 	ldr	x0, [sp,#56]
  418a34:	97fff02b 	bl	414ae0 <_ZNK3MPI8DatatypecvP15ompi_datatype_tEv>
  418a38:	aa0003f4 	mov	x20, x0
  418a3c:	f9403be0 	ldr	x0, [sp,#112]
  418a40:	97fffe8f 	bl	41847c <_ZNK3MPI2OpcvP9ompi_op_tEv>
  418a44:	aa0003e1 	mov	x1, x0
  418a48:	f94037e0 	ldr	x0, [sp,#104]
  418a4c:	f9400400 	ldr	x0, [x0,#8]
  418a50:	f90003e0 	str	x0, [sp]
  418a54:	aa0103e7 	mov	x7, x1
  418a58:	aa1403e6 	mov	x6, x20
  418a5c:	b94047e5 	ldr	w5, [sp,#68]
  418a60:	f94027e4 	ldr	x4, [sp,#72]
  418a64:	b9405be3 	ldr	w3, [sp,#88]
  418a68:	aa1303e2 	mov	x2, x19
  418a6c:	b9405fe1 	ldr	w1, [sp,#92]
  418a70:	f94033e0 	ldr	x0, [sp,#96]
  418a74:	97ffc28f 	bl	4094b0 <MPI_Accumulate@plt>
  418a78:	d503201f 	nop
  418a7c:	a94253f3 	ldp	x19, x20, [sp,#32]
  418a80:	a9417bfd 	ldp	x29, x30, [sp,#16]
  418a84:	9101c3ff 	add	sp, sp, #0x70
  418a88:	d65f03c0 	ret

0000000000418a8c <_ZNK3MPI3Win8CompleteEv>:
  418a8c:	a9be7bfd 	stp	x29, x30, [sp,#-32]!
  418a90:	910003fd 	mov	x29, sp
  418a94:	f9000fe0 	str	x0, [sp,#24]
  418a98:	f9400fe0 	ldr	x0, [sp,#24]
  418a9c:	f9400400 	ldr	x0, [x0,#8]
  418aa0:	97ffc240 	bl	4093a0 <MPI_Win_complete@plt>
  418aa4:	d503201f 	nop
  418aa8:	a8c27bfd 	ldp	x29, x30, [sp],#32
  418aac:	d65f03c0 	ret

0000000000418ab0 <_ZNK3MPI3Win5FenceEi>:
  418ab0:	a9be7bfd 	stp	x29, x30, [sp,#-32]!
  418ab4:	910003fd 	mov	x29, sp
  418ab8:	f9000fe0 	str	x0, [sp,#24]
  418abc:	b90017e1 	str	w1, [sp,#20]
  418ac0:	f9400fe0 	ldr	x0, [sp,#24]
  418ac4:	f9400400 	ldr	x0, [x0,#8]
  418ac8:	aa0003e1 	mov	x1, x0
  418acc:	b94017e0 	ldr	w0, [sp,#20]
  418ad0:	97ffc230 	bl	409390 <MPI_Win_fence@plt>
  418ad4:	d503201f 	nop
  418ad8:	a8c27bfd 	ldp	x29, x30, [sp],#32
  418adc:	d65f03c0 	ret

0000000000418ae0 <_ZNK3MPI3Win3GetEPKviRKNS_8DatatypeEiliS5_>:
  418ae0:	a9ba7bfd 	stp	x29, x30, [sp,#-96]!
  418ae4:	910003fd 	mov	x29, sp
  418ae8:	f9000bf3 	str	x19, [sp,#16]
  418aec:	f9002fe0 	str	x0, [sp,#88]
  418af0:	f9002be1 	str	x1, [sp,#80]
  418af4:	b9004fe2 	str	w2, [sp,#76]
  418af8:	f90023e3 	str	x3, [sp,#64]
  418afc:	b9004be4 	str	w4, [sp,#72]
  418b00:	f9001fe5 	str	x5, [sp,#56]
  418b04:	b90037e6 	str	w6, [sp,#52]
  418b08:	f90017e7 	str	x7, [sp,#40]
  418b0c:	f94023e0 	ldr	x0, [sp,#64]
  418b10:	97ffeff4 	bl	414ae0 <_ZNK3MPI8DatatypecvP15ompi_datatype_tEv>
  418b14:	aa0003f3 	mov	x19, x0
  418b18:	f94017e0 	ldr	x0, [sp,#40]
  418b1c:	97ffeff1 	bl	414ae0 <_ZNK3MPI8DatatypecvP15ompi_datatype_tEv>
  418b20:	aa0003e1 	mov	x1, x0
  418b24:	f9402fe0 	ldr	x0, [sp,#88]
  418b28:	f9400400 	ldr	x0, [x0,#8]
  418b2c:	aa0003e7 	mov	x7, x0
  418b30:	aa0103e6 	mov	x6, x1
  418b34:	b94037e5 	ldr	w5, [sp,#52]
  418b38:	f9401fe4 	ldr	x4, [sp,#56]
  418b3c:	b9404be3 	ldr	w3, [sp,#72]
  418b40:	aa1303e2 	mov	x2, x19
  418b44:	b9404fe1 	ldr	w1, [sp,#76]
  418b48:	f9402be0 	ldr	x0, [sp,#80]
  418b4c:	97ffc051 	bl	408c90 <MPI_Get@plt>
  418b50:	d503201f 	nop
  418b54:	f9400bf3 	ldr	x19, [sp,#16]
  418b58:	a8c67bfd 	ldp	x29, x30, [sp],#96
  418b5c:	d65f03c0 	ret

0000000000418b60 <_ZNK3MPI3Win9Get_groupEv>:
  418b60:	a9bc7bfd 	stp	x29, x30, [sp,#-64]!
  418b64:	910003fd 	mov	x29, sp
  418b68:	f9000bf3 	str	x19, [sp,#16]
  418b6c:	aa0803f3 	mov	x19, x8
  418b70:	f90017e0 	str	x0, [sp,#40]
  418b74:	f94017e0 	ldr	x0, [sp,#40]
  418b78:	f9400400 	ldr	x0, [x0,#8]
  418b7c:	9100e3e1 	add	x1, sp, #0x38
  418b80:	97ffc054 	bl	408cd0 <MPI_Win_get_group@plt>
  418b84:	f9401fe0 	ldr	x0, [sp,#56]
  418b88:	aa0003e1 	mov	x1, x0
  418b8c:	aa1303e0 	mov	x0, x19
  418b90:	97fff059 	bl	414cf4 <_ZN3MPI5GroupC1EP12ompi_group_t>
  418b94:	aa1303e0 	mov	x0, x19
  418b98:	f9400bf3 	ldr	x19, [sp,#16]
  418b9c:	a8c47bfd 	ldp	x29, x30, [sp],#64
  418ba0:	d65f03c0 	ret

0000000000418ba4 <_ZNK3MPI3Win4LockEiii>:
  418ba4:	a9bd7bfd 	stp	x29, x30, [sp,#-48]!
  418ba8:	910003fd 	mov	x29, sp
  418bac:	f90017e0 	str	x0, [sp,#40]
  418bb0:	b90027e1 	str	w1, [sp,#36]
  418bb4:	b90023e2 	str	w2, [sp,#32]
  418bb8:	b9001fe3 	str	w3, [sp,#28]
  418bbc:	f94017e0 	ldr	x0, [sp,#40]
  418bc0:	f9400400 	ldr	x0, [x0,#8]
  418bc4:	aa0003e3 	mov	x3, x0
  418bc8:	b9401fe2 	ldr	w2, [sp,#28]
  418bcc:	b94023e1 	ldr	w1, [sp,#32]
  418bd0:	b94027e0 	ldr	w0, [sp,#36]
  418bd4:	97ffc123 	bl	409060 <MPI_Win_lock@plt>
  418bd8:	d503201f 	nop
  418bdc:	a8c37bfd 	ldp	x29, x30, [sp],#48
  418be0:	d65f03c0 	ret

0000000000418be4 <_ZNK3MPI3Win4PostERKNS_5GroupEi>:
  418be4:	a9bd7bfd 	stp	x29, x30, [sp,#-48]!
  418be8:	910003fd 	mov	x29, sp
  418bec:	f90017e0 	str	x0, [sp,#40]
  418bf0:	f90013e1 	str	x1, [sp,#32]
  418bf4:	b9001fe2 	str	w2, [sp,#28]
  418bf8:	f94013e0 	ldr	x0, [sp,#32]
  418bfc:	97fff05e 	bl	414d74 <_ZNK3MPI5GroupcvP12ompi_group_tEv>
  418c00:	aa0003e3 	mov	x3, x0
  418c04:	f94017e0 	ldr	x0, [sp,#40]
  418c08:	f9400400 	ldr	x0, [x0,#8]
  418c0c:	aa0003e2 	mov	x2, x0
  418c10:	b9401fe1 	ldr	w1, [sp,#28]
  418c14:	aa0303e0 	mov	x0, x3
  418c18:	97ffbfd6 	bl	408b70 <MPI_Win_post@plt>
  418c1c:	d503201f 	nop
  418c20:	a8c37bfd 	ldp	x29, x30, [sp],#48
  418c24:	d65f03c0 	ret

0000000000418c28 <_ZNK3MPI3Win3PutEPKviRKNS_8DatatypeEiliS5_>:
  418c28:	a9ba7bfd 	stp	x29, x30, [sp,#-96]!
  418c2c:	910003fd 	mov	x29, sp
  418c30:	f9000bf3 	str	x19, [sp,#16]
  418c34:	f9002fe0 	str	x0, [sp,#88]
  418c38:	f9002be1 	str	x1, [sp,#80]
  418c3c:	b9004fe2 	str	w2, [sp,#76]
  418c40:	f90023e3 	str	x3, [sp,#64]
  418c44:	b9004be4 	str	w4, [sp,#72]
  418c48:	f9001fe5 	str	x5, [sp,#56]
  418c4c:	b90037e6 	str	w6, [sp,#52]
  418c50:	f90017e7 	str	x7, [sp,#40]
  418c54:	f94023e0 	ldr	x0, [sp,#64]
  418c58:	97ffefa2 	bl	414ae0 <_ZNK3MPI8DatatypecvP15ompi_datatype_tEv>
  418c5c:	aa0003f3 	mov	x19, x0
  418c60:	f94017e0 	ldr	x0, [sp,#40]
  418c64:	97ffef9f 	bl	414ae0 <_ZNK3MPI8DatatypecvP15ompi_datatype_tEv>
  418c68:	aa0003e1 	mov	x1, x0
  418c6c:	f9402fe0 	ldr	x0, [sp,#88]
  418c70:	f9400400 	ldr	x0, [x0,#8]
  418c74:	aa0003e7 	mov	x7, x0
  418c78:	aa0103e6 	mov	x6, x1
  418c7c:	b94037e5 	ldr	w5, [sp,#52]
  418c80:	f9401fe4 	ldr	x4, [sp,#56]
  418c84:	b9404be3 	ldr	w3, [sp,#72]
  418c88:	aa1303e2 	mov	x2, x19
  418c8c:	b9404fe1 	ldr	w1, [sp,#76]
  418c90:	f9402be0 	ldr	x0, [sp,#80]
  418c94:	97ffc107 	bl	4090b0 <MPI_Put@plt>
  418c98:	d503201f 	nop
  418c9c:	f9400bf3 	ldr	x19, [sp,#16]
  418ca0:	a8c67bfd 	ldp	x29, x30, [sp],#96
  418ca4:	d65f03c0 	ret

0000000000418ca8 <_ZNK3MPI3Win5StartERKNS_5GroupEi>:
  418ca8:	a9bd7bfd 	stp	x29, x30, [sp,#-48]!
  418cac:	910003fd 	mov	x29, sp
  418cb0:	f90017e0 	str	x0, [sp,#40]
  418cb4:	f90013e1 	str	x1, [sp,#32]
  418cb8:	b9001fe2 	str	w2, [sp,#28]
  418cbc:	f94013e0 	ldr	x0, [sp,#32]
  418cc0:	97fff02d 	bl	414d74 <_ZNK3MPI5GroupcvP12ompi_group_tEv>
  418cc4:	aa0003e3 	mov	x3, x0
  418cc8:	f94017e0 	ldr	x0, [sp,#40]
  418ccc:	f9400400 	ldr	x0, [x0,#8]
  418cd0:	aa0003e2 	mov	x2, x0
  418cd4:	b9401fe1 	ldr	w1, [sp,#28]
  418cd8:	aa0303e0 	mov	x0, x3
  418cdc:	97ffc00d 	bl	408d10 <MPI_Win_start@plt>
  418ce0:	d503201f 	nop
  418ce4:	a8c37bfd 	ldp	x29, x30, [sp],#48
  418ce8:	d65f03c0 	ret

0000000000418cec <_ZNK3MPI3Win4TestEv>:
  418cec:	a9bd7bfd 	stp	x29, x30, [sp,#-48]!
  418cf0:	910003fd 	mov	x29, sp
  418cf4:	f9000fe0 	str	x0, [sp,#24]
  418cf8:	f9400fe0 	ldr	x0, [sp,#24]
  418cfc:	f9400400 	ldr	x0, [x0,#8]
  418d00:	9100b3e1 	add	x1, sp, #0x2c
  418d04:	97ffc18b 	bl	409330 <MPI_Win_test@plt>
  418d08:	b9402fe0 	ldr	w0, [sp,#44]
  418d0c:	7100001f 	cmp	w0, #0x0
  418d10:	1a9f07e0 	cset	w0, ne
  418d14:	12001c00 	and	w0, w0, #0xff
  418d18:	a8c37bfd 	ldp	x29, x30, [sp],#48
  418d1c:	d65f03c0 	ret

0000000000418d20 <_ZNK3MPI3Win6UnlockEi>:
  418d20:	a9be7bfd 	stp	x29, x30, [sp,#-32]!
  418d24:	910003fd 	mov	x29, sp
  418d28:	f9000fe0 	str	x0, [sp,#24]
  418d2c:	b90017e1 	str	w1, [sp,#20]
  418d30:	f9400fe0 	ldr	x0, [sp,#24]
  418d34:	f9400400 	ldr	x0, [x0,#8]
  418d38:	aa0003e1 	mov	x1, x0
  418d3c:	b94017e0 	ldr	w0, [sp,#20]
  418d40:	97ffbf24 	bl	4089d0 <MPI_Win_unlock@plt>
  418d44:	d503201f 	nop
  418d48:	a8c27bfd 	ldp	x29, x30, [sp],#32
  418d4c:	d65f03c0 	ret

0000000000418d50 <_ZNK3MPI3Win4WaitEv>:
  418d50:	a9be7bfd 	stp	x29, x30, [sp,#-32]!
  418d54:	910003fd 	mov	x29, sp
  418d58:	f9000fe0 	str	x0, [sp,#24]
  418d5c:	f9400fe0 	ldr	x0, [sp,#24]
  418d60:	f9400400 	ldr	x0, [x0,#8]
  418d64:	97ffc01b 	bl	408dd0 <MPI_Win_wait@plt>
  418d68:	d503201f 	nop
  418d6c:	a8c27bfd 	ldp	x29, x30, [sp],#32
  418d70:	d65f03c0 	ret

0000000000418d74 <_ZNK3MPI3Win15Call_errhandlerEi>:
  418d74:	a9be7bfd 	stp	x29, x30, [sp,#-32]!
  418d78:	910003fd 	mov	x29, sp
  418d7c:	f9000fe0 	str	x0, [sp,#24]
  418d80:	b90017e1 	str	w1, [sp,#20]
  418d84:	f9400fe0 	ldr	x0, [sp,#24]
  418d88:	f9400400 	ldr	x0, [x0,#8]
  418d8c:	b94017e1 	ldr	w1, [sp,#20]
  418d90:	97ffc174 	bl	409360 <MPI_Win_call_errhandler@plt>
  418d94:	d503201f 	nop
  418d98:	a8c27bfd 	ldp	x29, x30, [sp],#32
  418d9c:	d65f03c0 	ret

0000000000418da0 <_ZN3MPI3Win11Delete_attrEi>:
  418da0:	a9be7bfd 	stp	x29, x30, [sp,#-32]!
  418da4:	910003fd 	mov	x29, sp
  418da8:	f9000fe0 	str	x0, [sp,#24]
  418dac:	b90017e1 	str	w1, [sp,#20]
  418db0:	f9400fe0 	ldr	x0, [sp,#24]
  418db4:	f9400400 	ldr	x0, [x0,#8]
  418db8:	b94017e1 	ldr	w1, [sp,#20]
  418dbc:	97ffc19d 	bl	409430 <MPI_Win_delete_attr@plt>
  418dc0:	d503201f 	nop
  418dc4:	a8c27bfd 	ldp	x29, x30, [sp],#32
  418dc8:	d65f03c0 	ret

0000000000418dcc <_ZNK3MPI3Win8Get_nameEPcRi>:
  418dcc:	a9bd7bfd 	stp	x29, x30, [sp,#-48]!
  418dd0:	910003fd 	mov	x29, sp
  418dd4:	f90017e0 	str	x0, [sp,#40]
  418dd8:	f90013e1 	str	x1, [sp,#32]
  418ddc:	f9000fe2 	str	x2, [sp,#24]
  418de0:	f94017e0 	ldr	x0, [sp,#40]
  418de4:	f9400400 	ldr	x0, [x0,#8]
  418de8:	f9400fe2 	ldr	x2, [sp,#24]
  418dec:	f94013e1 	ldr	x1, [sp,#32]
  418df0:	97ffbf34 	bl	408ac0 <MPI_Win_get_name@plt>
  418df4:	d503201f 	nop
  418df8:	a8c37bfd 	ldp	x29, x30, [sp],#48
  418dfc:	d65f03c0 	ret

0000000000418e00 <_ZN3MPI3Win8Set_attrEiPKv>:
  418e00:	a9bd7bfd 	stp	x29, x30, [sp,#-48]!
  418e04:	910003fd 	mov	x29, sp
  418e08:	f90017e0 	str	x0, [sp,#40]
  418e0c:	b90027e1 	str	w1, [sp,#36]
  418e10:	f9000fe2 	str	x2, [sp,#24]
  418e14:	f94017e0 	ldr	x0, [sp,#40]
  418e18:	f9400400 	ldr	x0, [x0,#8]
  418e1c:	f9400fe2 	ldr	x2, [sp,#24]
  418e20:	b94027e1 	ldr	w1, [sp,#36]
  418e24:	97ffc17f 	bl	409420 <MPI_Win_set_attr@plt>
  418e28:	d503201f 	nop
  418e2c:	a8c37bfd 	ldp	x29, x30, [sp],#48
  418e30:	d65f03c0 	ret

0000000000418e34 <_ZN3MPI3Win8Set_nameEPKc>:
  418e34:	a9be7bfd 	stp	x29, x30, [sp,#-32]!
  418e38:	910003fd 	mov	x29, sp
  418e3c:	f9000fe0 	str	x0, [sp,#24]
  418e40:	f9000be1 	str	x1, [sp,#16]
  418e44:	f9400fe0 	ldr	x0, [sp,#24]
  418e48:	f9400400 	ldr	x0, [x0,#8]
  418e4c:	f9400be1 	ldr	x1, [sp,#16]
  418e50:	97ffc010 	bl	408e90 <MPI_Win_set_name@plt>
  418e54:	d503201f 	nop
  418e58:	a8c27bfd 	ldp	x29, x30, [sp],#32
  418e5c:	d65f03c0 	ret

0000000000418e60 <_ZN3MPI9IntercommD1Ev>:
  418e60:	a9be7bfd 	stp	x29, x30, [sp,#-32]!
  418e64:	910003fd 	mov	x29, sp
  418e68:	f9000fe0 	str	x0, [sp,#24]
  418e6c:	b0000000 	adrp	x0, 419000 <_IO_stdin_used+0x8>
  418e70:	9128c001 	add	x1, x0, #0xa30
  418e74:	f9400fe0 	ldr	x0, [sp,#24]
  418e78:	f9000001 	str	x1, [x0]
  418e7c:	f9400fe0 	ldr	x0, [sp,#24]
  418e80:	97fff030 	bl	414f40 <_ZN3MPI4CommD1Ev>
  418e84:	d503201f 	nop
  418e88:	a8c27bfd 	ldp	x29, x30, [sp],#32
  418e8c:	d65f03c0 	ret

0000000000418e90 <_ZN3MPI9IntercommD0Ev>:
  418e90:	a9be7bfd 	stp	x29, x30, [sp,#-32]!
  418e94:	910003fd 	mov	x29, sp
  418e98:	f9000fe0 	str	x0, [sp,#24]
  418e9c:	f9400fe0 	ldr	x0, [sp,#24]
  418ea0:	97fffff0 	bl	418e60 <_ZN3MPI9IntercommD1Ev>
  418ea4:	d2800201 	mov	x1, #0x10                  	// #16
  418ea8:	f9400fe0 	ldr	x0, [sp,#24]
  418eac:	97ffc01d 	bl	408f20 <_ZdlPvm@plt>
  418eb0:	a8c27bfd 	ldp	x29, x30, [sp],#32
  418eb4:	d65f03c0 	ret

0000000000418eb8 <_ZN3MPI9GraphcommD1Ev>:
  418eb8:	a9be7bfd 	stp	x29, x30, [sp,#-32]!
  418ebc:	910003fd 	mov	x29, sp
  418ec0:	f9000fe0 	str	x0, [sp,#24]
  418ec4:	b0000000 	adrp	x0, 419000 <_IO_stdin_used+0x8>
  418ec8:	9130a001 	add	x1, x0, #0xc28
  418ecc:	f9400fe0 	ldr	x0, [sp,#24]
  418ed0:	f9000001 	str	x1, [x0]
  418ed4:	f9400fe0 	ldr	x0, [sp,#24]
  418ed8:	97fff03c 	bl	414fc8 <_ZN3MPI9IntracommD1Ev>
  418edc:	d503201f 	nop
  418ee0:	a8c27bfd 	ldp	x29, x30, [sp],#32
  418ee4:	d65f03c0 	ret

0000000000418ee8 <_ZN3MPI9GraphcommD0Ev>:
  418ee8:	a9be7bfd 	stp	x29, x30, [sp,#-32]!
  418eec:	910003fd 	mov	x29, sp
  418ef0:	f9000fe0 	str	x0, [sp,#24]
  418ef4:	f9400fe0 	ldr	x0, [sp,#24]
  418ef8:	97fffff0 	bl	418eb8 <_ZN3MPI9GraphcommD1Ev>
  418efc:	d2800201 	mov	x1, #0x10                  	// #16
  418f00:	f9400fe0 	ldr	x0, [sp,#24]
  418f04:	97ffc007 	bl	408f20 <_ZdlPvm@plt>
  418f08:	a8c27bfd 	ldp	x29, x30, [sp],#32
  418f0c:	d65f03c0 	ret

0000000000418f10 <_ZN3MPI8CartcommD1Ev>:
  418f10:	a9be7bfd 	stp	x29, x30, [sp,#-32]!
  418f14:	910003fd 	mov	x29, sp
  418f18:	f9000fe0 	str	x0, [sp,#24]
  418f1c:	b0000000 	adrp	x0, 419000 <_IO_stdin_used+0x8>
  418f20:	913a2001 	add	x1, x0, #0xe88
  418f24:	f9400fe0 	ldr	x0, [sp,#24]
  418f28:	f9000001 	str	x1, [x0]
  418f2c:	f9400fe0 	ldr	x0, [sp,#24]
  418f30:	97fff026 	bl	414fc8 <_ZN3MPI9IntracommD1Ev>
  418f34:	d503201f 	nop
  418f38:	a8c27bfd 	ldp	x29, x30, [sp],#32
  418f3c:	d65f03c0 	ret

0000000000418f40 <_ZN3MPI8CartcommD0Ev>:
  418f40:	a9be7bfd 	stp	x29, x30, [sp,#-32]!
  418f44:	910003fd 	mov	x29, sp
  418f48:	f9000fe0 	str	x0, [sp,#24]
  418f4c:	f9400fe0 	ldr	x0, [sp,#24]
  418f50:	97fffff0 	bl	418f10 <_ZN3MPI8CartcommD1Ev>
  418f54:	d2800201 	mov	x1, #0x10                  	// #16
  418f58:	f9400fe0 	ldr	x0, [sp,#24]
  418f5c:	97ffbff1 	bl	408f20 <_ZdlPvm@plt>
  418f60:	a8c27bfd 	ldp	x29, x30, [sp],#32
  418f64:	d65f03c0 	ret

0000000000418f68 <__libc_csu_init>:
  418f68:	a9bc7bfd 	stp	x29, x30, [sp,#-64]!
  418f6c:	910003fd 	mov	x29, sp
  418f70:	a90153f3 	stp	x19, x20, [sp,#16]
  418f74:	a90363f7 	stp	x23, x24, [sp,#48]
  418f78:	b00000b4 	adrp	x20, 42d000 <__FRAME_END__+0xf804>
  418f7c:	b00000b8 	adrp	x24, 42d000 <__FRAME_END__+0xf804>
  418f80:	9132a318 	add	x24, x24, #0xca8
  418f84:	91330294 	add	x20, x20, #0xcc0
  418f88:	cb180294 	sub	x20, x20, x24
  418f8c:	9343fe94 	asr	x20, x20, #3
  418f90:	a9025bf5 	stp	x21, x22, [sp,#32]
  418f94:	2a0003f7 	mov	w23, w0
  418f98:	aa0103f6 	mov	x22, x1
  418f9c:	aa0203f5 	mov	x21, x2
  418fa0:	d2800013 	mov	x19, #0x0                   	// #0
  418fa4:	97ffbe73 	bl	408970 <_init>
  418fa8:	b4000134 	cbz	x20, 418fcc <__libc_csu_init+0x64>
  418fac:	f8737b03 	ldr	x3, [x24,x19,lsl #3]
  418fb0:	2a1703e0 	mov	w0, w23
  418fb4:	aa1603e1 	mov	x1, x22
  418fb8:	aa1503e2 	mov	x2, x21
  418fbc:	d63f0060 	blr	x3
  418fc0:	91000673 	add	x19, x19, #0x1
  418fc4:	eb14027f 	cmp	x19, x20
  418fc8:	54ffff21 	b.ne	418fac <__libc_csu_init+0x44>
  418fcc:	a94153f3 	ldp	x19, x20, [sp,#16]
  418fd0:	a9425bf5 	ldp	x21, x22, [sp,#32]
  418fd4:	a94363f7 	ldp	x23, x24, [sp,#48]
  418fd8:	a8c47bfd 	ldp	x29, x30, [sp],#64
  418fdc:	d65f03c0 	ret

0000000000418fe0 <__libc_csu_fini>:
  418fe0:	d65f03c0 	ret

Disassembly of section .fini:

0000000000418fe4 <_fini>:
  418fe4:	a9bf7bfd 	stp	x29, x30, [sp,#-16]!
  418fe8:	910003fd 	mov	x29, sp
  418fec:	a8c17bfd 	ldp	x29, x30, [sp],#16
  418ff0:	d65f03c0 	ret
