
stream_mpi.x:     file format elf64-powerpcle


Disassembly of section .init:

00000000100009e0 <00000026.plt_call.__gmon_start__>:
    100009e0:	18 00 41 f8 	std     r2,24(r1)
    100009e4:	80 81 82 e9 	ld      r12,-32384(r2)
    100009e8:	a6 03 89 7d 	mtctr   r12
    100009ec:	20 04 80 4e 	bctr
	...

0000000010000a00 <_init>:
    10000a00:	02 10 40 3c 	lis     r2,4098
    10000a04:	00 7f 42 38 	addi    r2,r2,32512
    10000a08:	a6 02 08 7c 	mflr    r0
    10000a0c:	10 00 01 f8 	std     r0,16(r1)
    10000a10:	a1 ff 21 f8 	stdu    r1,-96(r1)
    10000a14:	00 00 00 60 	nop
    10000a18:	08 80 02 e8 	ld      r0,-32760(r2)
    10000a1c:	00 00 a0 2f 	cmpdi   cr7,r0,0
    10000a20:	0c 00 fe 41 	beq+    cr7,10000a2c <_init+0x2c>
    10000a24:	bd ff ff 4b 	bl      100009e0 <00000026.plt_call.__gmon_start__>
    10000a28:	18 00 41 e8 	ld      r2,24(r1)
    10000a2c:	60 00 21 38 	addi    r1,r1,96
    10000a30:	10 00 01 e8 	ld      r0,16(r1)
    10000a34:	a6 03 08 7c 	mtlr    r0
    10000a38:	20 00 80 4e 	blr

Disassembly of section .text:

0000000010000a40 <00000019.plt_call.fprintf@@GLIBC_2.17>:
    10000a40:	18 00 41 f8 	std     r2,24(r1)
    10000a44:	18 81 82 e9 	ld      r12,-32488(r2)
    10000a48:	a6 03 89 7d 	mtctr   r12
    10000a4c:	20 04 80 4e 	bctr
	...

0000000010000a60 <00000019.plt_call.printf@@GLIBC_2.17>:
    10000a60:	18 00 41 f8 	std     r2,24(r1)
    10000a64:	88 81 82 e9 	ld      r12,-32376(r2)
    10000a68:	a6 03 89 7d 	mtctr   r12
    10000a6c:	20 04 80 4e 	bctr
	...

0000000010000a80 <00000019.plt_call.__cxa_atexit@@GLIBC_2.17>:
    10000a80:	18 00 41 f8 	std     r2,24(r1)
    10000a84:	50 81 82 e9 	ld      r12,-32432(r2)
    10000a88:	a6 03 89 7d 	mtctr   r12
    10000a8c:	20 04 80 4e 	bctr
	...

0000000010000aa0 <00000019.plt_call.MPI_Comm_size>:
    10000aa0:	18 00 41 f8 	std     r2,24(r1)
    10000aa4:	58 81 82 e9 	ld      r12,-32424(r2)
    10000aa8:	a6 03 89 7d 	mtctr   r12
    10000aac:	20 04 80 4e 	bctr
	...

0000000010000ac0 <00000019.plt_call._ZNSt8ios_base4InitC1Ev@@GLIBCXX_3.4>:
    10000ac0:	18 00 41 f8 	std     r2,24(r1)
    10000ac4:	70 81 82 e9 	ld      r12,-32400(r2)
    10000ac8:	a6 03 89 7d 	mtctr   r12
    10000acc:	20 04 80 4e 	bctr
	...

0000000010000ae0 <00000019.plt_call.MPI_Finalize>:
    10000ae0:	18 00 41 f8 	std     r2,24(r1)
    10000ae4:	20 81 82 e9 	ld      r12,-32480(r2)
    10000ae8:	a6 03 89 7d 	mtctr   r12
    10000aec:	20 04 80 4e 	bctr
	...

0000000010000b00 <00000019.plt_call.posix_memalign@@GLIBC_2.17>:
    10000b00:	18 00 41 f8 	std     r2,24(r1)
    10000b04:	40 81 82 e9 	ld      r12,-32448(r2)
    10000b08:	a6 03 89 7d 	mtctr   r12
    10000b0c:	20 04 80 4e 	bctr
	...

0000000010000b20 <00000019.plt_call.puts@@GLIBC_2.17>:
    10000b20:	18 00 41 f8 	std     r2,24(r1)
    10000b24:	10 81 82 e9 	ld      r12,-32496(r2)
    10000b28:	a6 03 89 7d 	mtctr   r12
    10000b2c:	20 04 80 4e 	bctr
	...

0000000010000b40 <00000019.plt_call.MPI_Abort>:
    10000b40:	18 00 41 f8 	std     r2,24(r1)
    10000b44:	48 81 82 e9 	ld      r12,-32440(r2)
    10000b48:	a6 03 89 7d 	mtctr   r12
    10000b4c:	20 04 80 4e 	bctr
	...

0000000010000b60 <00000019.plt_call.atoi@@GLIBC_2.17>:
    10000b60:	18 00 41 f8 	std     r2,24(r1)
    10000b64:	28 81 82 e9 	ld      r12,-32472(r2)
    10000b68:	a6 03 89 7d 	mtctr   r12
    10000b6c:	20 04 80 4e 	bctr
	...

0000000010000b80 <00000019.plt_call.getopt@@GLIBC_2.17>:
    10000b80:	18 00 41 f8 	std     r2,24(r1)
    10000b84:	38 81 82 e9 	ld      r12,-32456(r2)
    10000b88:	a6 03 89 7d 	mtctr   r12
    10000b8c:	20 04 80 4e 	bctr
	...

0000000010000ba0 <00000019.plt_call.MPI_Init>:
    10000ba0:	18 00 41 f8 	std     r2,24(r1)
    10000ba4:	68 81 82 e9 	ld      r12,-32408(r2)
    10000ba8:	a6 03 89 7d 	mtctr   r12
    10000bac:	20 04 80 4e 	bctr
	...

0000000010000bc0 <00000019.plt_call.__libc_start_main@@GLIBC_2.17>:
    10000bc0:	18 00 41 f8 	std     r2,24(r1)
    10000bc4:	30 81 82 e9 	ld      r12,-32464(r2)
    10000bc8:	a6 03 89 7d 	mtctr   r12
    10000bcc:	20 04 80 4e 	bctr
	...

0000000010000be0 <00000019.plt_call.MPI_Comm_rank>:
    10000be0:	18 00 41 f8 	std     r2,24(r1)
    10000be4:	60 81 82 e9 	ld      r12,-32416(r2)
    10000be8:	a6 03 89 7d 	mtctr   r12
    10000bec:	20 04 80 4e 	bctr
	...

0000000010000c00 <00000019.plt_call.exit@@GLIBC_2.17>:
    10000c00:	18 00 41 f8 	std     r2,24(r1)
    10000c04:	78 81 82 e9 	ld      r12,-32392(r2)
    10000c08:	a6 03 89 7d 	mtctr   r12
    10000c0c:	20 04 80 4e 	bctr
	...

0000000010000c20 <_start>:
    10000c20:	02 10 40 3c 	lis     r2,4098
    10000c24:	00 7f 42 38 	addi    r2,r2,32512
    10000c28:	78 0b 29 7c 	mr      r9,r1
    10000c2c:	e4 06 21 78 	rldicr  r1,r1,0,59
    10000c30:	00 00 00 38 	li      r0,0
    10000c34:	81 ff 21 f8 	stdu    r1,-128(r1)
    10000c38:	a6 03 08 7c 	mtlr    r0
    10000c3c:	00 00 01 f8 	std     r0,0(r1)
    10000c40:	10 80 02 e9 	ld      r8,-32752(r2)
    10000c44:	7c ff ff 4b 	b       10000bc0 <00000019.plt_call.__libc_start_main@@GLIBC_2.17>
    10000c48:	00 00 00 60 	nop
	...
    10000c54:	40 20 0c 00 	.long 0xc2040
    10000c58:	2c 00 00 00 	.long 0x2c
    10000c5c:	06 00 5f 73 	andi.   r31,r26,6
    10000c60:	74 61 72 74 	andis.  r18,r3,24948
    10000c64:	00 00 00 60 	nop
    10000c68:	00 00 00 60 	nop
    10000c6c:	00 00 00 60 	nop

0000000010000c70 <deregister_tm_clones>:
    10000c70:	02 10 40 3c 	lis     r2,4098
    10000c74:	00 7f 42 38 	addi    r2,r2,32512
    10000c78:	00 00 00 60 	nop
    10000c7c:	00 00 00 60 	nop
    10000c80:	a8 81 62 38 	addi    r3,r2,-32344
    10000c84:	a8 81 22 39 	addi    r9,r2,-32344
    10000c88:	00 18 29 7c 	cmpd    r9,r3
    10000c8c:	20 00 82 4d 	beqlr   
    10000c90:	00 00 00 60 	nop
    10000c94:	18 80 82 e9 	ld      r12,-32744(r2)
    10000c98:	00 00 2c 2c 	cmpdi   r12,0
    10000c9c:	20 00 82 4d 	beqlr   
    10000ca0:	a6 02 08 7c 	mflr    r0
    10000ca4:	a6 03 89 7d 	mtctr   r12
    10000ca8:	10 00 01 f8 	std     r0,16(r1)
    10000cac:	e1 ff 21 f8 	stdu    r1,-32(r1)
    10000cb0:	18 00 41 f8 	std     r2,24(r1)
    10000cb4:	21 04 80 4e 	bctrl
    10000cb8:	18 00 41 e8 	ld      r2,24(r1)
    10000cbc:	20 00 21 38 	addi    r1,r1,32
    10000cc0:	10 00 01 e8 	ld      r0,16(r1)
    10000cc4:	a6 03 08 7c 	mtlr    r0
    10000cc8:	20 00 80 4e 	blr
    10000ccc:	00 00 00 60 	nop

0000000010000cd0 <register_tm_clones>:
    10000cd0:	02 10 40 3c 	lis     r2,4098
    10000cd4:	00 7f 42 38 	addi    r2,r2,32512
    10000cd8:	00 00 00 60 	nop
    10000cdc:	00 00 00 60 	nop
    10000ce0:	a8 81 62 38 	addi    r3,r2,-32344
    10000ce4:	a8 81 82 38 	addi    r4,r2,-32344
    10000ce8:	50 20 83 7c 	subf    r4,r3,r4
    10000cec:	74 1e 84 7c 	sradi   r4,r4,3
    10000cf0:	74 0e 84 7c 	sradi   r4,r4,1
    10000cf4:	95 01 84 7c 	addze.  r4,r4
    10000cf8:	20 00 82 4d 	beqlr   
    10000cfc:	00 00 00 60 	nop
    10000d00:	20 80 82 e9 	ld      r12,-32736(r2)
    10000d04:	00 00 2c 2c 	cmpdi   r12,0
    10000d08:	20 00 82 4d 	beqlr   
    10000d0c:	a6 02 08 7c 	mflr    r0
    10000d10:	a6 03 89 7d 	mtctr   r12
    10000d14:	10 00 01 f8 	std     r0,16(r1)
    10000d18:	e1 ff 21 f8 	stdu    r1,-32(r1)
    10000d1c:	18 00 41 f8 	std     r2,24(r1)
    10000d20:	21 04 80 4e 	bctrl
    10000d24:	18 00 41 e8 	ld      r2,24(r1)
    10000d28:	20 00 21 38 	addi    r1,r1,32
    10000d2c:	10 00 01 e8 	ld      r0,16(r1)
    10000d30:	a6 03 08 7c 	mtlr    r0
    10000d34:	20 00 80 4e 	blr
    10000d38:	00 00 00 60 	nop
    10000d3c:	00 00 00 60 	nop

0000000010000d40 <__do_global_dtors_aux>:
    10000d40:	02 10 40 3c 	lis     r2,4098
    10000d44:	00 7f 42 38 	addi    r2,r2,32512
    10000d48:	f8 ff e1 fb 	std     r31,-8(r1)
    10000d4c:	00 00 00 60 	nop
    10000d50:	d1 ff 21 f8 	stdu    r1,-48(r1)
    10000d54:	a8 81 22 89 	lbz     r9,-32344(r2)
    10000d58:	00 00 09 2c 	cmpwi   r9,0
    10000d5c:	20 00 82 40 	bne     10000d7c <__do_global_dtors_aux+0x3c>
    10000d60:	a6 02 08 7c 	mflr    r0
    10000d64:	40 00 01 f8 	std     r0,64(r1)
    10000d68:	11 ff ff 4b 	bl      10000c78 <deregister_tm_clones+0x8>
    10000d6c:	40 00 01 e8 	ld      r0,64(r1)
    10000d70:	01 00 20 39 	li      r9,1
    10000d74:	a8 81 22 99 	stb     r9,-32344(r2)
    10000d78:	a6 03 08 7c 	mtlr    r0
    10000d7c:	30 00 21 38 	addi    r1,r1,48
    10000d80:	f8 ff e1 eb 	ld      r31,-8(r1)
    10000d84:	20 00 80 4e 	blr
    10000d88:	00 00 00 60 	nop
    10000d8c:	00 00 00 60 	nop

0000000010000d90 <frame_dummy>:
    10000d90:	02 10 40 3c 	lis     r2,4098
    10000d94:	00 7f 42 38 	addi    r2,r2,32512
    10000d98:	40 ff ff 4b 	b       10000cd8 <register_tm_clones+0x8>

0000000010000d9c <nop_>:
    10000d9c:	f8 ff e1 fb 	std     r31,-8(r1)
    10000da0:	d1 ff 21 f8 	stdu    r1,-48(r1)
    10000da4:	78 0b 3f 7c 	mr      r31,r1
    10000da8:	00 00 24 28 	cmpldi  r4,0
    10000dac:	08 00 82 40 	bne     10000db4 <start_pause>
    10000db0:	18 00 00 48 	b       10000dc8 <end>

0000000010000db4 <start_pause>:
    10000db4:	00 00 44 39 	addi    r10,r4,0

0000000010000db8 <start_loop>:
    10000db8:	00 00 00 60 	nop
    10000dbc:	ff ff 4a 31 	addic   r10,r10,-1
    10000dc0:	00 00 2a 28 	cmpldi  r10,0
    10000dc4:	f4 ff 82 40 	bne     10000db8 <start_loop>

0000000010000dc8 <end>:
    10000dc8:	00 00 00 60 	nop
    10000dcc:	30 00 3f 38 	addi    r1,r31,48
    10000dd0:	f8 ff e1 eb 	ld      r31,-8(r1)
    10000dd4:	20 00 80 4e 	blr
    10000dd8:	00 00 00 00 	.long 0x0
    10000ddc:	00 09 00 00 	.long 0x900
    10000de0:	80 01 00 01 	.long 0x1000180

0000000010000de4 <_Z11print_usagePPcS_>:
    10000de4:	02 10 40 3c 	lis     r2,4098
    10000de8:	00 7f 42 38 	addi    r2,r2,32512
    10000dec:	a6 02 08 7c 	mflr    r0
    10000df0:	10 00 01 f8 	std     r0,16(r1)
    10000df4:	f8 ff e1 fb 	std     r31,-8(r1)
    10000df8:	81 ff 21 f8 	stdu    r1,-128(r1)
    10000dfc:	78 0b 3f 7c 	mr      r31,r1
    10000e00:	60 00 7f f8 	std     r3,96(r31)
    10000e04:	68 00 9f f8 	std     r4,104(r31)
    10000e08:	00 00 00 60 	nop
    10000e0c:	28 80 22 e9 	ld      r9,-32728(r2)
    10000e10:	00 00 49 e9 	ld      r10,0(r9)
    10000e14:	60 00 3f e9 	ld      r9,96(r31)
    10000e18:	00 00 29 e9 	ld      r9,0(r9)
    10000e1c:	68 00 df e8 	ld      r6,104(r31)
    10000e20:	78 4b 25 7d 	mr      r5,r9
    10000e24:	fe ff 82 3c 	addis   r4,r2,-2
    10000e28:	d8 9b 84 38 	addi    r4,r4,-25640
    10000e2c:	78 53 43 7d 	mr      r3,r10
    10000e30:	11 fc ff 4b 	bl      10000a40 <00000019.plt_call.fprintf@@GLIBC_2.17>
    10000e34:	18 00 41 e8 	ld      r2,24(r1)
    10000e38:	00 00 00 60 	nop
    10000e3c:	80 00 3f 38 	addi    r1,r31,128
    10000e40:	10 00 01 e8 	ld      r0,16(r1)
    10000e44:	a6 03 08 7c 	mtlr    r0
    10000e48:	f8 ff e1 eb 	ld      r31,-8(r1)
    10000e4c:	20 00 80 4e 	blr
    10000e50:	00 00 00 00 	.long 0x0
    10000e54:	00 09 00 01 	.long 0x1000900
    10000e58:	80 01 00 01 	.long 0x1000180

0000000010000e5c <_Z15STREAM_copy_100PdS_PlPKi>:
    10000e5c:	f0 ff c1 fb 	std     r30,-16(r1)
    10000e60:	f8 ff e1 fb 	std     r31,-8(r1)
    10000e64:	b1 ff 21 f8 	stdu    r1,-80(r1)
    10000e68:	78 0b 3f 7c 	mr      r31,r1
    10000e6c:	20 00 7f f8 	std     r3,32(r31)
    10000e70:	28 00 9f f8 	std     r4,40(r31)
    10000e74:	30 00 bf f8 	std     r5,48(r31)
    10000e78:	38 00 df f8 	std     r6,56(r31)
    10000e7c:	00 00 c0 3b 	li      r30,0
    10000e80:	30 00 3f e9 	ld      r9,48(r31)
    10000e84:	00 00 49 e9 	ld      r10,0(r9)
    10000e88:	38 00 3f e9 	ld      r9,56(r31)
    10000e8c:	02 00 09 e9 	lwa     r8,0(r9)
    10000e90:	20 00 3f e9 	ld      r9,32(r31)
    10000e94:	28 00 ff e8 	ld      r7,40(r31)
    10000e98:	50 08 21 7c 	subf    r1,r1,r1
    10000e9c:	00 00 88 38 	addi    r4,r8,0
    10000ea0:	81 00 09 e8 	ldu     r0,128(r9)
    10000ea4:	81 00 09 e8 	ldu     r0,128(r9)
    10000ea8:	81 00 09 e8 	ldu     r0,128(r9)
    10000eac:	81 00 09 e8 	ldu     r0,128(r9)
    10000eb0:	81 00 09 e8 	ldu     r0,128(r9)
    10000eb4:	81 00 09 e8 	ldu     r0,128(r9)
    10000eb8:	81 00 09 e8 	ldu     r0,128(r9)
    10000ebc:	81 00 09 e8 	ldu     r0,128(r9)
    10000ec0:	81 00 09 e8 	ldu     r0,128(r9)
    10000ec4:	81 00 09 e8 	ldu     r0,128(r9)
    10000ec8:	81 00 09 e8 	ldu     r0,128(r9)
    10000ecc:	81 00 09 e8 	ldu     r0,128(r9)
    10000ed0:	81 00 09 e8 	ldu     r0,128(r9)
    10000ed4:	81 00 09 e8 	ldu     r0,128(r9)
    10000ed8:	81 00 09 e8 	ldu     r0,128(r9)
    10000edc:	81 00 09 e8 	ldu     r0,128(r9)
    10000ee0:	81 00 09 e8 	ldu     r0,128(r9)
    10000ee4:	81 00 09 e8 	ldu     r0,128(r9)
    10000ee8:	81 00 09 e8 	ldu     r0,128(r9)
    10000eec:	81 00 09 e8 	ldu     r0,128(r9)
    10000ef0:	81 00 09 e8 	ldu     r0,128(r9)
    10000ef4:	81 00 09 e8 	ldu     r0,128(r9)
    10000ef8:	81 00 09 e8 	ldu     r0,128(r9)
    10000efc:	81 00 09 e8 	ldu     r0,128(r9)
    10000f00:	81 00 09 e8 	ldu     r0,128(r9)
    10000f04:	81 00 09 e8 	ldu     r0,128(r9)
    10000f08:	81 00 09 e8 	ldu     r0,128(r9)
    10000f0c:	81 00 09 e8 	ldu     r0,128(r9)
    10000f10:	81 00 09 e8 	ldu     r0,128(r9)
    10000f14:	81 00 09 e8 	ldu     r0,128(r9)
    10000f18:	81 00 09 e8 	ldu     r0,128(r9)
    10000f1c:	81 00 09 e8 	ldu     r0,128(r9)
    10000f20:	81 00 09 e8 	ldu     r0,128(r9)
    10000f24:	81 00 09 e8 	ldu     r0,128(r9)
    10000f28:	81 00 09 e8 	ldu     r0,128(r9)
    10000f2c:	81 00 09 e8 	ldu     r0,128(r9)
    10000f30:	81 00 09 e8 	ldu     r0,128(r9)
    10000f34:	81 00 09 e8 	ldu     r0,128(r9)
    10000f38:	81 00 09 e8 	ldu     r0,128(r9)
    10000f3c:	81 00 09 e8 	ldu     r0,128(r9)
    10000f40:	81 00 09 e8 	ldu     r0,128(r9)
    10000f44:	81 00 09 e8 	ldu     r0,128(r9)
    10000f48:	81 00 09 e8 	ldu     r0,128(r9)
    10000f4c:	81 00 09 e8 	ldu     r0,128(r9)
    10000f50:	81 00 09 e8 	ldu     r0,128(r9)
    10000f54:	81 00 09 e8 	ldu     r0,128(r9)
    10000f58:	81 00 09 e8 	ldu     r0,128(r9)
    10000f5c:	81 00 09 e8 	ldu     r0,128(r9)
    10000f60:	40 06 21 38 	addi    r1,r1,1600
    10000f64:	00 50 21 7c 	cmpd    r1,r10
    10000f68:	38 ff 80 41 	blt     10000ea0 <_Z15STREAM_copy_100PdS_PlPKi+0x44>
    10000f6c:	00 00 00 60 	nop
    10000f70:	50 00 3f 38 	addi    r1,r31,80
    10000f74:	f0 ff c1 eb 	ld      r30,-16(r1)
    10000f78:	f8 ff e1 eb 	ld      r31,-8(r1)
    10000f7c:	20 00 80 4e 	blr
    10000f80:	00 00 00 00 	.long 0x0
    10000f84:	00 09 00 00 	.long 0x900
    10000f88:	80 02 00 01 	.long 0x1000280

0000000010000f8c <_Z41__static_initialization_and_destruction_0ii>:
    10000f8c:	02 10 40 3c 	lis     r2,4098
    10000f90:	00 7f 42 38 	addi    r2,r2,32512
    10000f94:	a6 02 08 7c 	mflr    r0
    10000f98:	10 00 01 f8 	std     r0,16(r1)
    10000f9c:	f8 ff e1 fb 	std     r31,-8(r1)
    10000fa0:	c1 ff 21 f8 	stdu    r1,-64(r1)
    10000fa4:	78 0b 3f 7c 	mr      r31,r1
    10000fa8:	78 1b 69 7c 	mr      r9,r3
    10000fac:	78 23 8a 7c 	mr      r10,r4
    10000fb0:	20 00 3f 91 	stw     r9,32(r31)
    10000fb4:	78 53 49 7d 	mr      r9,r10
    10000fb8:	24 00 3f 91 	stw     r9,36(r31)
    10000fbc:	20 00 3f 81 	lwz     r9,32(r31)
    10000fc0:	01 00 09 2c 	cmpwi   r9,1
    10000fc4:	48 00 82 40 	bne     1000100c <_Z41__static_initialization_and_destruction_0ii+0x80>
    10000fc8:	24 00 5f 81 	lwz     r10,36(r31)
    10000fcc:	00 00 20 39 	li      r9,0
    10000fd0:	ff ff 29 61 	ori     r9,r9,65535
    10000fd4:	00 48 0a 7c 	cmpw    r10,r9
    10000fd8:	34 00 82 40 	bne     1000100c <_Z41__static_initialization_and_destruction_0ii+0x80>
    10000fdc:	00 00 00 60 	nop
    10000fe0:	a9 81 62 38 	addi    r3,r2,-32343
    10000fe4:	dd fa ff 4b 	bl      10000ac0 <00000019.plt_call._ZNSt8ios_base4InitC1Ev@@GLIBCXX_3.4>
    10000fe8:	18 00 41 e8 	ld      r2,24(r1)
    10000fec:	00 00 00 60 	nop
    10000ff0:	98 81 a2 38 	addi    r5,r2,-32360
    10000ff4:	00 00 00 60 	nop
    10000ff8:	a9 81 82 38 	addi    r4,r2,-32343
    10000ffc:	00 00 00 60 	nop
    10001000:	30 80 62 e8 	ld      r3,-32720(r2)
    10001004:	7d fa ff 4b 	bl      10000a80 <00000019.plt_call.__cxa_atexit@@GLIBC_2.17>
    10001008:	18 00 41 e8 	ld      r2,24(r1)
    1000100c:	00 00 00 60 	nop
    10001010:	40 00 3f 38 	addi    r1,r31,64
    10001014:	10 00 01 e8 	ld      r0,16(r1)
    10001018:	a6 03 08 7c 	mtlr    r0
    1000101c:	f8 ff e1 eb 	ld      r31,-8(r1)
    10001020:	20 00 80 4e 	blr
    10001024:	00 00 00 00 	.long 0x0
    10001028:	00 09 00 01 	.long 0x1000900
    1000102c:	80 01 00 01 	.long 0x1000180

0000000010001030 <_GLOBAL__sub_I__Z11print_usagePPcS_>:
    10001030:	02 10 40 3c 	lis     r2,4098
    10001034:	00 7f 42 38 	addi    r2,r2,32512
    10001038:	a6 02 08 7c 	mflr    r0
    1000103c:	10 00 01 f8 	std     r0,16(r1)
    10001040:	f8 ff e1 fb 	std     r31,-8(r1)
    10001044:	d1 ff 21 f8 	stdu    r1,-48(r1)
    10001048:	78 0b 3f 7c 	mr      r31,r1
    1000104c:	ff ff 80 38 	li      r4,-1
    10001050:	20 04 84 78 	clrldi  r4,r4,48
    10001054:	01 00 60 38 	li      r3,1
    10001058:	3d ff ff 4b 	bl      10000f94 <_Z41__static_initialization_and_destruction_0ii+0x8>
    1000105c:	30 00 3f 38 	addi    r1,r31,48
    10001060:	10 00 01 e8 	ld      r0,16(r1)
    10001064:	a6 03 08 7c 	mtlr    r0
    10001068:	f8 ff e1 eb 	ld      r31,-8(r1)
    1000106c:	20 00 80 4e 	blr
    10001070:	00 00 00 00 	.long 0x0
    10001074:	00 09 00 01 	.long 0x1000900
    10001078:	80 01 00 01 	.long 0x1000180

000000001000107c <main>:
    1000107c:	02 10 40 3c 	lis     r2,4098
    10001080:	00 7f 42 38 	addi    r2,r2,32512
    10001084:	a6 02 08 7c 	mflr    r0
    10001088:	10 00 01 f8 	std     r0,16(r1)
    1000108c:	f0 ff c1 fb 	std     r30,-16(r1)
    10001090:	f8 ff e1 fb 	std     r31,-8(r1)
    10001094:	51 ff 21 f8 	stdu    r1,-176(r1)
    10001098:	78 0b 3f 7c 	mr      r31,r1
    1000109c:	18 00 41 f8 	std     r2,24(r1)
    100010a0:	78 1b 69 7c 	mr      r9,r3
    100010a4:	98 00 9f f8 	std     r4,152(r31)
    100010a8:	90 00 3f 91 	stw     r9,144(r31)
    100010ac:	32 00 20 39 	li      r9,50
    100010b0:	60 00 3f 91 	stw     r9,96(r31)
    100010b4:	00 00 20 39 	li      r9,0
    100010b8:	88 00 3f 91 	stw     r9,136(r31)
    100010bc:	00 00 80 38 	li      r4,0
    100010c0:	00 00 60 38 	li      r3,0
    100010c4:	dd fa ff 4b 	bl      10000ba0 <00000019.plt_call.MPI_Init>
    100010c8:	18 00 41 e8 	ld      r2,24(r1)
    100010cc:	78 1b 69 7c 	mr      r9,r3
    100010d0:	70 00 3f 91 	stw     r9,112(r31)
    100010d4:	70 00 3f 81 	lwz     r9,112(r31)
    100010d8:	00 00 09 2c 	cmpwi   r9,0
    100010dc:	28 00 82 41 	beq     10001104 <main+0x88>
    100010e0:	72 00 3f e9 	lwa     r9,112(r31)
    100010e4:	78 4b 24 7d 	mr      r4,r9
    100010e8:	fe ff 62 3c 	addis   r3,r2,-2
    100010ec:	08 9c 63 38 	addi    r3,r3,-25592
    100010f0:	71 f9 ff 4b 	bl      10000a60 <00000019.plt_call.printf@@GLIBC_2.17>
    100010f4:	18 00 41 e8 	ld      r2,24(r1)
    100010f8:	01 00 60 38 	li      r3,1
    100010fc:	05 fb ff 4b 	bl      10000c00 <00000019.plt_call.exit@@GLIBC_2.17>
    10001100:	18 00 41 e8 	ld      r2,24(r1)
    10001104:	80 00 3f 39 	addi    r9,r31,128
    10001108:	78 4b 24 7d 	mr      r4,r9
    1000110c:	00 00 00 60 	nop
    10001110:	38 80 62 e8 	ld      r3,-32712(r2)
    10001114:	8d f9 ff 4b 	bl      10000aa0 <00000019.plt_call.MPI_Comm_size>
    10001118:	18 00 41 e8 	ld      r2,24(r1)
    1000111c:	84 00 3f 39 	addi    r9,r31,132
    10001120:	78 4b 24 7d 	mr      r4,r9
    10001124:	38 80 62 e8 	ld      r3,-32712(r2)
    10001128:	b9 fa ff 4b 	bl      10000be0 <00000019.plt_call.MPI_Comm_rank>
    1000112c:	18 00 41 e8 	ld      r2,24(r1)
    10001130:	92 00 3f e9 	lwa     r9,144(r31)
    10001134:	fe ff a2 3c 	addis   r5,r2,-2
    10001138:	40 9c a5 38 	addi    r5,r5,-25536
    1000113c:	98 00 9f e8 	ld      r4,152(r31)
    10001140:	78 4b 23 7d 	mr      r3,r9
    10001144:	3d fa ff 4b 	bl      10000b80 <00000019.plt_call.getopt@@GLIBC_2.17>
    10001148:	18 00 41 e8 	ld      r2,24(r1)
    1000114c:	78 1b 69 7c 	mr      r9,r3
    10001150:	74 00 3f 91 	stw     r9,116(r31)
    10001154:	74 00 1f 81 	lwz     r8,116(r31)
    10001158:	00 00 20 39 	li      r9,0
    1000115c:	01 00 40 39 	li      r10,1
    10001160:	ff ff 08 2c 	cmpwi   r8,-1
    10001164:	9e 48 2a 7d 	iseleq  r9,r10,r9
    10001168:	01 00 29 69 	xori    r9,r9,1
    1000116c:	3e 06 29 55 	clrlwi  r9,r9,24
    10001170:	00 00 29 2c 	cmpdi   r9,0
    10001174:	4c 01 82 41 	beq     100012c0 <main+0x244>
    10001178:	74 00 3f 81 	lwz     r9,116(r31)
    1000117c:	70 00 09 2c 	cmpwi   r9,112
    10001180:	98 00 82 41 	beq     10001218 <main+0x19c>
    10001184:	74 00 3f 81 	lwz     r9,116(r31)
    10001188:	72 00 09 2c 	cmpwi   r9,114
    1000118c:	e8 00 82 40 	bne     10001274 <main+0x1f8>
    10001190:	00 00 00 60 	nop
    10001194:	40 80 22 e9 	ld      r9,-32704(r2)
    10001198:	00 00 29 e9 	ld      r9,0(r9)
    1000119c:	78 4b 23 7d 	mr      r3,r9
    100011a0:	c1 f9 ff 4b 	bl      10000b60 <00000019.plt_call.atoi@@GLIBC_2.17>
    100011a4:	18 00 41 e8 	ld      r2,24(r1)
    100011a8:	78 1b 69 7c 	mr      r9,r3
    100011ac:	60 00 3f 91 	stw     r9,96(r31)
    100011b0:	60 00 3f 81 	lwz     r9,96(r31)
    100011b4:	00 00 09 2c 	cmpwi   r9,0
    100011b8:	30 00 80 41 	blt     100011e8 <main+0x16c>
    100011bc:	60 00 3f 81 	lwz     r9,96(r31)
    100011c0:	64 00 09 2c 	cmpwi   r9,100
    100011c4:	24 00 81 41 	bgt     100011e8 <main+0x16c>
    100011c8:	60 00 3f 81 	lwz     r9,96(r31)
    100011cc:	70 0e 2a 7d 	srawi   r10,r9,1
    100011d0:	94 01 4a 7d 	addze   r10,r10
    100011d4:	3c 08 4a 55 	rlwinm  r10,r10,1,0,30
    100011d8:	50 48 2a 7d 	subf    r9,r10,r9
    100011dc:	b4 07 29 7d 	extsw   r9,r9
    100011e0:	01 00 09 2c 	cmpwi   r9,1
    100011e4:	cc 00 82 40 	bne     100012b0 <main+0x234>
    100011e8:	86 00 3f e9 	lwa     r9,132(r31)
    100011ec:	00 00 29 2c 	cmpdi   r9,0
    100011f0:	14 00 82 40 	bne     10001204 <main+0x188>
    100011f4:	fe ff 62 3c 	addis   r3,r2,-2
    100011f8:	48 9c 63 38 	addi    r3,r3,-25528
    100011fc:	25 f9 ff 4b 	bl      10000b20 <00000019.plt_call.puts@@GLIBC_2.17>
    10001200:	18 00 41 e8 	ld      r2,24(r1)
    10001204:	dd f8 ff 4b 	bl      10000ae0 <00000019.plt_call.MPI_Finalize>
    10001208:	18 00 41 e8 	ld      r2,24(r1)
    1000120c:	ff ff 60 38 	li      r3,-1
    10001210:	f1 f9 ff 4b 	bl      10000c00 <00000019.plt_call.exit@@GLIBC_2.17>
    10001214:	18 00 41 e8 	ld      r2,24(r1)
    10001218:	00 00 00 60 	nop
    1000121c:	40 80 22 e9 	ld      r9,-32704(r2)
    10001220:	00 00 29 e9 	ld      r9,0(r9)
    10001224:	78 4b 23 7d 	mr      r3,r9
    10001228:	39 f9 ff 4b 	bl      10000b60 <00000019.plt_call.atoi@@GLIBC_2.17>
    1000122c:	18 00 41 e8 	ld      r2,24(r1)
    10001230:	78 1b 69 7c 	mr      r9,r3
    10001234:	88 00 3f 91 	stw     r9,136(r31)
    10001238:	8a 00 3f e9 	lwa     r9,136(r31)
    1000123c:	00 00 09 2c 	cmpwi   r9,0
    10001240:	78 00 80 40 	bge     100012b8 <main+0x23c>
    10001244:	86 00 3f e9 	lwa     r9,132(r31)
    10001248:	00 00 29 2c 	cmpdi   r9,0
    1000124c:	14 00 82 40 	bne     10001260 <main+0x1e4>
    10001250:	fe ff 62 3c 	addis   r3,r2,-2
    10001254:	88 9c 63 38 	addi    r3,r3,-25464
    10001258:	c9 f8 ff 4b 	bl      10000b20 <00000019.plt_call.puts@@GLIBC_2.17>
    1000125c:	18 00 41 e8 	ld      r2,24(r1)
    10001260:	81 f8 ff 4b 	bl      10000ae0 <00000019.plt_call.MPI_Finalize>
    10001264:	18 00 41 e8 	ld      r2,24(r1)
    10001268:	ff ff 60 38 	li      r3,-1
    1000126c:	95 f9 ff 4b 	bl      10000c00 <00000019.plt_call.exit@@GLIBC_2.17>
    10001270:	18 00 41 e8 	ld      r2,24(r1)
    10001274:	86 00 3f e9 	lwa     r9,132(r31)
    10001278:	00 00 29 2c 	cmpdi   r9,0
    1000127c:	20 00 82 40 	bne     1000129c <main+0x220>
    10001280:	00 00 00 60 	nop
    10001284:	a0 81 22 39 	addi    r9,r2,-32352
    10001288:	00 00 29 e9 	ld      r9,0(r9)
    1000128c:	78 4b 24 7d 	mr      r4,r9
    10001290:	98 00 7f e8 	ld      r3,152(r31)
    10001294:	59 fb ff 4b 	bl      10000dec <_Z11print_usagePPcS_+0x8>
    10001298:	00 00 00 60 	nop
    1000129c:	45 f8 ff 4b 	bl      10000ae0 <00000019.plt_call.MPI_Finalize>
    100012a0:	18 00 41 e8 	ld      r2,24(r1)
    100012a4:	ff ff 60 38 	li      r3,-1
    100012a8:	59 f9 ff 4b 	bl      10000c00 <00000019.plt_call.exit@@GLIBC_2.17>
    100012ac:	18 00 41 e8 	ld      r2,24(r1)
    100012b0:	00 00 00 60 	nop
    100012b4:	7c fe ff 4b 	b       10001130 <main+0xb4>
    100012b8:	00 00 00 60 	nop
    100012bc:	74 fe ff 4b 	b       10001130 <main+0xb4>
    100012c0:	00 00 00 60 	nop
    100012c4:	48 80 22 e9 	ld      r9,-32696(r2)
    100012c8:	02 00 29 e9 	lwa     r9,0(r9)
    100012cc:	90 00 5f 81 	lwz     r10,144(r31)
    100012d0:	00 48 0a 7c 	cmpw    r10,r9
    100012d4:	10 00 81 41 	bgt     100012e4 <main+0x268>
    100012d8:	90 00 3f 81 	lwz     r9,144(r31)
    100012dc:	05 00 09 2c 	cmpwi   r9,5
    100012e0:	40 00 82 41 	beq     10001320 <main+0x2a4>
    100012e4:	86 00 3f e9 	lwa     r9,132(r31)
    100012e8:	00 00 29 2c 	cmpdi   r9,0
    100012ec:	20 00 82 40 	bne     1000130c <main+0x290>
    100012f0:	00 00 00 60 	nop
    100012f4:	a0 81 22 39 	addi    r9,r2,-32352
    100012f8:	00 00 29 e9 	ld      r9,0(r9)
    100012fc:	78 4b 24 7d 	mr      r4,r9
    10001300:	98 00 7f e8 	ld      r3,152(r31)
    10001304:	e9 fa ff 4b 	bl      10000dec <_Z11print_usagePPcS_+0x8>
    10001308:	00 00 00 60 	nop
    1000130c:	d5 f7 ff 4b 	bl      10000ae0 <00000019.plt_call.MPI_Finalize>
    10001310:	18 00 41 e8 	ld      r2,24(r1)
    10001314:	ff ff 60 38 	li      r3,-1
    10001318:	e9 f8 ff 4b 	bl      10000c00 <00000019.plt_call.exit@@GLIBC_2.17>
    1000131c:	18 00 41 e8 	ld      r2,24(r1)
    10001320:	60 00 3f 81 	lwz     r9,96(r31)
    10001324:	64 00 09 2c 	cmpwi   r9,100
    10001328:	1c 00 82 40 	bne     10001344 <main+0x2c8>
    1000132c:	00 00 00 60 	nop
    10001330:	d8 81 22 39 	addi    r9,r2,-32296
    10001334:	fe ff 42 3d 	addis   r10,r2,-2
    10001338:	5c 8f 4a 39 	addi    r10,r10,-28836
    1000133c:	00 00 49 f9 	std     r10,0(r9)
    10001340:	08 00 00 48 	b       10001348 <main+0x2cc>
    10001344:	00 00 00 60 	nop
    10001348:	82 00 5f e9 	lwa     r10,128(r31)
    1000134c:	89 09 20 3d 	lis     r9,2441
    10001350:	00 68 29 61 	ori     r9,r9,26624
    10001354:	d6 53 29 7d 	divw    r9,r9,r10
    10001358:	b4 07 29 7d 	extsw   r9,r9
    1000135c:	78 4b 2a 7d 	mr      r10,r9
    10001360:	00 00 00 60 	nop
    10001364:	c0 81 22 39 	addi    r9,r2,-32320
    10001368:	00 00 49 f9 	std     r10,0(r9)
    1000136c:	00 00 00 60 	nop
    10001370:	d0 81 22 39 	addi    r9,r2,-32304
    10001374:	40 00 40 39 	li      r10,64
    10001378:	00 00 49 f9 	std     r10,0(r9)
    1000137c:	00 00 00 60 	nop
    10001380:	c0 81 22 39 	addi    r9,r2,-32320
    10001384:	00 00 29 e9 	ld      r9,0(r9)
    10001388:	24 1f 29 79 	rldicr  r9,r9,3,60
    1000138c:	78 4b 2a 7d 	mr      r10,r9
    10001390:	00 00 00 60 	nop
    10001394:	c8 81 22 39 	addi    r9,r2,-32312
    10001398:	00 00 49 f9 	std     r10,0(r9)
    1000139c:	00 00 00 60 	nop
    100013a0:	d0 81 22 39 	addi    r9,r2,-32304
    100013a4:	00 00 29 e9 	ld      r9,0(r9)
    100013a8:	78 4b 2a 7d 	mr      r10,r9
    100013ac:	00 00 00 60 	nop
    100013b0:	c8 81 22 39 	addi    r9,r2,-32312
    100013b4:	00 00 29 e9 	ld      r9,0(r9)
    100013b8:	78 4b 25 7d 	mr      r5,r9
    100013bc:	78 53 44 7d 	mr      r4,r10
    100013c0:	00 00 00 60 	nop
    100013c4:	b0 81 62 38 	addi    r3,r2,-32336
    100013c8:	39 f7 ff 4b 	bl      10000b00 <00000019.plt_call.posix_memalign@@GLIBC_2.17>
    100013cc:	18 00 41 e8 	ld      r2,24(r1)
    100013d0:	78 1b 69 7c 	mr      r9,r3
    100013d4:	78 00 3f 91 	stw     r9,120(r31)
    100013d8:	78 00 3f 81 	lwz     r9,120(r31)
    100013dc:	00 00 09 2c 	cmpwi   r9,0
    100013e0:	44 00 82 41 	beq     10001424 <main+0x3a8>
    100013e4:	86 00 3f e9 	lwa     r9,132(r31)
    100013e8:	7a 00 5f e9 	lwa     r10,120(r31)
    100013ec:	78 53 45 7d 	mr      r5,r10
    100013f0:	78 4b 24 7d 	mr      r4,r9
    100013f4:	fe ff 62 3c 	addis   r3,r2,-2
    100013f8:	b8 9c 63 38 	addi    r3,r3,-25416
    100013fc:	65 f6 ff 4b 	bl      10000a60 <00000019.plt_call.printf@@GLIBC_2.17>
    10001400:	18 00 41 e8 	ld      r2,24(r1)
    10001404:	02 00 80 38 	li      r4,2
    10001408:	00 00 00 60 	nop
    1000140c:	38 80 62 e8 	ld      r3,-32712(r2)
    10001410:	31 f7 ff 4b 	bl      10000b40 <00000019.plt_call.MPI_Abort>
    10001414:	18 00 41 e8 	ld      r2,24(r1)
    10001418:	01 00 60 38 	li      r3,1
    1000141c:	e5 f7 ff 4b 	bl      10000c00 <00000019.plt_call.exit@@GLIBC_2.17>
    10001420:	18 00 41 e8 	ld      r2,24(r1)
    10001424:	00 00 00 60 	nop
    10001428:	d0 81 22 39 	addi    r9,r2,-32304
    1000142c:	00 00 29 e9 	ld      r9,0(r9)
    10001430:	78 4b 2a 7d 	mr      r10,r9
    10001434:	00 00 00 60 	nop
    10001438:	c8 81 22 39 	addi    r9,r2,-32312
    1000143c:	00 00 29 e9 	ld      r9,0(r9)
    10001440:	78 4b 25 7d 	mr      r5,r9
    10001444:	78 53 44 7d 	mr      r4,r10
    10001448:	00 00 00 60 	nop
    1000144c:	b8 81 62 38 	addi    r3,r2,-32328
    10001450:	b1 f6 ff 4b 	bl      10000b00 <00000019.plt_call.posix_memalign@@GLIBC_2.17>
    10001454:	18 00 41 e8 	ld      r2,24(r1)
    10001458:	78 1b 69 7c 	mr      r9,r3
    1000145c:	78 00 3f 91 	stw     r9,120(r31)
    10001460:	78 00 3f 81 	lwz     r9,120(r31)
    10001464:	00 00 09 2c 	cmpwi   r9,0
    10001468:	44 00 82 41 	beq     100014ac <main+0x430>
    1000146c:	86 00 3f e9 	lwa     r9,132(r31)
    10001470:	7a 00 5f e9 	lwa     r10,120(r31)
    10001474:	78 53 45 7d 	mr      r5,r10
    10001478:	78 4b 24 7d 	mr      r4,r9
    1000147c:	fe ff 62 3c 	addis   r3,r2,-2
    10001480:	f8 9c 63 38 	addi    r3,r3,-25352
    10001484:	dd f5 ff 4b 	bl      10000a60 <00000019.plt_call.printf@@GLIBC_2.17>
    10001488:	18 00 41 e8 	ld      r2,24(r1)
    1000148c:	02 00 80 38 	li      r4,2
    10001490:	00 00 00 60 	nop
    10001494:	38 80 62 e8 	ld      r3,-32712(r2)
    10001498:	a9 f6 ff 4b 	bl      10000b40 <00000019.plt_call.MPI_Abort>
    1000149c:	18 00 41 e8 	ld      r2,24(r1)
    100014a0:	01 00 60 38 	li      r3,1
    100014a4:	5d f7 ff 4b 	bl      10000c00 <00000019.plt_call.exit@@GLIBC_2.17>
    100014a8:	18 00 41 e8 	ld      r2,24(r1)
    100014ac:	86 00 3f e9 	lwa     r9,132(r31)
    100014b0:	00 00 29 2c 	cmpdi   r9,0
    100014b4:	74 03 82 40 	bne     10001828 <main+0x7ac>
    100014b8:	fe ff 62 3c 	addis   r3,r2,-2
    100014bc:	38 9d 63 38 	addi    r3,r3,-25288
    100014c0:	61 f6 ff 4b 	bl      10000b20 <00000019.plt_call.puts@@GLIBC_2.17>
    100014c4:	18 00 41 e8 	ld      r2,24(r1)
    100014c8:	fe ff 62 3c 	addis   r3,r2,-2
    100014cc:	78 9d 63 38 	addi    r3,r3,-25224
    100014d0:	51 f6 ff 4b 	bl      10000b20 <00000019.plt_call.puts@@GLIBC_2.17>
    100014d4:	18 00 41 e8 	ld      r2,24(r1)
    100014d8:	fe ff 62 3c 	addis   r3,r2,-2
    100014dc:	38 9d 63 38 	addi    r3,r3,-25288
    100014e0:	41 f6 ff 4b 	bl      10000b20 <00000019.plt_call.puts@@GLIBC_2.17>
    100014e4:	18 00 41 e8 	ld      r2,24(r1)
    100014e8:	08 00 20 39 	li      r9,8
    100014ec:	7c 00 3f 91 	stw     r9,124(r31)
    100014f0:	7e 00 3f e9 	lwa     r9,124(r31)
    100014f4:	78 4b 24 7d 	mr      r4,r9
    100014f8:	fe ff 62 3c 	addis   r3,r2,-2
    100014fc:	a0 9d 63 38 	addi    r3,r3,-25184
    10001500:	61 f5 ff 4b 	bl      10000a60 <00000019.plt_call.printf@@GLIBC_2.17>
    10001504:	18 00 41 e8 	ld      r2,24(r1)
    10001508:	fe ff 62 3c 	addis   r3,r2,-2
    1000150c:	38 9d 63 38 	addi    r3,r3,-25288
    10001510:	11 f6 ff 4b 	bl      10000b20 <00000019.plt_call.puts@@GLIBC_2.17>
    10001514:	18 00 41 e8 	ld      r2,24(r1)
    10001518:	89 09 20 3d 	lis     r9,2441
    1000151c:	00 68 24 61 	ori     r4,r9,26624
    10001520:	fe ff 62 3c 	addis   r3,r2,-2
    10001524:	d0 9d 63 38 	addi    r3,r3,-25136
    10001528:	39 f5 ff 4b 	bl      10000a60 <00000019.plt_call.printf@@GLIBC_2.17>
    1000152c:	18 00 41 e8 	ld      r2,24(r1)
    10001530:	7c 00 3f 39 	addi    r9,r31,124
    10001534:	ae 4e 00 7c 	lfiwax  f0,0,r9
    10001538:	9c 06 80 fd 	fcfid   f12,f0
    1000153c:	fe ff 22 3d 	addis   r9,r2,-2
    10001540:	88 9f 29 39 	addi    r9,r9,-24696
    10001544:	00 00 09 c8 	lfd     f0,0(r9)
    10001548:	32 00 6c fd 	fmul    f11,f12,f0
    1000154c:	7c 00 3f 39 	addi    r9,r31,124
    10001550:	ae 4e 00 7c 	lfiwax  f0,0,r9
    10001554:	9c 06 80 fd 	fcfid   f12,f0
    10001558:	fe ff 22 3d 	addis   r9,r2,-2
    1000155c:	90 9f 29 39 	addi    r9,r9,-24688
    10001560:	00 00 09 c8 	lfd     f0,0(r9)
    10001564:	32 00 0c fc 	fmul    f0,f12,f0
    10001568:	66 00 09 7c 	mfvsrd  r9,vs0
    1000156c:	78 4b 2a 7d 	mr      r10,r9
    10001570:	66 01 89 7d 	mtvsrd  vs12,r9
    10001574:	66 00 69 7d 	mfvsrd  r9,vs11
    10001578:	78 4b 27 7d 	mr      r7,r9
    1000157c:	78 4b 28 7d 	mr      r8,r9
    10001580:	78 3b e9 7c 	mr      r9,r7
    10001584:	66 01 08 7c 	mtvsrd  vs0,r8
    10001588:	78 53 45 7d 	mr      r5,r10
    1000158c:	90 60 40 fc 	fmr     f2,f12
    10001590:	78 4b 24 7d 	mr      r4,r9
    10001594:	90 00 20 fc 	fmr     f1,f0
    10001598:	fe ff 62 3c 	addis   r3,r2,-2
    1000159c:	00 9e 63 38 	addi    r3,r3,-25088
    100015a0:	c1 f4 ff 4b 	bl      10000a60 <00000019.plt_call.printf@@GLIBC_2.17>
    100015a4:	18 00 41 e8 	ld      r2,24(r1)
    100015a8:	7c 00 3f 39 	addi    r9,r31,124
    100015ac:	ae 4e 00 7c 	lfiwax  f0,0,r9
    100015b0:	9c 06 00 fc 	fcfid   f0,f0
    100015b4:	2a 00 80 fd 	fadd    f12,f0,f0
    100015b8:	fe ff 22 3d 	addis   r9,r2,-2
    100015bc:	88 9f 29 39 	addi    r9,r9,-24696
    100015c0:	00 00 09 c8 	lfd     f0,0(r9)
    100015c4:	32 00 6c fd 	fmul    f11,f12,f0
    100015c8:	7c 00 3f 39 	addi    r9,r31,124
    100015cc:	ae 4e 00 7c 	lfiwax  f0,0,r9
    100015d0:	9c 06 00 fc 	fcfid   f0,f0
    100015d4:	2a 00 80 fd 	fadd    f12,f0,f0
    100015d8:	fe ff 22 3d 	addis   r9,r2,-2
    100015dc:	90 9f 29 39 	addi    r9,r9,-24688
    100015e0:	00 00 09 c8 	lfd     f0,0(r9)
    100015e4:	32 00 0c fc 	fmul    f0,f12,f0
    100015e8:	66 00 09 7c 	mfvsrd  r9,vs0
    100015ec:	78 4b 2a 7d 	mr      r10,r9
    100015f0:	66 01 89 7d 	mtvsrd  vs12,r9
    100015f4:	66 00 69 7d 	mfvsrd  r9,vs11
    100015f8:	78 4b 27 7d 	mr      r7,r9
    100015fc:	78 4b 28 7d 	mr      r8,r9
    10001600:	78 3b e9 7c 	mr      r9,r7
    10001604:	66 01 08 7c 	mtvsrd  vs0,r8
    10001608:	78 53 45 7d 	mr      r5,r10
    1000160c:	90 60 40 fc 	fmr     f2,f12
    10001610:	78 4b 24 7d 	mr      r4,r9
    10001614:	90 00 20 fc 	fmr     f1,f0
    10001618:	fe ff 62 3c 	addis   r3,r2,-2
    1000161c:	40 9e 63 38 	addi    r3,r3,-25024
    10001620:	41 f4 ff 4b 	bl      10000a60 <00000019.plt_call.printf@@GLIBC_2.17>
    10001624:	18 00 41 e8 	ld      r2,24(r1)
    10001628:	82 00 3f e9 	lwa     r9,128(r31)
    1000162c:	78 4b 24 7d 	mr      r4,r9
    10001630:	fe ff 62 3c 	addis   r3,r2,-2
    10001634:	80 9e 63 38 	addi    r3,r3,-24960
    10001638:	29 f4 ff 4b 	bl      10000a60 <00000019.plt_call.printf@@GLIBC_2.17>
    1000163c:	18 00 41 e8 	ld      r2,24(r1)
    10001640:	00 00 00 60 	nop
    10001644:	c0 81 22 39 	addi    r9,r2,-32320
    10001648:	00 00 29 e9 	ld      r9,0(r9)
    1000164c:	78 4b 24 7d 	mr      r4,r9
    10001650:	fe ff 62 3c 	addis   r3,r2,-2
    10001654:	b0 9e 63 38 	addi    r3,r3,-24912
    10001658:	09 f4 ff 4b 	bl      10000a60 <00000019.plt_call.printf@@GLIBC_2.17>
    1000165c:	18 00 41 e8 	ld      r2,24(r1)
    10001660:	7c 00 3f 39 	addi    r9,r31,124
    10001664:	ae 4e 00 7c 	lfiwax  f0,0,r9
    10001668:	9c 06 80 fd 	fcfid   f12,f0
    1000166c:	00 00 00 60 	nop
    10001670:	c0 81 22 39 	addi    r9,r2,-32320
    10001674:	02 00 09 e4 	lxsd    v0,0(r9)
    10001678:	e2 05 60 f1 	xscvsxddp vs11,vs32
    1000167c:	fe ff 22 3d 	addis   r9,r2,-2
    10001680:	98 9f 29 39 	addi    r9,r9,-24680
    10001684:	00 00 09 c8 	lfd     f0,0(r9)
    10001688:	24 00 6b fd 	fdiv    f11,f11,f0
    1000168c:	fe ff 22 3d 	addis   r9,r2,-2
    10001690:	98 9f 29 39 	addi    r9,r9,-24680
    10001694:	00 00 09 c8 	lfd     f0,0(r9)
    10001698:	24 00 0b fc 	fdiv    f0,f11,f0
    1000169c:	32 00 4c fd 	fmul    f10,f12,f0
    100016a0:	7c 00 3f 39 	addi    r9,r31,124
    100016a4:	ae 4e 00 7c 	lfiwax  f0,0,r9
    100016a8:	9c 06 80 fd 	fcfid   f12,f0
    100016ac:	00 00 00 60 	nop
    100016b0:	c0 81 22 39 	addi    r9,r2,-32320
    100016b4:	02 00 09 e4 	lxsd    v0,0(r9)
    100016b8:	e2 05 60 f1 	xscvsxddp vs11,vs32
    100016bc:	fe ff 22 3d 	addis   r9,r2,-2
    100016c0:	98 9f 29 39 	addi    r9,r9,-24680
    100016c4:	00 00 09 c8 	lfd     f0,0(r9)
    100016c8:	24 00 6b fd 	fdiv    f11,f11,f0
    100016cc:	fe ff 22 3d 	addis   r9,r2,-2
    100016d0:	98 9f 29 39 	addi    r9,r9,-24680
    100016d4:	00 00 09 c8 	lfd     f0,0(r9)
    100016d8:	24 00 6b fd 	fdiv    f11,f11,f0
    100016dc:	fe ff 22 3d 	addis   r9,r2,-2
    100016e0:	98 9f 29 39 	addi    r9,r9,-24680
    100016e4:	00 00 09 c8 	lfd     f0,0(r9)
    100016e8:	24 00 0b fc 	fdiv    f0,f11,f0
    100016ec:	32 00 0c fc 	fmul    f0,f12,f0
    100016f0:	66 00 09 7c 	mfvsrd  r9,vs0
    100016f4:	78 4b 2a 7d 	mr      r10,r9
    100016f8:	66 01 89 7d 	mtvsrd  vs12,r9
    100016fc:	66 00 49 7d 	mfvsrd  r9,vs10
    10001700:	78 4b 27 7d 	mr      r7,r9
    10001704:	78 4b 28 7d 	mr      r8,r9
    10001708:	78 3b e9 7c 	mr      r9,r7
    1000170c:	66 01 08 7c 	mtvsrd  vs0,r8
    10001710:	78 53 45 7d 	mr      r5,r10
    10001714:	90 60 40 fc 	fmr     f2,f12
    10001718:	78 4b 24 7d 	mr      r4,r9
    1000171c:	90 00 20 fc 	fmr     f1,f0
    10001720:	fe ff 62 3c 	addis   r3,r2,-2
    10001724:	e0 9e 63 38 	addi    r3,r3,-24864
    10001728:	39 f3 ff 4b 	bl      10000a60 <00000019.plt_call.printf@@GLIBC_2.17>
    1000172c:	18 00 41 e8 	ld      r2,24(r1)
    10001730:	7c 00 3f 39 	addi    r9,r31,124
    10001734:	ae 4e 00 7c 	lfiwax  f0,0,r9
    10001738:	9c 06 00 fc 	fcfid   f0,f0
    1000173c:	2a 00 80 fd 	fadd    f12,f0,f0
    10001740:	00 00 00 60 	nop
    10001744:	c0 81 22 39 	addi    r9,r2,-32320
    10001748:	02 00 09 e4 	lxsd    v0,0(r9)
    1000174c:	e2 05 60 f1 	xscvsxddp vs11,vs32
    10001750:	fe ff 22 3d 	addis   r9,r2,-2
    10001754:	98 9f 29 39 	addi    r9,r9,-24680
    10001758:	00 00 09 c8 	lfd     f0,0(r9)
    1000175c:	24 00 6b fd 	fdiv    f11,f11,f0
    10001760:	fe ff 22 3d 	addis   r9,r2,-2
    10001764:	98 9f 29 39 	addi    r9,r9,-24680
    10001768:	00 00 09 c8 	lfd     f0,0(r9)
    1000176c:	24 00 0b fc 	fdiv    f0,f11,f0
    10001770:	32 00 4c fd 	fmul    f10,f12,f0
    10001774:	7c 00 3f 39 	addi    r9,r31,124
    10001778:	ae 4e 00 7c 	lfiwax  f0,0,r9
    1000177c:	9c 06 00 fc 	fcfid   f0,f0
    10001780:	2a 00 80 fd 	fadd    f12,f0,f0
    10001784:	00 00 00 60 	nop
    10001788:	c0 81 22 39 	addi    r9,r2,-32320
    1000178c:	02 00 09 e4 	lxsd    v0,0(r9)
    10001790:	e2 05 60 f1 	xscvsxddp vs11,vs32
    10001794:	fe ff 22 3d 	addis   r9,r2,-2
    10001798:	98 9f 29 39 	addi    r9,r9,-24680
    1000179c:	00 00 09 c8 	lfd     f0,0(r9)
    100017a0:	24 00 6b fd 	fdiv    f11,f11,f0
    100017a4:	fe ff 22 3d 	addis   r9,r2,-2
    100017a8:	98 9f 29 39 	addi    r9,r9,-24680
    100017ac:	00 00 09 c8 	lfd     f0,0(r9)
    100017b0:	24 00 6b fd 	fdiv    f11,f11,f0
    100017b4:	fe ff 22 3d 	addis   r9,r2,-2
    100017b8:	98 9f 29 39 	addi    r9,r9,-24680
    100017bc:	00 00 09 c8 	lfd     f0,0(r9)
    100017c0:	24 00 0b fc 	fdiv    f0,f11,f0
    100017c4:	32 00 0c fc 	fmul    f0,f12,f0
    100017c8:	66 00 09 7c 	mfvsrd  r9,vs0
    100017cc:	78 4b 2a 7d 	mr      r10,r9
    100017d0:	66 01 89 7d 	mtvsrd  vs12,r9
    100017d4:	66 00 49 7d 	mfvsrd  r9,vs10
    100017d8:	78 4b 27 7d 	mr      r7,r9
    100017dc:	78 4b 28 7d 	mr      r8,r9
    100017e0:	78 3b e9 7c 	mr      r9,r7
    100017e4:	66 01 08 7c 	mtvsrd  vs0,r8
    100017e8:	78 53 45 7d 	mr      r5,r10
    100017ec:	90 60 40 fc 	fmr     f2,f12
    100017f0:	78 4b 24 7d 	mr      r4,r9
    100017f4:	90 00 20 fc 	fmr     f1,f0
    100017f8:	fe ff 62 3c 	addis   r3,r2,-2
    100017fc:	20 9f 63 38 	addi    r3,r3,-24800
    10001800:	61 f2 ff 4b 	bl      10000a60 <00000019.plt_call.printf@@GLIBC_2.17>
    10001804:	18 00 41 e8 	ld      r2,24(r1)
    10001808:	fe ff 62 3c 	addis   r3,r2,-2
    1000180c:	38 9d 63 38 	addi    r3,r3,-25288
    10001810:	11 f3 ff 4b 	bl      10000b20 <00000019.plt_call.puts@@GLIBC_2.17>
    10001814:	18 00 41 e8 	ld      r2,24(r1)
    10001818:	fe ff 62 3c 	addis   r3,r2,-2
    1000181c:	58 9f 63 38 	addi    r3,r3,-24744
    10001820:	01 f3 ff 4b 	bl      10000b20 <00000019.plt_call.puts@@GLIBC_2.17>
    10001824:	18 00 41 e8 	ld      r2,24(r1)
    10001828:	00 00 20 39 	li      r9,0
    1000182c:	68 00 3f f9 	std     r9,104(r31)
    10001830:	00 00 00 60 	nop
    10001834:	c0 81 22 39 	addi    r9,r2,-32320
    10001838:	00 00 29 e9 	ld      r9,0(r9)
    1000183c:	68 00 5f e9 	ld      r10,104(r31)
    10001840:	00 48 2a 7c 	cmpd    r10,r9
    10001844:	64 00 80 40 	bge     100018a8 <main+0x82c>
    10001848:	00 00 00 60 	nop
    1000184c:	b0 81 22 39 	addi    r9,r2,-32336
    10001850:	00 00 49 e9 	ld      r10,0(r9)
    10001854:	68 00 3f e9 	ld      r9,104(r31)
    10001858:	24 1f 29 79 	rldicr  r9,r9,3,60
    1000185c:	14 4a 2a 7d 	add     r9,r10,r9
    10001860:	fe ff 42 3d 	addis   r10,r2,-2
    10001864:	a0 9f 4a 39 	addi    r10,r10,-24672
    10001868:	00 00 0a c8 	lfd     f0,0(r10)
    1000186c:	00 00 09 d8 	stfd    f0,0(r9)
    10001870:	00 00 00 60 	nop
    10001874:	b8 81 22 39 	addi    r9,r2,-32328
    10001878:	00 00 49 e9 	ld      r10,0(r9)
    1000187c:	68 00 3f e9 	ld      r9,104(r31)
    10001880:	24 1f 29 79 	rldicr  r9,r9,3,60
    10001884:	14 4a 2a 7d 	add     r9,r10,r9
    10001888:	fe ff 42 3d 	addis   r10,r2,-2
    1000188c:	a8 9f 4a 39 	addi    r10,r10,-24664
    10001890:	00 00 0a c8 	lfd     f0,0(r10)
    10001894:	00 00 09 d8 	stfd    f0,0(r9)
    10001898:	68 00 3f e9 	ld      r9,104(r31)
    1000189c:	01 00 29 39 	addi    r9,r9,1
    100018a0:	68 00 3f f9 	std     r9,104(r31)
    100018a4:	8c ff ff 4b 	b       10001830 <main+0x7b4>
    100018a8:	00 00 00 60 	nop
    100018ac:	d8 81 22 39 	addi    r9,r2,-32296
    100018b0:	00 00 49 e9 	ld      r10,0(r9)
    100018b4:	00 00 00 60 	nop
    100018b8:	b0 81 22 39 	addi    r9,r2,-32336
    100018bc:	00 00 09 e9 	ld      r8,0(r9)
    100018c0:	00 00 00 60 	nop
    100018c4:	b8 81 22 39 	addi    r9,r2,-32328
    100018c8:	00 00 29 e9 	ld      r9,0(r9)
    100018cc:	88 00 ff 38 	addi    r7,r31,136
    100018d0:	78 3b e6 7c 	mr      r6,r7
    100018d4:	00 00 00 60 	nop
    100018d8:	c0 81 a2 38 	addi    r5,r2,-32320
    100018dc:	78 4b 24 7d 	mr      r4,r9
    100018e0:	78 43 03 7d 	mr      r3,r8
    100018e4:	78 53 4c 7d 	mr      r12,r10
    100018e8:	a6 03 89 7d 	mtctr   r12
    100018ec:	21 04 80 4e 	bctrl
    100018f0:	18 00 41 e8 	ld      r2,24(r1)
    100018f4:	b4 ff ff 4b 	b       100018a8 <main+0x82c>
    100018f8:	00 00 00 00 	.long 0x0
    100018fc:	00 09 00 01 	.long 0x1000900
    10001900:	80 02 00 01 	.long 0x1000280
    10001904:	00 00 00 60 	nop
    10001908:	00 00 00 60 	nop
    1000190c:	00 00 00 60 	nop

0000000010001910 <__libc_csu_init>:
    10001910:	02 10 40 3c 	lis     r2,4098
    10001914:	00 7f 42 38 	addi    r2,r2,32512
    10001918:	a6 02 08 7c 	mflr    r0
    1000191c:	d0 ff 41 fb 	std     r26,-48(r1)
    10001920:	d8 ff 61 fb 	std     r27,-40(r1)
    10001924:	e0 ff 81 fb 	std     r28,-32(r1)
    10001928:	e8 ff a1 fb 	std     r29,-24(r1)
    1000192c:	f0 ff c1 fb 	std     r30,-16(r1)
    10001930:	f8 ff e1 fb 	std     r31,-8(r1)
    10001934:	10 00 01 f8 	std     r0,16(r1)
    10001938:	b1 ff 21 f8 	stdu    r1,-80(r1)
    1000193c:	00 00 e0 3b 	li      r31,0
    10001940:	ff ff c2 3f 	addis   r30,r2,-1
    10001944:	ff ff a2 3f 	addis   r29,r2,-1
    10001948:	88 7d de 3b 	addi    r30,r30,32136
    1000194c:	98 7d bd 3b 	addi    r29,r29,32152
    10001950:	50 e8 be 7f 	subf    r29,r30,r29
    10001954:	78 1b 7a 7c 	mr      r26,r3
    10001958:	78 23 9b 7c 	mr      r27,r4
    1000195c:	78 2b bc 7c 	mr      r28,r5
    10001960:	a9 f0 ff 4b 	bl      10000a08 <_init+0x8>
    10001964:	00 00 00 60 	nop
    10001968:	75 1e bd 7f 	sradi.  r29,r29,3
    1000196c:	f8 ff de 3b 	addi    r30,r30,-8
    10001970:	40 00 82 41 	beq     100019b0 <__libc_csu_init+0xa0>
    10001974:	00 00 00 60 	nop
    10001978:	00 00 00 60 	nop
    1000197c:	00 00 42 60 	ori     r2,r2,0
    10001980:	09 00 3e e9 	ldu     r9,8(r30)
    10001984:	78 d3 43 7f 	mr      r3,r26
    10001988:	18 00 41 f8 	std     r2,24(r1)
    1000198c:	78 db 64 7f 	mr      r4,r27
    10001990:	78 e3 85 7f 	mr      r5,r28
    10001994:	01 00 ff 3b 	addi    r31,r31,1
    10001998:	a6 03 29 7d 	mtctr   r9
    1000199c:	78 4b 2c 7d 	mr      r12,r9
    100019a0:	21 04 80 4e 	bctrl
    100019a4:	18 00 41 e8 	ld      r2,24(r1)
    100019a8:	40 e8 bf 7f 	cmpld   cr7,r31,r29
    100019ac:	d4 ff 9e 40 	bne     cr7,10001980 <__libc_csu_init+0x70>
    100019b0:	50 00 21 38 	addi    r1,r1,80
    100019b4:	10 00 01 e8 	ld      r0,16(r1)
    100019b8:	d0 ff 41 eb 	ld      r26,-48(r1)
    100019bc:	d8 ff 61 eb 	ld      r27,-40(r1)
    100019c0:	e0 ff 81 eb 	ld      r28,-32(r1)
    100019c4:	e8 ff a1 eb 	ld      r29,-24(r1)
    100019c8:	f0 ff c1 eb 	ld      r30,-16(r1)
    100019cc:	f8 ff e1 eb 	ld      r31,-8(r1)
    100019d0:	a6 03 08 7c 	mtlr    r0
    100019d4:	20 00 80 4e 	blr
    100019d8:	00 00 00 00 	.long 0x0
    100019dc:	00 00 00 01 	.long 0x1000000
    100019e0:	80 06 00 00 	.long 0x680
    100019e4:	00 00 00 60 	nop
    100019e8:	00 00 00 60 	nop
    100019ec:	00 00 42 60 	ori     r2,r2,0

00000000100019f0 <__libc_csu_fini>:
    100019f0:	20 00 80 4e 	blr
	...
    10001a00:	f0 e5 01 00 	.long 0x1e5f0
    10001a04:	00 00 00 00 	.long 0x0

0000000010001a08 <__glink_PLTresolve>:
    10001a08:	a6 02 08 7c 	mflr    r0
    10001a0c:	05 00 9f 42 	bcl     20,4*cr7+so,10001a10 <__glink_PLTresolve+0x8>
    10001a10:	a6 02 68 7d 	mflr    r11
    10001a14:	18 00 41 f8 	std     r2,24(r1)
    10001a18:	f0 ff 4b e8 	ld      r2,-16(r11)
    10001a1c:	a6 03 08 7c 	mtlr    r0
    10001a20:	50 60 8b 7d 	subf    r12,r11,r12
    10001a24:	14 5a 62 7d 	add     r11,r2,r11
    10001a28:	d0 ff 0c 38 	addi    r0,r12,-48
    10001a2c:	00 00 8b e9 	ld      r12,0(r11)
    10001a30:	82 f0 00 78 	rldicl  r0,r0,62,2
    10001a34:	a6 03 89 7d 	mtctr   r12
    10001a38:	08 00 6b e9 	ld      r11,8(r11)
    10001a3c:	20 04 80 4e 	bctr

0000000010001a40 <puts@plt>:
    10001a40:	c8 ff ff 4b 	b       10001a08 <__glink_PLTresolve>

0000000010001a44 <fprintf@plt>:
    10001a44:	c4 ff ff 4b 	b       10001a08 <__glink_PLTresolve>

0000000010001a48 <MPI_Finalize@plt>:
    10001a48:	c0 ff ff 4b 	b       10001a08 <__glink_PLTresolve>

0000000010001a4c <atoi@plt>:
    10001a4c:	bc ff ff 4b 	b       10001a08 <__glink_PLTresolve>

0000000010001a50 <__libc_start_main@plt>:
    10001a50:	b8 ff ff 4b 	b       10001a08 <__glink_PLTresolve>

0000000010001a54 <getopt@plt>:
    10001a54:	b4 ff ff 4b 	b       10001a08 <__glink_PLTresolve>

0000000010001a58 <posix_memalign@plt>:
    10001a58:	b0 ff ff 4b 	b       10001a08 <__glink_PLTresolve>

0000000010001a5c <MPI_Abort@plt>:
    10001a5c:	ac ff ff 4b 	b       10001a08 <__glink_PLTresolve>

0000000010001a60 <__cxa_atexit@plt>:
    10001a60:	a8 ff ff 4b 	b       10001a08 <__glink_PLTresolve>

0000000010001a64 <MPI_Comm_size@plt>:
    10001a64:	a4 ff ff 4b 	b       10001a08 <__glink_PLTresolve>

0000000010001a68 <MPI_Comm_rank@plt>:
    10001a68:	a0 ff ff 4b 	b       10001a08 <__glink_PLTresolve>

0000000010001a6c <MPI_Init@plt>:
    10001a6c:	9c ff ff 4b 	b       10001a08 <__glink_PLTresolve>

0000000010001a70 <_ZNSt8ios_base4InitC1Ev@plt>:
    10001a70:	98 ff ff 4b 	b       10001a08 <__glink_PLTresolve>

0000000010001a74 <exit@plt>:
    10001a74:	94 ff ff 4b 	b       10001a08 <__glink_PLTresolve>

0000000010001a78 <__gmon_start__@plt>:
    10001a78:	90 ff ff 4b 	b       10001a08 <__glink_PLTresolve>

0000000010001a7c <printf@plt>:
    10001a7c:	8c ff ff 4b 	b       10001a08 <__glink_PLTresolve>

Disassembly of section .fini:

0000000010001a80 <_fini>:
    10001a80:	02 10 40 3c 	lis     r2,4098
    10001a84:	00 7f 42 38 	addi    r2,r2,32512
    10001a88:	a6 02 08 7c 	mflr    r0
    10001a8c:	10 00 01 f8 	std     r0,16(r1)
    10001a90:	a1 ff 21 f8 	stdu    r1,-96(r1)
    10001a94:	60 00 21 38 	addi    r1,r1,96
    10001a98:	10 00 01 e8 	ld      r0,16(r1)
    10001a9c:	a6 03 08 7c 	mtlr    r0
    10001aa0:	20 00 80 4e 	blr
